Archive member included because of file (symbol)

../lib/libmain.a(debug-vector.o)
                              (_DebugExceptionVector)
../lib/libmain.a(double-vector.o)
                              (_DoubleExceptionVector)
../lib/libmain.a(kernel-vector.o)
                              (_KernelExceptionVector)
../lib/libmain.a(nmi-vector.o)
                              (_NMIExceptionVector)
../lib/libmain.a(user-vector.o)
                              (_UserExceptionVector)
../lib/libmain.a(vector.o)    (call_user_start)
../lib/libmain.a(app_main.o)  ../lib/libmain.a(nmi-vector.o) (NMI_Handler)
../lib/libmain.a(ets_timer.o)
                              ../lib/libmain.a(app_main.o) (ets_timer_setfn)
../lib/libmain.a(mem_manager.o)
                              ../lib/libmain.a(app_main.o) (pvPortMalloc)
../lib/libmain.a(spi_flash.o)
                              ../lib/libmain.a(app_main.o) (spi_flash_get_id)
../lib/libmain.a(user_interface.o)
                              ../lib/libmain.a(app_main.o) (done_cb)
../lib/libmain.a(eagle_lib.o)
                              ../lib/libmain.a(user_interface.o) (ets_sprintf)
../lib/libmain.a(eagle_lwip_if.o)
                              ../lib/libmain.a(user_interface.o) (hostname)
user/.output/eagle/debug/lib/libuser.a(user_main.o)
                              ../lib/libmain.a(app_main.o) (user_init)
user/.output/eagle/debug/lib/libuser.a(AtCmd_Drv.o)
                              user/.output/eagle/debug/lib/libuser.a(user_main.o) (ATCMD_Init)
user/.output/eagle/debug/lib/libuser.a(AirKiss_Drv.o)
                              user/.output/eagle/debug/lib/libuser.a(user_main.o) (AirKiss_Init)
user/.output/eagle/debug/lib/libuser.a(user_tcpclient.o)
                              user/.output/eagle/debug/lib/libuser.a(user_main.o) (user_set_station_config)
user/.output/eagle/debug/lib/libuser.a(WildDog_Drv.o)
                              user/.output/eagle/debug/lib/libuser.a(user_main.o) (WD_Init)
user/.output/eagle/debug/lib/libuser.a(GlobalFunc.o)
                              user/.output/eagle/debug/lib/libuser.a(AtCmd_Drv.o) (Sys_GetRunTime)
user/.output/eagle/debug/lib/libuser.a(GizCmdTest.o)
                              user/.output/eagle/debug/lib/libuser.a(user_main.o) (GizCmdTestInit)
user/.output/eagle/debug/lib/libuser.a(WDJson_Drv.o)
                              user/.output/eagle/debug/lib/libuser.a(WildDog_Drv.o) (WDJson_WriteToCloud)
user/.output/eagle/debug/lib/libuser.a(Serial_Drv.o)
                              user/.output/eagle/debug/lib/libuser.a(AtCmd_Drv.o) (SerialDrv_SetRxCompleteBool)
user/.output/eagle/debug/lib/libuser.a(SensorInterface.o)
                              user/.output/eagle/debug/lib/libuser.a(AtCmd_Drv.o) (Sensor_GetHourMinSec)
user/.output/eagle/debug/lib/libuser.a(WifiInterface.o)
                              user/.output/eagle/debug/lib/libuser.a(GizCmdTest.o) (my_wifi_is_config_mode_on)
../lib/libat.a(at_baseCmd.o)  user/.output/eagle/debug/lib/libuser.a(Serial_Drv.o) (at_set_custom_info)
../lib/libat.a(at_cmd.o)      ../lib/libat.a(at_baseCmd.o) (at_fun)
../lib/libat.a(at_ipCmd.o)    user/.output/eagle/debug/lib/libuser.a(Serial_Drv.o) (at_customLinkMax)
../lib/libat.a(at_nv_data.o)  ../lib/libat.a(at_baseCmd.o) (at_restore_param_in_flash)
../lib/libat.a(at_port.o)     ../lib/libat.a(at_ipCmd.o) (at_dataLine2)
../lib/libat.a(at_wifiCmd.o)  ../lib/libat.a(at_ipCmd.o) (at_wifiMode)
../lib/libat.a(uart.o)        ../lib/libat.a(at_ipCmd.o) (fake_uart_flag)
../lib/libat.a(at_init_para.o)
                              ../lib/libat.a(at_port.o) (user_system_init_from_flash)
/opt/xtensa-lx106-elf/bin/../lib/gcc/xtensa-lx106-elf/4.8.2/libc.a(islower.o)
                              ../lib/libat.a(at_wifiCmd.o) (islower)
/opt/xtensa-lx106-elf/bin/../lib/gcc/xtensa-lx106-elf/4.8.2/libc.a(memcmp.o)
                              user/.output/eagle/debug/lib/libuser.a(AirKiss_Drv.o) (memcmp)
/opt/xtensa-lx106-elf/bin/../lib/gcc/xtensa-lx106-elf/4.8.2/libc.a(memcpy.o)
                              user/.output/eagle/debug/lib/libuser.a(AtCmd_Drv.o) (memcpy)
/opt/xtensa-lx106-elf/bin/../lib/gcc/xtensa-lx106-elf/4.8.2/libc.a(memset.o)
                              user/.output/eagle/debug/lib/libuser.a(AirKiss_Drv.o) (memset)
/opt/xtensa-lx106-elf/bin/../lib/gcc/xtensa-lx106-elf/4.8.2/libc.a(ctype_.o)
                              /opt/xtensa-lx106-elf/bin/../lib/gcc/xtensa-lx106-elf/4.8.2/libc.a(islower.o) (_ctype_)
../lib/libgcc.a(_modsi3.o)    ../lib/libat.a(uart.o) (__modsi3)
/opt/xtensa-lx106-elf/bin/../lib/gcc/xtensa-lx106-elf/4.8.2/libhal.a(int_asm--set_intclear.o)
                              ../lib/libmain.a(app_main.o) (xthal_set_intclear)
../lib/libphy.a(phy.o)        ../lib/libmain.a(app_main.o) (phy_enable_agc)
../lib/libphy.a(phy_chip_v6_ana.o)
                              ../lib/libmain.a(app_main.o) (chip_v6_set_chan_offset)
../lib/libphy.a(phy_chip_v6.o)
                              ../lib/libphy.a(phy_chip_v6_ana.o) (g_phyFuns)
../lib/libphy.a(phy_chip_v6_cal.o)
                              ../lib/libphy.a(phy_chip_v6.o) (phy_tx_pwr_error)
../lib/libphy.a(phy_chip_v6_unused.o)
                              ../lib/libphy.a(phy_chip_v6.o) (chip_v6_set_sense)
../lib/libphy.a(phy_sleep.o)  ../lib/libphy.a(phy_chip_v6.o) (pm_set_sleep_cycles)
../lib/libpp.a(if_hwctrl.o)   ../lib/libmain.a(user_interface.o) (ic_set_vif)
../lib/libpp.a(lmac.o)        ../lib/libmain.a(app_main.o) (lmacInit)
../lib/libpp.a(pm.o)          ../lib/libmain.a(user_interface.o) (pm_rtc_clock_cali_proc)
../lib/libpp.a(pm_for_bcn_only_mode.o)
                              ../lib/libpp.a(pm.o) (fpm_is_open)
../lib/libpp.a(pp.o)          ../lib/libpp.a(pm.o) (pend_flag_noise_check)
../lib/libpp.a(rate_control.o)
                              ../lib/libpp.a(lmac.o) (RC_SetBasicRate)
../lib/libpp.a(trc.o)         ../lib/libmain.a(user_interface.o) (rc_set_rate_limit_id)
../lib/libpp.a(wdev.o)        ../lib/libpp.a(pp.o) (wDevCtrl)
../lib/libpp.a(esf_buf.o)     ../lib/libpp.a(wdev.o) (esf_rx_buf_alloc)
../lib/libnet80211.a(ieee80211.o)
                              ../lib/libmain.a(app_main.o) (g_ic)
../lib/libnet80211.a(ieee80211_crypto.o)
                              ../lib/libnet80211.a(ieee80211.o) (ieee80211_crypto_attach)
../lib/libnet80211.a(ieee80211_ets.o)
                              ../lib/libpp.a(pm.o) (ieee80211_getmgtframe)
../lib/libnet80211.a(ieee80211_hostap.o)
                              ../lib/libmain.a(user_interface.o) (BcnEb_update)
../lib/libnet80211.a(ieee80211_ht.o)
                              ../lib/libmain.a(user_interface.o) (ieee80211_ht_attach)
../lib/libnet80211.a(ieee80211_input.o)
                              ../lib/libnet80211.a(ieee80211_hostap.o) (ieee80211_decap)
../lib/libnet80211.a(ieee80211_mesh_quick.o)
                              ../lib/libnet80211.a(ieee80211_hostap.o) (ieee80211_mesh_quick_get)
../lib/libnet80211.a(ieee80211_output.o)
                              ../lib/libmain.a(eagle_lwip_if.o) (ieee80211_output_pbuf)
../lib/libnet80211.a(ieee80211_phy.o)
                              ../lib/libmain.a(app_main.o) (ieee80211_phy_init)
../lib/libnet80211.a(ieee80211_power.o)
                              ../lib/libnet80211.a(ieee80211_hostap.o) (ieee80211_psq_init)
../lib/libnet80211.a(ieee80211_proto.o)
                              ../lib/libnet80211.a(ieee80211.o) (ieee80211_proto_attach)
../lib/libnet80211.a(ieee80211_rfid.o)
                              ../lib/libmain.a(user_interface.o) (ieee80211_rfid_locp_recv_open)
../lib/libnet80211.a(ieee80211_scan.o)
                              ../lib/libpp.a(pp.o) (gScanStruct)
../lib/libnet80211.a(ieee80211_sta.o)
                              ../lib/libmain.a(user_interface.o) (ieee80211_sta_new_state)
../lib/libnet80211.a(wl_chm.o)
                              ../lib/libnet80211.a(ieee80211.o) (chm_init)
../lib/libnet80211.a(wl_cnx.o)
                              ../lib/libmain.a(user_interface.o) (sta_con_timer)
../lib/libnet80211.a(ieee80211_action.o)
                              ../lib/libnet80211.a(ieee80211_ht.o) (ieee80211_send_action_register)
../lib/libnet80211.a(ieee80211_action_vendor.o)
                              ../lib/libnet80211.a(ieee80211.o) (ieee80211_action_vendor_spec_attach)
../lib/libnet80211.a(ieee80211_crypto_ccmp.o)
                              ../lib/libnet80211.a(ieee80211_input.o) (ccmp)
../lib/libnet80211.a(ieee80211_ie_vendor.o)
                              ../lib/libnet80211.a(ieee80211_mesh_quick.o) (ieee80211_add_ie_vendor_esp_mesh_assoc)
../lib/liblwip.a(dhcp.o)      ../lib/libnet80211.a(wl_cnx.o) (dhcp_release)
../lib/liblwip.a(dhcpserver.o)
                              ../lib/libmain.a(user_interface.o) (dhcps_start)
../lib/liblwip.a(dns.o)       ../lib/liblwip.a(dhcp.o) (dns_setserver)
../lib/liblwip.a(espconn_mdns.o)
                              ../lib/libat.a(at_ipCmd.o) (espconn_mdns_close)
../lib/liblwip.a(espconn.o)   ../lib/libat.a(at_ipCmd.o) (espconn_connect)
../lib/liblwip.a(espconn_tcp.o)
                              ../lib/liblwip.a(espconn.o) (espconn_tcp_disconnect)
../lib/liblwip.a(espconn_udp.o)
                              ../lib/liblwip.a(espconn.o) (espconn_udp_sent)
../lib/liblwip.a(etharp.o)    ../lib/libmain.a(user_interface.o) (ethbroadcast)
../lib/liblwip.a(igmp.o)      ../lib/liblwip.a(espconn_udp.o) (igmp_joingroup)
../lib/liblwip.a(inet_chksum.o)
                              ../lib/liblwip.a(igmp.o) (inet_chksum)
../lib/liblwip.a(init.o)      ../lib/libmain.a(app_main.o) (lwip_init)
../lib/liblwip.a(ip_addr.o)   ../lib/liblwip.a(dhcp.o) (ip_addr_any)
../lib/liblwip.a(ip.o)        ../lib/liblwip.a(etharp.o) (ip_input)
../lib/liblwip.a(mdns.o)      ../lib/liblwip.a(espconn_mdns.o) (mdns_close)
../lib/liblwip.a(memp.o)      ../lib/liblwip.a(etharp.o) (memp_sizes)
../lib/liblwip.a(netif.o)     ../lib/liblwip.a(dhcp.o) (netif_list)
../lib/liblwip.a(pbuf.o)      ../lib/libnet80211.a(ieee80211_hostap.o) (pbuf_alloc)
../lib/liblwip.a(ping.o)      ../lib/libat.a(at_wifiCmd.o) (ping_start)
../lib/liblwip.a(raw.o)       ../lib/liblwip.a(ip.o) (raw_input)
../lib/liblwip.a(tcp_in.o)    ../lib/liblwip.a(ip.o) (tcp_input)
../lib/liblwip.a(tcp.o)       ../lib/liblwip.a(espconn_tcp.o) (tcp_active_pcbs)
../lib/liblwip.a(tcp_out.o)   ../lib/liblwip.a(tcp.o) (tcp_send_fin)
../lib/liblwip.a(timers.o)    ../lib/liblwip.a(ping.o) (sys_timeout)
../lib/liblwip.a(udp.o)       ../lib/liblwip.a(ip.o) (udp_input)
../lib/liblwip.a(icmp.o)      ../lib/liblwip.a(ip.o) (icmp_input)
../lib/libwpa.a(ap_config.o)  ../lib/libnet80211.a(ieee80211_hostap.o) (hostapd_setup_wpa_psk)
../lib/libwpa.a(common.o)     ../lib/libmain.a(user_interface.o) (hexstr2bin)
../lib/libwpa.a(os_xtensa.o)  ../lib/libwpa.a(common.o) (os_get_time)
../lib/libwpa.a(wpa_auth.o)   ../lib/libnet80211.a(ieee80211_hostap.o) (wpa_init)
../lib/libwpa.a(wpa_auth_ie.o)
                              ../lib/libwpa.a(wpa_auth.o) (wpa_auth_gen_wpa_ie)
../lib/libwpa.a(wpa.o)        ../lib/libnet80211.a(ieee80211_sta.o) (wpa_sm_rx_eapol)
../lib/libwpa.a(wpa_common.o)
                              ../lib/libwpa.a(wpa_auth_ie.o) (wpa_parse_wpa_ie_rsn)
../lib/libwpa.a(wpa_debug.o)  ../lib/libwpa.a(wpa_auth.o) (eloop_cancel_timeout)
../lib/libwpa.a(wpa_ie.o)     ../lib/libnet80211.a(ieee80211_scan.o) (wpa_parse_wpa_ie)
../lib/libwpa.a(wpa_main.o)   ../lib/libnet80211.a(wl_cnx.o) (ppInstallKey)
../lib/libwpa.a(wpas_glue.o)  ../lib/libwpa.a(wpa.o) (wpa_sm_alloc_eapol)
../lib/libcrypto.a(aes-wrap.o)
                              ../lib/libwpa.a(wpa_auth.o) (aes_wrap)
../lib/libcrypto.a(aes-internal-enc.o)
                              ../lib/libcrypto.a(aes-wrap.o) (aes_encrypt_init)
../lib/libcrypto.a(aes-internal.o)
                              ../lib/libcrypto.a(aes-internal-enc.o) (rijndaelKeySetupEnc)
../lib/libssl.a(espconn_secure.o)
                              ../lib/libat.a(at_ipCmd.o) (espconn_secure_connect)
../lib/libssl.a(espconn_ssl.o)
                              ../lib/libssl.a(espconn_secure.o) (espconn_ssl_sent)
../lib/libssl.a(ssl_loader.o)
                              ../lib/libssl.a(espconn_ssl.o) (ssl_obj_load)
../lib/libssl.a(ssl_md5.o)    ../lib/libssl.a(ssl_loader.o) (MD5_Init)
../lib/libssl.a(ssl_tls1_clnt.o)
                              ../lib/libssl.a(espconn_ssl.o) (SSLClient_new)
../lib/libssl.a(ssl_tls1.o)   ../lib/libssl.a(ssl_tls1_clnt.o) (ssl_prot_prefs)
../lib/libssl.a(ssl_tls1_svr.o)
                              ../lib/libssl.a(espconn_ssl.o) (sslserver_new)
../lib/libssl.a(ssl_x509.o)   ../lib/libssl.a(ssl_tls1.o) (x509_new)
../lib/libssl.a(sha256.o)     ../lib/libssl.a(ssl_x509.o) (SHA256_Init)
../lib/libssl.a(sha384.o)     ../lib/libssl.a(ssl_x509.o) (SHA384_Init)
../lib/libssl.a(sha512.o)     ../lib/libssl.a(ssl_x509.o) (SHA512_Init)
../lib/libssl.a(ssl_aes.o)    ../lib/libssl.a(ssl_loader.o) (AES_set_key)
../lib/libssl.a(ssl_asn1.o)   ../lib/libssl.a(ssl_x509.o) (get_asn1_length)
../lib/libssl.a(ssl_bigint.o)
                              ../lib/libssl.a(ssl_x509.o) (bi_free)
../lib/libssl.a(ssl_crypto_misc.o)
                              ../lib/libssl.a(ssl_loader.o) (get_file)
../lib/libssl.a(ssl_hmac.o)   ../lib/libssl.a(ssl_tls1.o) (ssl_hmac_md5)
../lib/libssl.a(ssl_os_port.o)
                              ../lib/libssl.a(ssl_x509.o) (gettimeofday)
../lib/libssl.a(ssl_rc4.o)    ../lib/libssl.a(ssl_tls1.o) (RC4_setup)
../lib/libssl.a(ssl_rsa.o)    ../lib/libssl.a(ssl_asn1.o) (RSA_priv_key_new)
../lib/libssl.a(ssl_sha1.o)   ../lib/libssl.a(ssl_tls1.o) (SHA1_Init)
../lib/libwps.a(wps.o)        ../lib/libat.a(at_wifiCmd.o) (wifi_wps_enable)
../lib/libwps.a(wps_common.o)
                              ../lib/libwps.a(wps.o) (wps_generate_pin)
../lib/libwps.a(wps_dev_attr.o)
                              ../lib/libwps.a(wps.o) (wps_build_manufacturer)
../lib/libwps.a(wps_enrollee.o)
                              ../lib/libwps.a(wps.o) (wps_enrollee_get_msg)
../lib/libwps.a(wps_registrar.o)
                              ../lib/libwps.a(wps_enrollee.o) (wps_device_store)
../lib/libwps.a(wps_validate.o)
                              ../lib/libwps.a(wps_registrar.o) (wps_validate_m1)
../lib/libwps.a(eap_common.o)
                              ../lib/libwps.a(wps.o) (eap_msg_alloc)
../lib/libwps.a(uuid.o)       ../lib/libwps.a(wps_registrar.o) (uuid_bin2str)
../lib/libwps.a(wps_attr_build.o)
                              ../lib/libwps.a(wps.o) (wps_build_public_key)
../lib/libwps.a(wps_attr_parse.o)
                              ../lib/libwps.a(wps.o) (wps_parse_msg)
../lib/libwps.a(wps_attr_process.o)
                              ../lib/libwps.a(wps_enrollee.o) (wps_process_authenticator)
../lib/libsmartconfig.a(sc_sniffer.o)
                              user/.output/eagle/debug/lib/libuser.a(AirKiss_Drv.o) (smartconfig_stop)
../lib/libsmartconfig.a(sc_airkiss.o)
                              ../lib/libsmartconfig.a(sc_sniffer.o) (pAKGuideGlob)
../lib/libsmartconfig.a(sc_esptouch.o)
                              ../lib/libsmartconfig.a(sc_sniffer.o) (pETGuideGlob)
../lib/libwilddog.a(wilddog_api.o)
                              user/.output/eagle/debug/lib/libuser.a(WDJson_Drv.o) (wilddog_increaseTime)
../lib/libwilddog.a(wilddog_common.o)
                              ../lib/libwilddog.a(wilddog_api.o) (_wilddog_setTimeIncrease)
../lib/libwilddog.a(wilddog_ct.o)
                              ../lib/libwilddog.a(wilddog_api.o) (_wilddog_ct_ioctl)
../lib/libwilddog.a(wilddog_espressif.o)
                              user/.output/eagle/debug/lib/libuser.a(WildDog_Drv.o) (gethost)
../lib/libwilddog.a(wilddog_node.o)
                              user/.output/eagle/debug/lib/libuser.a(WDJson_Drv.o) (wilddog_node_setValue)
../lib/libwilddog.a(wilddog_store.o)
                              ../lib/libwilddog.a(wilddog_ct.o) (_wilddog_store_init)
../lib/libwilddog.a(wilddog_url_parser.o)
                              ../lib/libwilddog.a(wilddog_ct.o) (_wilddog_url_freeParsedUrl)
../lib/libwilddog.a(wilddog_conn.o)
                              ../lib/libwilddog.a(wilddog_ct.o) (_wilddog_conn_deinit)
../lib/libwilddog.a(wilddog_conn_coap.o)
                              ../lib/libwilddog.a(wilddog_conn.o) (_wilddog_protocol_ioctl)
../lib/libwilddog.a(wilddog_conn_manage.o)
                              ../lib/libwilddog.a(wilddog_conn.o) (_wilddog_cm_ioctl)
../lib/libwilddog.a(wilddog_event.o)
                              ../lib/libwilddog.a(wilddog_store.o) (_wilddog_event_init)
../lib/libwilddog.a(wilddog_nosec.o)
                              ../lib/libwilddog.a(wilddog_conn_coap.o) (_wilddog_sec_send)
../lib/libwilddog.a(wilddog_sec_host.o)
                              ../lib/libwilddog.a(wilddog_nosec.o) (_wilddog_sec_getHost)
../lib/libwilddog.a(option.o)
                              ../lib/libwilddog.a(wilddog_conn_coap.o) (coap_option_iterator_init)
../lib/libwilddog.a(pdu.o)    ../lib/libwilddog.a(wilddog_conn_coap.o) (coap_pdu_init)
../lib/libwilddog.a(wilddog_cbor.o)
                              ../lib/libwilddog.a(wilddog_conn.o) (_wilddog_node2Payload)
../lib/libairkiss.a(airlink.o)
                              user/.output/eagle/debug/lib/libuser.a(AirKiss_Drv.o) (airkiss_lan_recv)
/opt/xtensa-lx106-elf/bin/../lib/gcc/xtensa-lx106-elf/4.8.2/libc.a(atoi.o)
                              ../lib/libwps.a(wps_common.o) (atoi)
/opt/xtensa-lx106-elf/bin/../lib/gcc/xtensa-lx106-elf/4.8.2/libc.a(rand.o)
                              ../lib/libwilddog.a(wilddog_conn_manage.o) (srand)
/opt/xtensa-lx106-elf/bin/../lib/gcc/xtensa-lx106-elf/4.8.2/libc.a(strchr.o)
                              ../lib/libwilddog.a(wilddog_url_parser.o) (strchr)
/opt/xtensa-lx106-elf/bin/../lib/gcc/xtensa-lx106-elf/4.8.2/libc.a(strtol.o)
                              /opt/xtensa-lx106-elf/bin/../lib/gcc/xtensa-lx106-elf/4.8.2/libc.a(atoi.o) (_strtol_r)
/opt/xtensa-lx106-elf/bin/../lib/gcc/xtensa-lx106-elf/4.8.2/libc.a(impure.o)
                              /opt/xtensa-lx106-elf/bin/../lib/gcc/xtensa-lx106-elf/4.8.2/libc.a(rand.o) (_impure_ptr)
../lib/libgcc.a(_ashrdi3.o)   ../lib/libphy.a(phy_chip_v6.o) (__ashrdi3)
../lib/libgcc.a(_mulsf3.o)    ../lib/libphy.a(phy_chip_v6_ana.o) (__mulsf3)
../lib/libgcc.a(_divsf3.o)    ../lib/libphy.a(phy_chip_v6_ana.o) (__divsf3)
../lib/libgcc.a(_fixsfsi.o)   ../lib/libphy.a(phy_chip_v6.o) (__fixsfsi)
../lib/libgcc.a(_cmpdf2.o)    ../lib/libwilddog.a(wilddog_cbor.o) (__ltdf2)
../lib/libnet80211.a(ieee80211_crypto_tkip.o)
                              ../lib/libwpa.a(wpa_auth.o) (tkip)
../lib/libnet80211.a(ieee80211_crypto_wep.o)
                              ../lib/libwpa.a(wpa_auth.o) (wep)
../lib/libwpa.a(wpabuf.o)     ../lib/libwps.a(wps.o) (wpabuf_put)
../lib/libcrypto.a(aes-cbc.o)
                              ../lib/libwps.a(wps_attr_build.o) (aes_128_cbc_encrypt)
../lib/libcrypto.a(aes-internal-dec.o)
                              ../lib/libcrypto.a(aes-cbc.o) (aes_decrypt_init)
../lib/libcrypto.a(dh_group5.o)
                              ../lib/libwps.a(wps_attr_build.o) (dh5_init)
../lib/libcrypto.a(dh_groups.o)
                              ../lib/libcrypto.a(dh_group5.o) (dh_groups_get)
../lib/libcrypto.a(sha256.o)  ../lib/libwps.a(wps_common.o) (hmac_sha256_vector)
../lib/libcrypto.a(sha256-internal.o)
                              ../lib/libwps.a(wps_common.o) (sha256_vector)
../lib/libcrypto.a(crypto_internal-modexp.o)
                              ../lib/libcrypto.a(dh_groups.o) (crypto_mod_exp)
../lib/libcrypto.a(bignum.o)  ../lib/libcrypto.a(crypto_internal-modexp.o) (bignum_init)

Allocating common symbols
Common symbol       size              file

DefaultStationConfig
                    0x67              user/.output/eagle/debug/lib/libuser.a(AirKiss_Drv.o)
lan_buf             0xc8              user/.output/eagle/debug/lib/libuser.a(AirKiss_Drv.o)
client_timer        0x14              user/.output/eagle/debug/lib/libuser.a(WildDog_Drv.o)
test_timer2         0x14              user/.output/eagle/debug/lib/libuser.a(WildDog_Drv.o)
head                0x4               ../lib/libwilddog.a(wilddog_espressif.o)
test_timer1         0x14              user/.output/eagle/debug/lib/libuser.a(WildDog_Drv.o)
tcp_server_ip       0x4               user/.output/eagle/debug/lib/libuser.a(user_tcpclient.o)
lan_buf_len         0x2               user/.output/eagle/debug/lib/libuser.a(AirKiss_Drv.o)

Memory Configuration

Name             Origin             Length             Attributes
dport0_0_seg     0x3ff00000         0x00000010
dram0_0_seg      0x3ffe8000         0x00014000
iram1_0_seg      0x40100000         0x00008000
irom0_0_seg      0x40201010         0x0006b000
*default*        0x00000000         0xffffffff

Linker script and memory map

START GROUP
LOAD /opt/xtensa-lx106-elf/bin/../lib/gcc/xtensa-lx106-elf/4.8.2/libc.a
LOAD ../lib/libm.a
LOAD ../lib/libgcc.a
LOAD /opt/xtensa-lx106-elf/bin/../lib/gcc/xtensa-lx106-elf/4.8.2/libhal.a
LOAD ../lib/libphy.a
LOAD ../lib/libpp.a
LOAD ../lib/libnet80211.a
LOAD ../lib/liblwip.a
LOAD ../lib/libwpa.a
LOAD ../lib/libcrypto.a
LOAD ../lib/libmain.a
LOAD ../lib/libjson.a
LOAD ../lib/libupgrade.a
LOAD ../lib/libssl.a
LOAD ../lib/libpwm.a
LOAD ../lib/libwps.a
LOAD ../lib/libsmartconfig.a
LOAD ../lib/libwilddog.a
LOAD ../lib/libairkiss.a
LOAD user/.output/eagle/debug/lib/libuser.a
LOAD driver/.output/eagle/debug/lib/libdriver.a
LOAD ../lib/libat.a
END GROUP
                0x40000000                PROVIDE (_memmap_vecbase_reset, 0x40000000)
                0x00000110                _memmap_cacheattr_wb_base = 0x110
                0x00000110                _memmap_cacheattr_wt_base = 0x110
                0x00000220                _memmap_cacheattr_bp_base = 0x220
                0xfffff00f                _memmap_cacheattr_unused_mask = 0xfffff00f
                0x2222211f                _memmap_cacheattr_wb_trapnull = 0x2222211f
                0x2222211f                _memmap_cacheattr_wba_trapnull = 0x2222211f
                0x2222211f                _memmap_cacheattr_wbna_trapnull = 0x2222211f
                0x2222211f                _memmap_cacheattr_wt_trapnull = 0x2222211f
                0x2222222f                _memmap_cacheattr_bp_trapnull = 0x2222222f
                0xfffff11f                _memmap_cacheattr_wb_strict = 0xfffff11f
                0xfffff11f                _memmap_cacheattr_wt_strict = 0xfffff11f
                0xfffff22f                _memmap_cacheattr_bp_strict = 0xfffff22f
                0x22222112                _memmap_cacheattr_wb_allvalid = 0x22222112
                0x22222112                _memmap_cacheattr_wt_allvalid = 0x22222112
                0x22222222                _memmap_cacheattr_bp_allvalid = 0x22222222
                0x2222211f                PROVIDE (_memmap_cacheattr_reset, _memmap_cacheattr_wb_trapnull)

.dport0.rodata  0x3ff00000        0x0
                0x3ff00000                _dport0_rodata_start = ABSOLUTE (.)
 *(.dport0.rodata)
 *(.dport.rodata)
                0x3ff00000                _dport0_rodata_end = ABSOLUTE (.)

.dport0.literal
                0x3ff00000        0x0
                0x3ff00000                _dport0_literal_start = ABSOLUTE (.)
 *(.dport0.literal)
 *(.dport.literal)
                0x3ff00000                _dport0_literal_end = ABSOLUTE (.)

.dport0.data    0x3ff00000        0x0
                0x3ff00000                _dport0_data_start = ABSOLUTE (.)
 *(.dport0.data)
 *(.dport.data)
                0x3ff00000                _dport0_data_end = ABSOLUTE (.)

.data           0x3ffe8000      0x9a4
                0x3ffe8000                _data_start = ABSOLUTE (.)
 *(.data)
 .data          0x3ffe8000        0x0 ../lib/libmain.a(debug-vector.o)
 .data          0x3ffe8000        0x0 ../lib/libmain.a(double-vector.o)
 .data          0x3ffe8000        0x0 ../lib/libmain.a(kernel-vector.o)
 .data          0x3ffe8000        0x4 ../lib/libmain.a(nmi-vector.o)
                0x3ffe8000                _Pri_3_HandlerAddress
 .data          0x3ffe8004        0x0 ../lib/libmain.a(user-vector.o)
 .data          0x3ffe8004        0x0 ../lib/libmain.a(vector.o)
 .data          0x3ffe8004        0x1 ../lib/libmain.a(app_main.o)
 .data          0x3ffe8005        0x0 ../lib/libmain.a(ets_timer.o)
 .data          0x3ffe8005        0x0 ../lib/libmain.a(mem_manager.o)
 .data          0x3ffe8005        0x0 ../lib/libmain.a(spi_flash.o)
 *fill*         0x3ffe8005        0x3 
 .data          0x3ffe8008        0x6 ../lib/libmain.a(user_interface.o)
                0x3ffe8009                timer2_ms_flag
                0x3ffe800a                dhcps_flag
                0x3ffe800b                dhcpc_flag
                0x3ffe800d                reconnect_internal
 .data          0x3ffe800e        0x0 ../lib/libmain.a(eagle_lib.o)
 *fill*         0x3ffe800e        0x2 
 .data          0x3ffe8010        0x1 ../lib/libmain.a(eagle_lwip_if.o)
                0x3ffe8010                default_hostname
 .data          0x3ffe8011        0x0 user/.output/eagle/debug/lib/libuser.a(user_main.o)
 .data          0x3ffe8011        0x0 user/.output/eagle/debug/lib/libuser.a(AtCmd_Drv.o)
 .data          0x3ffe8011        0x0 user/.output/eagle/debug/lib/libuser.a(AirKiss_Drv.o)
 .data          0x3ffe8011        0x0 user/.output/eagle/debug/lib/libuser.a(user_tcpclient.o)
 .data          0x3ffe8011        0x0 user/.output/eagle/debug/lib/libuser.a(WildDog_Drv.o)
 .data          0x3ffe8011        0x0 user/.output/eagle/debug/lib/libuser.a(GlobalFunc.o)
 .data          0x3ffe8011        0x0 user/.output/eagle/debug/lib/libuser.a(GizCmdTest.o)
 .data          0x3ffe8011        0x0 user/.output/eagle/debug/lib/libuser.a(WDJson_Drv.o)
 .data          0x3ffe8011        0x0 user/.output/eagle/debug/lib/libuser.a(Serial_Drv.o)
 .data          0x3ffe8011        0x0 user/.output/eagle/debug/lib/libuser.a(SensorInterface.o)
 .data          0x3ffe8011        0x0 user/.output/eagle/debug/lib/libuser.a(WifiInterface.o)
 .data          0x3ffe8011        0x0 ../lib/libat.a(at_baseCmd.o)
 .data          0x3ffe8011        0x0 ../lib/libat.a(at_cmd.o)
 *fill*         0x3ffe8011        0x3 
 .data          0x3ffe8014        0x9 ../lib/libat.a(at_ipCmd.o)
 *fill*         0x3ffe801d        0x3 
 .data          0x3ffe8020        0x2 ../lib/libat.a(at_nv_data.o)
                0x3ffe8020                ESP_PARAM_START_SEC
 *fill*         0x3ffe8022        0x2 
 .data          0x3ffe8024        0x3 ../lib/libat.a(at_port.o)
                0x3ffe8024                at_escape_character
                0x3ffe8025                echoFlag
                0x3ffe8026                specialAtState
 *fill*         0x3ffe8027        0x1 
 .data          0x3ffe8028        0xc ../lib/libat.a(at_wifiCmd.o)
                0x3ffe8028                ap_print_mask
                0x3ffe802c                at_join_ap_wait_time
                0x3ffe8030                mdState
 .data          0x3ffe8034        0x0 ../lib/libat.a(uart.o)
 .data          0x3ffe8034        0x0 ../lib/libat.a(at_init_para.o)
 .data          0x3ffe8034        0x0 /opt/xtensa-lx106-elf/bin/../lib/gcc/xtensa-lx106-elf/4.8.2/libc.a(islower.o)
 .data          0x3ffe8034        0x0 /opt/xtensa-lx106-elf/bin/../lib/gcc/xtensa-lx106-elf/4.8.2/libc.a(memcmp.o)
 .data          0x3ffe8034        0x0 /opt/xtensa-lx106-elf/bin/../lib/gcc/xtensa-lx106-elf/4.8.2/libc.a(memcpy.o)
 .data          0x3ffe8034        0x0 /opt/xtensa-lx106-elf/bin/../lib/gcc/xtensa-lx106-elf/4.8.2/libc.a(memset.o)
 .data          0x3ffe8034        0x4 /opt/xtensa-lx106-elf/bin/../lib/gcc/xtensa-lx106-elf/4.8.2/libc.a(ctype_.o)
                0x3ffe8034                __ctype_ptr
 .data          0x3ffe8038        0x0 ../lib/libgcc.a(_modsi3.o)
 .data          0x3ffe8038        0x0 /opt/xtensa-lx106-elf/bin/../lib/gcc/xtensa-lx106-elf/4.8.2/libhal.a(int_asm--set_intclear.o)
 .data          0x3ffe8038        0x0 ../lib/libphy.a(phy.o)
 .data          0x3ffe8038        0x0 ../lib/libphy.a(phy_chip_v6_ana.o)
 *fill*         0x3ffe8038        0x8 
 .data          0x3ffe8040       0x53 ../lib/libphy.a(phy_chip_v6.o)
                0x3ffe8042                tx_rf_ana_gain
                0x3ffe8070                rx_gain_swp
                0x3ffe8090                test_rffreq_txcap
 *fill*         0x3ffe8093        0x1 
 .data          0x3ffe8094        0x1 ../lib/libphy.a(phy_chip_v6_cal.o)
                0x3ffe8094                rfcal_bb_atten_init
 .data          0x3ffe8095        0x0 ../lib/libphy.a(phy_chip_v6_unused.o)
 *fill*         0x3ffe8095        0x3 
 .data          0x3ffe8098        0x4 ../lib/libphy.a(phy_sleep.o)
                0x3ffe8098                chip_version
 .data          0x3ffe809c        0x0 ../lib/libpp.a(if_hwctrl.o)
 .data          0x3ffe809c        0x0 ../lib/libpp.a(lmac.o)
 .data          0x3ffe809c        0x1 ../lib/libpp.a(pm.o)
 *fill*         0x3ffe809d        0x3 
 .data          0x3ffe80a0        0x1 ../lib/libpp.a(pm_for_bcn_only_mode.o)
 *fill*         0x3ffe80a1        0x3 
 .data          0x3ffe80a4       0x1c ../lib/libpp.a(pp.o)
                0x3ffe80a4                soft_wdt_interval
                0x3ffe80a8                NoiseTimerInterval
                0x3ffe80b0                sleep_start_wait_time
                0x3ffe80b8                CanDoFreqCal
                0x3ffe80bc                tcb
 .data          0x3ffe80c0       0x40 ../lib/libpp.a(rate_control.o)
 .data          0x3ffe8100      0x24c ../lib/libpp.a(trc.o)
 .data          0x3ffe834c        0x8 ../lib/libpp.a(wdev.o)
 .data          0x3ffe8354        0x0 ../lib/libpp.a(esf_buf.o)
 .data          0x3ffe8354        0x0 ../lib/libnet80211.a(ieee80211.o)
 .data          0x3ffe8354        0x0 ../lib/libnet80211.a(ieee80211_crypto.o)
 .data          0x3ffe8354        0x0 ../lib/libnet80211.a(ieee80211_ets.o)
 .data          0x3ffe8354        0x1 ../lib/libnet80211.a(ieee80211_hostap.o)
                0x3ffe8354                TmpSTAAPCloseAP
 .data          0x3ffe8355        0x0 ../lib/libnet80211.a(ieee80211_ht.o)
 .data          0x3ffe8355        0x0 ../lib/libnet80211.a(ieee80211_input.o)
 .data          0x3ffe8355        0x0 ../lib/libnet80211.a(ieee80211_mesh_quick.o)
 .data          0x3ffe8355        0x0 ../lib/libnet80211.a(ieee80211_output.o)
 .data          0x3ffe8355        0x0 ../lib/libnet80211.a(ieee80211_phy.o)
 .data          0x3ffe8355        0x0 ../lib/libnet80211.a(ieee80211_power.o)
 .data          0x3ffe8355        0x0 ../lib/libnet80211.a(ieee80211_proto.o)
 .data          0x3ffe8355        0x0 ../lib/libnet80211.a(ieee80211_rfid.o)
 .data          0x3ffe8355        0x0 ../lib/libnet80211.a(ieee80211_scan.o)
 .data          0x3ffe8355        0x0 ../lib/libnet80211.a(ieee80211_sta.o)
 .data          0x3ffe8355        0x0 ../lib/libnet80211.a(wl_chm.o)
 *fill*         0x3ffe8355        0x3 
 .data          0x3ffe8358        0x1 ../lib/libnet80211.a(wl_cnx.o)
 *fill*         0x3ffe8359        0x7 
 .data          0x3ffe8360       0x1c ../lib/libnet80211.a(ieee80211_action.o)
 .data          0x3ffe837c        0x0 ../lib/libnet80211.a(ieee80211_action_vendor.o)
 .data          0x3ffe837c        0x0 ../lib/libnet80211.a(ieee80211_crypto_ccmp.o)
 .data          0x3ffe837c        0x0 ../lib/libnet80211.a(ieee80211_ie_vendor.o)
 .data          0x3ffe837c        0x4 ../lib/liblwip.a(dhcp.o)
 .data          0x3ffe8380        0x5 ../lib/liblwip.a(dhcpserver.o)
                0x3ffe8380                dhcps_lease_time
 .data          0x3ffe8385        0x0 ../lib/liblwip.a(dns.o)
 .data          0x3ffe8385        0x0 ../lib/liblwip.a(espconn_mdns.o)
 .data          0x3ffe8385        0x0 ../lib/liblwip.a(espconn.o)
 .data          0x3ffe8385        0x0 ../lib/liblwip.a(espconn_tcp.o)
 .data          0x3ffe8385        0x0 ../lib/liblwip.a(espconn_udp.o)
 .data          0x3ffe8385        0x0 ../lib/liblwip.a(etharp.o)
 .data          0x3ffe8385        0x0 ../lib/liblwip.a(igmp.o)
 .data          0x3ffe8385        0x0 ../lib/liblwip.a(inet_chksum.o)
 .data          0x3ffe8385        0x0 ../lib/liblwip.a(init.o)
 .data          0x3ffe8385        0x0 ../lib/liblwip.a(ip_addr.o)
 .data          0x3ffe8385        0x0 ../lib/liblwip.a(ip.o)
 .data          0x3ffe8385        0x0 ../lib/liblwip.a(mdns.o)
 *fill*         0x3ffe8385        0x3 
 .data          0x3ffe8388        0x2 ../lib/liblwip.a(memp.o)
                0x3ffe8388                memp_sizes_test
 .data          0x3ffe838a        0x0 ../lib/liblwip.a(netif.o)
 .data          0x3ffe838a        0x0 ../lib/liblwip.a(pbuf.o)
 .data          0x3ffe838a        0x0 ../lib/liblwip.a(ping.o)
 .data          0x3ffe838a        0x0 ../lib/liblwip.a(raw.o)
 .data          0x3ffe838a        0x0 ../lib/liblwip.a(tcp_in.o)
 *fill*         0x3ffe838a        0x2 
 .data          0x3ffe838c        0x8 ../lib/liblwip.a(tcp.o)
 .data          0x3ffe8394        0x0 ../lib/liblwip.a(tcp_out.o)
 .data          0x3ffe8394        0x0 ../lib/liblwip.a(timers.o)
 .data          0x3ffe8394        0x0 ../lib/liblwip.a(udp.o)
 .data          0x3ffe8394        0x0 ../lib/liblwip.a(icmp.o)
 .data          0x3ffe8394        0x0 ../lib/libwpa.a(ap_config.o)
 .data          0x3ffe8394        0x0 ../lib/libwpa.a(common.o)
 .data          0x3ffe8394        0x0 ../lib/libwpa.a(os_xtensa.o)
 .data          0x3ffe8394        0x0 ../lib/libwpa.a(wpa_auth.o)
 .data          0x3ffe8394        0x0 ../lib/libwpa.a(wpa_auth_ie.o)
 .data          0x3ffe8394        0x0 ../lib/libwpa.a(wpa.o)
 .data          0x3ffe8394        0x0 ../lib/libwpa.a(wpa_common.o)
 .data          0x3ffe8394        0x0 ../lib/libwpa.a(wpa_debug.o)
 .data          0x3ffe8394        0x0 ../lib/libwpa.a(wpa_ie.o)
 .data          0x3ffe8394        0x0 ../lib/libwpa.a(wpa_main.o)
 .data          0x3ffe8394        0x0 ../lib/libwpa.a(wpas_glue.o)
 .data          0x3ffe8394        0x0 ../lib/libcrypto.a(aes-wrap.o)
 .data          0x3ffe8394        0x0 ../lib/libcrypto.a(aes-internal-enc.o)
 .data          0x3ffe8394        0x0 ../lib/libcrypto.a(aes-internal.o)
 .data          0x3ffe8394       0x34 ../lib/libssl.a(espconn_secure.o)
                0x3ffe8394                ssl_option
 .data          0x3ffe83c8        0x0 ../lib/libssl.a(espconn_ssl.o)
 .data          0x3ffe83c8        0x0 ../lib/libssl.a(ssl_loader.o)
 .data          0x3ffe83c8        0x0 ../lib/libssl.a(ssl_md5.o)
 .data          0x3ffe83c8        0x0 ../lib/libssl.a(ssl_tls1_clnt.o)
 .data          0x3ffe83c8        0x8 ../lib/libssl.a(ssl_tls1.o)
 .data          0x3ffe83d0        0x0 ../lib/libssl.a(ssl_tls1_svr.o)
 .data          0x3ffe83d0        0x0 ../lib/libssl.a(ssl_x509.o)
 .data          0x3ffe83d0        0x0 ../lib/libssl.a(sha256.o)
 .data          0x3ffe83d0        0x0 ../lib/libssl.a(sha384.o)
 .data          0x3ffe83d0        0x0 ../lib/libssl.a(sha512.o)
 .data          0x3ffe83d0        0x0 ../lib/libssl.a(ssl_aes.o)
 .data          0x3ffe83d0        0x0 ../lib/libssl.a(ssl_asn1.o)
 .data          0x3ffe83d0        0x0 ../lib/libssl.a(ssl_bigint.o)
 .data          0x3ffe83d0        0x0 ../lib/libssl.a(ssl_crypto_misc.o)
 .data          0x3ffe83d0        0x0 ../lib/libssl.a(ssl_hmac.o)
 .data          0x3ffe83d0        0x0 ../lib/libssl.a(ssl_os_port.o)
 .data          0x3ffe83d0        0x0 ../lib/libssl.a(ssl_rc4.o)
 .data          0x3ffe83d0        0x0 ../lib/libssl.a(ssl_rsa.o)
 .data          0x3ffe83d0        0x0 ../lib/libssl.a(ssl_sha1.o)
 .data          0x3ffe83d0        0x0 ../lib/libwps.a(wps.o)
 .data          0x3ffe83d0        0x0 ../lib/libwps.a(wps_common.o)
 .data          0x3ffe83d0        0x0 ../lib/libwps.a(wps_dev_attr.o)
 .data          0x3ffe83d0        0x0 ../lib/libwps.a(wps_enrollee.o)
 .data          0x3ffe83d0        0x0 ../lib/libwps.a(wps_registrar.o)
 .data          0x3ffe83d0        0x0 ../lib/libwps.a(wps_validate.o)
 .data          0x3ffe83d0        0x0 ../lib/libwps.a(eap_common.o)
 .data          0x3ffe83d0        0x0 ../lib/libwps.a(uuid.o)
 .data          0x3ffe83d0        0x0 ../lib/libwps.a(wps_attr_build.o)
 .data          0x3ffe83d0        0x0 ../lib/libwps.a(wps_attr_parse.o)
 .data          0x3ffe83d0        0x0 ../lib/libwps.a(wps_attr_process.o)
 .data          0x3ffe83d0        0xe ../lib/libsmartconfig.a(sc_sniffer.o)
                0x3ffe83d0                g_SC_Select
                0x3ffe83d8                ET_Group_bssid
 *fill*         0x3ffe83de        0x2 
 .data          0x3ffe83e0        0x6 ../lib/libsmartconfig.a(sc_airkiss.o)
                0x3ffe83e0                AK_Group_bssid
 *fill*         0x3ffe83e6        0x2 
 .data          0x3ffe83e8        0x1 ../lib/libsmartconfig.a(sc_esptouch.o)
                0x3ffe83e8                g_ET_TimeOut
 .data          0x3ffe83e9        0x0 ../lib/libwilddog.a(wilddog_api.o)
 .data          0x3ffe83e9        0x0 ../lib/libwilddog.a(wilddog_common.o)
 .data          0x3ffe83e9        0x0 ../lib/libwilddog.a(wilddog_ct.o)
 .data          0x3ffe83e9        0x0 ../lib/libwilddog.a(wilddog_espressif.o)
 .data          0x3ffe83e9        0x0 ../lib/libwilddog.a(wilddog_node.o)
 .data          0x3ffe83e9        0x0 ../lib/libwilddog.a(wilddog_store.o)
 .data          0x3ffe83e9        0x0 ../lib/libwilddog.a(wilddog_url_parser.o)
 .data          0x3ffe83e9        0x0 ../lib/libwilddog.a(wilddog_conn.o)
 .data          0x3ffe83e9        0x0 ../lib/libwilddog.a(wilddog_conn_coap.o)
 .data          0x3ffe83e9        0x0 ../lib/libwilddog.a(wilddog_conn_manage.o)
 .data          0x3ffe83e9        0x0 ../lib/libwilddog.a(wilddog_event.o)
 .data          0x3ffe83e9        0x0 ../lib/libwilddog.a(wilddog_nosec.o)
 .data          0x3ffe83e9        0x0 ../lib/libwilddog.a(wilddog_sec_host.o)
 .data          0x3ffe83e9        0x0 ../lib/libwilddog.a(option.o)
 .data          0x3ffe83e9        0x0 ../lib/libwilddog.a(pdu.o)
 .data          0x3ffe83e9        0x0 ../lib/libwilddog.a(wilddog_cbor.o)
 .data          0x3ffe83e9        0x0 ../lib/libairkiss.a(airlink.o)
 .data          0x3ffe83e9        0x0 /opt/xtensa-lx106-elf/bin/../lib/gcc/xtensa-lx106-elf/4.8.2/libc.a(atoi.o)
 .data          0x3ffe83e9        0x0 /opt/xtensa-lx106-elf/bin/../lib/gcc/xtensa-lx106-elf/4.8.2/libc.a(rand.o)
 .data          0x3ffe83e9        0x0 /opt/xtensa-lx106-elf/bin/../lib/gcc/xtensa-lx106-elf/4.8.2/libc.a(strchr.o)
 .data          0x3ffe83e9        0x0 /opt/xtensa-lx106-elf/bin/../lib/gcc/xtensa-lx106-elf/4.8.2/libc.a(strtol.o)
 *fill*         0x3ffe83e9        0x7 
 .data          0x3ffe83f0      0x404 /opt/xtensa-lx106-elf/bin/../lib/gcc/xtensa-lx106-elf/4.8.2/libc.a(impure.o)
                0x3ffe87f0                _impure_ptr
 .data          0x3ffe87f4        0x0 ../lib/libgcc.a(_ashrdi3.o)
 .data          0x3ffe87f4        0x0 ../lib/libgcc.a(_mulsf3.o)
 .data          0x3ffe87f4        0x0 ../lib/libgcc.a(_divsf3.o)
 .data          0x3ffe87f4        0x0 ../lib/libgcc.a(_fixsfsi.o)
 .data          0x3ffe87f4        0x0 ../lib/libgcc.a(_cmpdf2.o)
 .data          0x3ffe87f4        0x0 ../lib/libnet80211.a(ieee80211_crypto_tkip.o)
 .data          0x3ffe87f4        0x0 ../lib/libnet80211.a(ieee80211_crypto_wep.o)
 .data          0x3ffe87f4        0x0 ../lib/libwpa.a(wpabuf.o)
 .data          0x3ffe87f4        0x0 ../lib/libcrypto.a(aes-cbc.o)
 .data          0x3ffe87f4        0x0 ../lib/libcrypto.a(aes-internal-dec.o)
 .data          0x3ffe87f4        0x0 ../lib/libcrypto.a(dh_group5.o)
 *fill*         0x3ffe87f4        0xc 
 .data          0x3ffe8800       0x14 ../lib/libcrypto.a(dh_groups.o)
 .data          0x3ffe8814        0x0 ../lib/libcrypto.a(sha256.o)
 .data          0x3ffe8814        0x0 ../lib/libcrypto.a(sha256-internal.o)
 .data          0x3ffe8814        0x0 ../lib/libcrypto.a(crypto_internal-modexp.o)
 .data          0x3ffe8814        0x0 ../lib/libcrypto.a(bignum.o)
 *(.data.*)
 .data.temp$3348
                0x3ffe8814        0x4 user/.output/eagle/debug/lib/libuser.a(WDJson_Drv.o)
 .data.isNextDataToPush
                0x3ffe8818        0x4 user/.output/eagle/debug/lib/libuser.a(WDJson_Drv.o)
 .data.at_custom_cmd
                0x3ffe881c       0x18 user/.output/eagle/debug/lib/libuser.a(Serial_Drv.o)
                0x3ffe881c                at_custom_cmd
 .data.Wilddog_ApiCmd_FuncTable
                0x3ffe8834       0x58 ../lib/libwilddog.a(wilddog_ct.o)
                0x3ffe8834                Wilddog_ApiCmd_FuncTable
 .data._wilddog_conn_funcTable
                0x3ffe888c       0x44 ../lib/libwilddog.a(wilddog_conn.o)
                0x3ffe888c                _wilddog_conn_funcTable
 .data._wilddog_connCallBack_funcTable
                0x3ffe88d0       0x38 ../lib/libwilddog.a(wilddog_conn.o)
                0x3ffe88d0                _wilddog_connCallBack_funcTable
 .data._wilddog_protocolPackage_funcTable
                0x3ffe8908       0x3c ../lib/libwilddog.a(wilddog_conn_coap.o)
                0x3ffe8908                _wilddog_protocolPackage_funcTable
 .data._wilddog_cm_funcTable
                0x3ffe8944       0x38 ../lib/libwilddog.a(wilddog_conn_manage.o)
                0x3ffe8944                _wilddog_cm_funcTable
 .data.l_defaultAddr_t
                0x3ffe897c       0x28 ../lib/libwilddog.a(wilddog_sec_host.o)
 *(.gnu.linkonce.d.*)
 *(.data1)
 *(.sdata)
 *(.sdata.*)
 *(.gnu.linkonce.s.*)
 *(.sdata2)
 *(.sdata2.*)
 *(.gnu.linkonce.s2.*)
 *(.jcr)
                0x3ffe89a4                _data_end = ABSOLUTE (.)

.rodata         0x3ffe89b0     0x49b8
                0x3ffe89b0                _rodata_start = ABSOLUTE (.)
 *(.sdk.version)
 .sdk.version   0x3ffe89b0       0x10 ../lib/libmain.a(app_main.o)
                0x3ffe89b0                SDK_VERSION
 *(.rodata)
 .rodata        0x3ffe89c0       0x14 user/.output/eagle/debug/lib/libuser.a(AirKiss_Drv.o)
 .rodata        0x3ffe89d4       0x60 user/.output/eagle/debug/lib/libuser.a(WildDog_Drv.o)
 .rodata        0x3ffe8a34       0x10 ../lib/libat.a(at_wifiCmd.o)
                0x3ffe8a34                akconf
 *fill*         0x3ffe8a44        0xc 
 .rodata        0x3ffe8a50      0x101 /opt/xtensa-lx106-elf/bin/../lib/gcc/xtensa-lx106-elf/4.8.2/libc.a(ctype_.o)
                0x3ffe8a50                _ctype_
 *fill*         0x3ffe8b51        0x3 
 .rodata        0x3ffe8b54        0x8 ../lib/libphy.a(phy_chip_v6_ana.o)
 .rodata        0x3ffe8b5c        0x8 ../lib/libphy.a(phy_chip_v6.o)
 .rodata        0x3ffe8b64        0x4 ../lib/libpp.a(pp.o)
 .rodata        0x3ffe8b68        0x8 ../lib/libnet80211.a(ieee80211_hostap.o)
 .rodata        0x3ffe8b70        0x9 ../lib/libnet80211.a(ieee80211_output.o)
 *fill*         0x3ffe8b79        0x3 
 .rodata        0x3ffe8b7c        0x6 ../lib/liblwip.a(etharp.o)
                0x3ffe8b7c                ethbroadcast
 *fill*         0x3ffe8b82        0xe 
 .rodata        0x3ffe8b90       0x34 ../lib/libssl.a(ssl_loader.o)
 *fill*         0x3ffe8bc4        0xc 
 .rodata        0x3ffe8bd0       0x40 ../lib/libssl.a(ssl_md5.o)
 .rodata        0x3ffe8c10       0x74 ../lib/libssl.a(ssl_tls1.o)
                0x3ffe8c64                ssl_prot_prefs
 *fill*         0x3ffe8c84        0x4 
 .rodata        0x3ffe8c88       0x10 ../lib/libssl.a(ssl_tls1_svr.o)
 *fill*         0x3ffe8c98        0x8 
 .rodata        0x3ffe8ca0       0x40 ../lib/libssl.a(sha256.o)
 .rodata        0x3ffe8ce0      0x300 ../lib/libssl.a(sha512.o)
 .rodata        0x3ffe8fe0      0x220 ../lib/libssl.a(ssl_aes.o)
 .rodata        0x3ffe9200       0x48 ../lib/libssl.a(ssl_asn1.o)
 *fill*         0x3ffe9248        0x8 
 .rodata        0x3ffe9250       0x90 ../lib/libssl.a(ssl_crypto_misc.o)
                0x3ffe9250                unsupported_str
 .rodata        0x3ffe92e0       0x10 ../lib/libssl.a(ssl_sha1.o)
 .rodata        0x3ffe92f0        0x6 ../lib/libwps.a(wps.o)
 *fill*         0x3ffe92f6        0xa 
 .rodata        0x3ffe9300       0x10 ../lib/libwps.a(wps_common.o)
 .rodata        0x3ffe9310        0xf ../lib/libwps.a(wps_registrar.o)
 *fill*         0x3ffe931f        0x1 
 .rodata        0x3ffe9320        0x7 ../lib/libsmartconfig.a(sc_sniffer.o)
                0x3ffe9320                SC_VERSION
 *fill*         0x3ffe9327        0x1 
 .rodata        0x3ffe9328        0x8 ../lib/libsmartconfig.a(sc_airkiss.o)
                0x3ffe9328                RSSI_MIN
                0x3ffe9329                RSSI_BEAR
                0x3ffe932a                DATA_RSSI_BEAR
                0x3ffe932c                weixin_ip
 .rodata        0x3ffe9330       0x34 ../lib/libwilddog.a(wilddog_store.o)
 .rodata        0x3ffe9364       0x28 ../lib/libwilddog.a(wilddog_conn_coap.o)
 .rodata        0x3ffe938c        0x4 ../lib/libairkiss.a(airlink.o)
 .rodata        0x3ffe9390        0x4 /opt/xtensa-lx106-elf/bin/../lib/gcc/xtensa-lx106-elf/4.8.2/libc.a(impure.o)
                0x3ffe9390                _global_impure_ptr
 *fill*         0x3ffe9394        0xc 
 .rodata        0x3ffe93a0       0xd0 ../lib/libcrypto.a(dh_groups.o)
 .rodata        0x3ffe9470      0x100 ../lib/libcrypto.a(sha256-internal.o)
 *(.rodata.*)
 .rodata.str1.4
                0x3ffe9570        0xc ../lib/libmain.a(app_main.o)
 .rodata.str1.4
                0x3ffe957c        0x4 ../lib/libmain.a(ets_timer.o)
                                  0xc (size before relaxing)
 .rodata.str1.4
                0x3ffe9580       0x1a ../lib/libmain.a(mem_manager.o)
 .rodata.str1.1
                0x3ffe959a      0x55a user/.output/eagle/debug/lib/libuser.a(AtCmd_Drv.o)
                                0x571 (size before relaxing)
 .rodata.tCmdTable
                0x3ffe9af4       0x99 user/.output/eagle/debug/lib/libuser.a(AtCmd_Drv.o)
 .rodata.str1.1
                0x3ffe9b8d      0x1e6 user/.output/eagle/debug/lib/libuser.a(AirKiss_Drv.o)
 *fill*         0x3ffe9d73        0x1 
 .rodata.akconfig
                0x3ffe9d74       0x10 user/.output/eagle/debug/lib/libuser.a(AirKiss_Drv.o)
                0x3ffe9d74                akconfig
 .rodata.str1.1
                0x3ffe9d84       0x42 user/.output/eagle/debug/lib/libuser.a(WildDog_Drv.o)
 .rodata.str1.1
                0x3ffe9dc6       0x37 user/.output/eagle/debug/lib/libuser.a(GlobalFunc.o)
 *fill*         0x3ffe9dfd        0x3 
 .rodata.Sys_GetVersion
                0x3ffe9e00       0x14 user/.output/eagle/debug/lib/libuser.a(GlobalFunc.o)
 .rodata.str1.1
                0x3ffe9e14       0xcf user/.output/eagle/debug/lib/libuser.a(GizCmdTest.o)
 .rodata.str1.1
                0x3ffe9ee3      0x463 user/.output/eagle/debug/lib/libuser.a(WDJson_Drv.o)
                                0x464 (size before relaxing)
 .rodata.__func__$3308
                0x3ffea346       0x1d user/.output/eagle/debug/lib/libuser.a(WDJson_Drv.o)
 .rodata.__func__$3319
                0x3ffea363       0x1a user/.output/eagle/debug/lib/libuser.a(WDJson_Drv.o)
 .rodata.__func__$3291
                0x3ffea37d       0x17 user/.output/eagle/debug/lib/libuser.a(WDJson_Drv.o)
 .rodata.__func__$3234
                0x3ffea394       0x15 user/.output/eagle/debug/lib/libuser.a(WDJson_Drv.o)
 .rodata.__func__$3225
                0x3ffea3a9       0x1a user/.output/eagle/debug/lib/libuser.a(WDJson_Drv.o)
 .rodata.__func__$3243
                0x3ffea3c3       0x16 user/.output/eagle/debug/lib/libuser.a(WDJson_Drv.o)
 .rodata.__func__$3252
                0x3ffea3d9       0x11 user/.output/eagle/debug/lib/libuser.a(WDJson_Drv.o)
 .rodata.__func__$3275
                0x3ffea3ea       0x19 user/.output/eagle/debug/lib/libuser.a(WDJson_Drv.o)
 .rodata.str1.1
                0x3ffea403       0xb2 user/.output/eagle/debug/lib/libuser.a(Serial_Drv.o)
                                 0xb5 (size before relaxing)
 *fill*         0x3ffea4b5        0x3 
 .rodata.str1.4
                0x3ffea4b8       0x66 ../lib/libat.a(at_baseCmd.o)
 *fill*         0x3ffea51e        0x2 
 .rodata.str1.4
                0x3ffea520      0x337 ../lib/libat.a(at_cmd.o)
                                0x33b (size before relaxing)
 *fill*         0x3ffea857        0x1 
 .rodata.str1.4
                0x3ffea858      0x7ed ../lib/libat.a(at_ipCmd.o)
                                0x80d (size before relaxing)
 *fill*         0x3ffeb045        0x3 
 .rodata.str1.4
                0x3ffeb048       0x66 ../lib/libat.a(at_port.o)
                                 0x7a (size before relaxing)
 *fill*         0x3ffeb0ae        0x2 
 .rodata.str1.4
                0x3ffeb0b0      0x400 ../lib/libat.a(at_wifiCmd.o)
                                0x430 (size before relaxing)
 .rodata.str1.4
                0x3ffeb4b0       0x55 ../lib/libat.a(uart.o)
                                 0x59 (size before relaxing)
 *fill*         0x3ffeb505        0x3 
 .rodata.str1.4
                0x3ffeb508        0xd ../lib/libat.a(at_init_para.o)
 *fill*         0x3ffeb515        0x3 
 .rodata.str1.4
                0x3ffeb518        0x4 ../lib/libpp.a(lmac.o)
                                  0xc (size before relaxing)
 .rodata.str1.4
                0x3ffeb51c        0x3 ../lib/libpp.a(pm.o)
                                  0xb (size before relaxing)
 *fill*         0x3ffeb51f        0x1 
 .rodata.str1.4
                0x3ffeb520        0x4 ../lib/libpp.a(pm_for_bcn_only_mode.o)
                                  0xc (size before relaxing)
 .rodata.str1.4
                0x3ffeb524        0x8 ../lib/libpp.a(pp.o)
                                 0x10 (size before relaxing)
 .rodata.str1.4
                0x3ffeb52c        0x4 ../lib/libpp.a(wdev.o)
                                  0xc (size before relaxing)
 .rodata.str1.4
                0x3ffeb530        0x3 ../lib/libnet80211.a(ieee80211_hostap.o)
                                  0x8 (size before relaxing)
 *fill*         0x3ffeb533        0x1 
 .rodata.str1.4
                0x3ffeb534        0x7 ../lib/libnet80211.a(ieee80211_mesh_quick.o)
 .rodata.str1.4
                0x00000000        0x4 ../lib/libnet80211.a(ieee80211_sta.o)
 .rodata.str1.4
                0x00000000        0x4 ../lib/libnet80211.a(ieee80211_action_vendor.o)
 .rodata.str1.4
                0x00000000        0x4 ../lib/libnet80211.a(ieee80211_ie_vendor.o)
 .rodata.str1.4
                0x00000000        0x7 ../lib/liblwip.a(espconn_tcp.o)
                                  0x1 (size before relaxing)
 *fill*         0x3ffeb53b        0x1 
 .rodata.str1.4
                0x3ffeb53c       0x88 ../lib/liblwip.a(mdns.o)
 .rodata.str1.4
                0x3ffeb5c4        0x5 ../lib/libwpa.a(wpa_debug.o)
                                  0xd (size before relaxing)
 *fill*         0x3ffeb5c9        0x3 
 .rodata.str1.4
                0x3ffeb5cc       0x18 ../lib/libssl.a(espconn_ssl.o)
 .rodata.str1.4
                0x3ffeb5e4      0x150 ../lib/libssl.a(ssl_loader.o)
                                0x151 (size before relaxing)
 .rodata.str1.4
                0x3ffeb734      0x13a ../lib/libssl.a(ssl_tls1.o)
 *fill*         0x3ffeb86e        0x2 
 .rodata.str1.4
                0x3ffeb870       0xf4 ../lib/libssl.a(ssl_x509.o)
 .rodata.str1.4
                0x3ffeb964       0x1e ../lib/libssl.a(ssl_crypto_misc.o)
 *fill*         0x3ffeb982        0x2 
 .rodata.str1.4
                0x3ffeb984       0x20 ../lib/libssl.a(ssl_rsa.o)
 .rodata.str1.4
                0x3ffeb9a4      0x156 ../lib/libwps.a(wps.o)
                                0x176 (size before relaxing)
 *fill*         0x3ffebafa        0x2 
 .rodata.str1.4
                0x3ffebafc       0xcd ../lib/libwps.a(wps_common.o)
                                 0xe1 (size before relaxing)
 *fill*         0x3ffebbc9        0x3 
 .rodata.str1.4
                0x3ffebbcc       0x7d ../lib/libwps.a(wps_registrar.o)
                                 0x95 (size before relaxing)
 *fill*         0x3ffebc49        0x3 
 .rodata.str1.4
                0x3ffebc4c       0x45 ../lib/libwps.a(uuid.o)
 *fill*         0x3ffebc91        0x3 
 .rodata.str1.4
                0x3ffebc94        0xd ../lib/libsmartconfig.a(sc_sniffer.o)
 *fill*         0x3ffebca1        0x3 
 .rodata.str1.4
                0x3ffebca4        0xd ../lib/libsmartconfig.a(sc_airkiss.o)
 *fill*         0x3ffebcb1        0x3 
 .rodata.str1.4
                0x3ffebcb4        0xe ../lib/libsmartconfig.a(sc_esptouch.o)
 *fill*         0x3ffebcc2        0x2 
 .rodata.str1.4
                0x3ffebcc4       0x18 ../lib/libwilddog.a(wilddog_api.o)
 .rodata.__func__$2514
                0x3ffebcdc       0x23 ../lib/libwilddog.a(wilddog_api.o)
 *fill*         0x3ffebcff        0x1 
 .rodata.__func__$2506
                0x3ffebd00       0x20 ../lib/libwilddog.a(wilddog_api.o)
 .rodata.__func__$2498
                0x3ffebd20       0x19 ../lib/libwilddog.a(wilddog_api.o)
 *fill*         0x3ffebd39        0x3 
 .rodata.__func__$2489
                0x3ffebd3c       0x1d ../lib/libwilddog.a(wilddog_api.o)
 *fill*         0x3ffebd59        0x3 
 .rodata.__func__$2480
                0x3ffebd5c       0x10 ../lib/libwilddog.a(wilddog_api.o)
 .rodata.__func__$2475
                0x3ffebd6c       0x10 ../lib/libwilddog.a(wilddog_api.o)
 .rodata.__func__$2470
                0x3ffebd7c        0xf ../lib/libwilddog.a(wilddog_api.o)
 *fill*         0x3ffebd8b        0x1 
 .rodata.__func__$2465
                0x3ffebd8c       0x11 ../lib/libwilddog.a(wilddog_api.o)
 *fill*         0x3ffebd9d        0x3 
 .rodata.__func__$2458
                0x3ffebda0       0x10 ../lib/libwilddog.a(wilddog_api.o)
 .rodata.__func__$2452
                0x3ffebdb0       0x12 ../lib/libwilddog.a(wilddog_api.o)
 *fill*         0x3ffebdc2        0x2 
 .rodata.__func__$2446
                0x3ffebdc4       0x17 ../lib/libwilddog.a(wilddog_api.o)
 *fill*         0x3ffebddb        0x1 
 .rodata.__func__$2439
                0x3ffebddc       0x14 ../lib/libwilddog.a(wilddog_api.o)
 .rodata.__func__$2430
                0x3ffebdf0       0x14 ../lib/libwilddog.a(wilddog_api.o)
 .rodata.__func__$2422
                0x3ffebe04        0xd ../lib/libwilddog.a(wilddog_api.o)
 *fill*         0x3ffebe11        0x3 
 .rodata.__func__$2413
                0x3ffebe14       0x11 ../lib/libwilddog.a(wilddog_api.o)
 *fill*         0x3ffebe25        0x3 
 .rodata.__func__$2404
                0x3ffebe28       0x11 ../lib/libwilddog.a(wilddog_api.o)
 *fill*         0x3ffebe39        0x3 
 .rodata.__func__$2396
                0x3ffebe3c        0xf ../lib/libwilddog.a(wilddog_api.o)
 *fill*         0x3ffebe4b        0x1 
 .rodata.__func__$2387
                0x3ffebe4c        0xd ../lib/libwilddog.a(wilddog_api.o)
 *fill*         0x3ffebe59        0x3 
 .rodata.__func__$2377
                0x3ffebe5c       0x10 ../lib/libwilddog.a(wilddog_api.o)
 .rodata.__func__$2372
                0x3ffebe6c       0x14 ../lib/libwilddog.a(wilddog_api.o)
 .rodata.str1.4
                0x00000000        0x1 ../lib/libwilddog.a(wilddog_common.o)
 .rodata.str1.4
                0x3ffebe80      0x11f ../lib/libwilddog.a(wilddog_ct.o)
                                0x137 (size before relaxing)
 *fill*         0x3ffebf9f        0x1 
 .rodata.__func__$2768
                0x3ffebfa0       0x17 ../lib/libwilddog.a(wilddog_ct.o)
 *fill*         0x3ffebfb7        0x1 
 .rodata.__func__$2704
                0x3ffebfb8       0x16 ../lib/libwilddog.a(wilddog_ct.o)
 *fill*         0x3ffebfce        0x2 
 .rodata.__func__$2717
                0x3ffebfd0       0x17 ../lib/libwilddog.a(wilddog_ct.o)
 *fill*         0x3ffebfe7        0x1 
 .rodata.__func__$2732
                0x3ffebfe8       0x14 ../lib/libwilddog.a(wilddog_ct.o)
 .rodata.__func__$2752
                0x3ffebffc       0x13 ../lib/libwilddog.a(wilddog_ct.o)
 *fill*         0x3ffec00f        0x1 
 .rodata.__func__$2806
                0x3ffec010       0x1a ../lib/libwilddog.a(wilddog_ct.o)
 *fill*         0x3ffec02a        0x2 
 .rodata.__func__$2886
                0x3ffec02c       0x17 ../lib/libwilddog.a(wilddog_ct.o)
 *fill*         0x3ffec043        0x1 
 .rodata.__func__$2893
                0x3ffec044       0x14 ../lib/libwilddog.a(wilddog_ct.o)
 .rodata.__func__$2901
                0x3ffec058       0x14 ../lib/libwilddog.a(wilddog_ct.o)
 .rodata.str1.4
                0x3ffec06c       0x40 ../lib/libwilddog.a(wilddog_espressif.o)
 .rodata.str1.4
                0x3ffec0ac       0xa9 ../lib/libwilddog.a(wilddog_node.o)
                                 0xc1 (size before relaxing)
 *fill*         0x3ffec155        0x3 
 .rodata.__func__$2429
                0x3ffec158       0x13 ../lib/libwilddog.a(wilddog_node.o)
 *fill*         0x3ffec16b        0x1 
 .rodata.__func__$2411
                0x3ffec16c       0x1c ../lib/libwilddog.a(wilddog_node.o)
 .rodata.__func__$2383
                0x3ffec188       0x18 ../lib/libwilddog.a(wilddog_node.o)
 .rodata.__func__$2373
                0x3ffec1a0       0x13 ../lib/libwilddog.a(wilddog_node.o)
 *fill*         0x3ffec1b3        0x1 
 .rodata.__func__$2361
                0x3ffec1b4       0x16 ../lib/libwilddog.a(wilddog_node.o)
 *fill*         0x3ffec1ca        0x2 
 .rodata.__func__$2347
                0x3ffec1cc       0x15 ../lib/libwilddog.a(wilddog_node.o)
 *fill*         0x3ffec1e1        0x3 
 .rodata.__func__$2253
                0x3ffec1e4       0x12 ../lib/libwilddog.a(wilddog_node.o)
 .rodata.str1.4
                0x00000000       0x18 ../lib/libwilddog.a(wilddog_store.o)
 *fill*         0x3ffec1f6        0x2 
 .rodata.__func__$2676
                0x3ffec1f8       0x16 ../lib/libwilddog.a(wilddog_store.o)
 *fill*         0x3ffec20e        0x2 
 .rodata.__func__$2658
                0x3ffec210       0x14 ../lib/libwilddog.a(wilddog_store.o)
 .rodata.str1.4
                0x3ffec224       0x96 ../lib/libwilddog.a(wilddog_url_parser.o)
                                 0xae (size before relaxing)
 *fill*         0x3ffec2ba        0x2 
 .rodata.__func__$2457
                0x3ffec2bc       0x19 ../lib/libwilddog.a(wilddog_url_parser.o)
 *fill*         0x3ffec2d5        0x3 
 .rodata.__func__$2468
                0x3ffec2d8       0x15 ../lib/libwilddog.a(wilddog_url_parser.o)
 *fill*         0x3ffec2ed        0x3 
 .rodata.__func__$2397
                0x3ffec2f0       0x16 ../lib/libwilddog.a(wilddog_url_parser.o)
 *fill*         0x3ffec306        0x2 
 .rodata.__func__$2384
                0x3ffec308       0x16 ../lib/libwilddog.a(wilddog_url_parser.o)
 *fill*         0x3ffec31e        0x2 
 .rodata.str1.4
                0x3ffec320       0x21 ../lib/libwilddog.a(wilddog_conn.o)
                                 0x39 (size before relaxing)
 *fill*         0x3ffec341        0x3 
 .rodata.__func__$2706
                0x3ffec344       0x12 ../lib/libwilddog.a(wilddog_conn.o)
 *fill*         0x3ffec356        0x2 
 .rodata.__func__$2720
                0x3ffec358       0x12 ../lib/libwilddog.a(wilddog_conn.o)
 *fill*         0x3ffec36a        0x2 
 .rodata.__func__$2735
                0x3ffec36c       0x13 ../lib/libwilddog.a(wilddog_conn.o)
 *fill*         0x3ffec37f        0x1 
 .rodata.__func__$2749
                0x3ffec380       0x15 ../lib/libwilddog.a(wilddog_conn.o)
 *fill*         0x3ffec395        0x3 
 .rodata.__func__$2765
                0x3ffec398       0x11 ../lib/libwilddog.a(wilddog_conn.o)
 *fill*         0x3ffec3a9        0x3 
 .rodata.__func__$2780
                0x3ffec3ac       0x12 ../lib/libwilddog.a(wilddog_conn.o)
 *fill*         0x3ffec3be        0x2 
 .rodata.__func__$2795
                0x3ffec3c0       0x13 ../lib/libwilddog.a(wilddog_conn.o)
 *fill*         0x3ffec3d3        0x1 
 .rodata.__func__$2809
                0x3ffec3d4       0x17 ../lib/libwilddog.a(wilddog_conn.o)
 *fill*         0x3ffec3eb        0x1 
 .rodata.__func__$2680
                0x3ffec3ec       0x1d ../lib/libwilddog.a(wilddog_conn.o)
 *fill*         0x3ffec409        0x3 
 .rodata.__func__$2825
                0x3ffec40c       0x18 ../lib/libwilddog.a(wilddog_conn.o)
 .rodata.__func__$2839
                0x3ffec424       0x1a ../lib/libwilddog.a(wilddog_conn.o)
 *fill*         0x3ffec43e        0x2 
 .rodata.__func__$2853
                0x3ffec440       0x18 ../lib/libwilddog.a(wilddog_conn.o)
 .rodata.__func__$2867
                0x3ffec458       0x16 ../lib/libwilddog.a(wilddog_conn.o)
 *fill*         0x3ffec46e        0x2 
 .rodata.__func__$2876
                0x3ffec470       0x15 ../lib/libwilddog.a(wilddog_conn.o)
 *fill*         0x3ffec485        0x3 
 .rodata.str1.4
                0x3ffec488       0x53 ../lib/libwilddog.a(wilddog_conn_coap.o)
                                 0x6b (size before relaxing)
 *fill*         0x3ffec4db        0x1 
 .rodata.__func__$2875
                0x3ffec4dc       0x1d ../lib/libwilddog.a(wilddog_conn_coap.o)
 *fill*         0x3ffec4f9        0x3 
 .rodata.__func__$3005
                0x3ffec4fc       0x16 ../lib/libwilddog.a(wilddog_conn_coap.o)
 *fill*         0x3ffec512        0x2 
 .rodata.__func__$3019
                0x3ffec514       0x16 ../lib/libwilddog.a(wilddog_conn_coap.o)
 *fill*         0x3ffec52a        0x2 
 .rodata.str1.4
                0x3ffec52c       0x16 ../lib/libwilddog.a(wilddog_conn_manage.o)
                                 0x42 (size before relaxing)
 *fill*         0x3ffec542        0x2 
 .rodata.__func__$3149
                0x3ffec544       0x18 ../lib/libwilddog.a(wilddog_conn_manage.o)
 .rodata.__func__$3156
                0x3ffec55c       0x17 ../lib/libwilddog.a(wilddog_conn_manage.o)
 *fill*         0x3ffec573        0x1 
 .rodata.__func__$3050
                0x3ffec574       0x19 ../lib/libwilddog.a(wilddog_conn_manage.o)
 *fill*         0x3ffec58d        0x3 
 .rodata.__func__$2897
                0x3ffec590       0x1a ../lib/libwilddog.a(wilddog_conn_manage.o)
 *fill*         0x3ffec5aa        0x2 
 .rodata.__func__$2930
                0x3ffec5ac       0x15 ../lib/libwilddog.a(wilddog_conn_manage.o)
 *fill*         0x3ffec5c1        0x3 
 .rodata.__func__$2892
                0x3ffec5c4       0x11 ../lib/libwilddog.a(wilddog_conn_manage.o)
 *fill*         0x3ffec5d5        0x3 
 .rodata.__func__$3074
                0x3ffec5d8       0x1b ../lib/libwilddog.a(wilddog_conn_manage.o)
 *fill*         0x3ffec5f3        0x1 
 .rodata.__func__$3178
                0x3ffec5f4       0x17 ../lib/libwilddog.a(wilddog_conn_manage.o)
 *fill*         0x3ffec60b        0x1 
 .rodata.__func__$2957
                0x3ffec60c       0x18 ../lib/libwilddog.a(wilddog_conn_manage.o)
 .rodata.__func__$3034
                0x3ffec624       0x19 ../lib/libwilddog.a(wilddog_conn_manage.o)
 *fill*         0x3ffec63d        0x3 
 .rodata.__func__$3005
                0x3ffec640       0x21 ../lib/libwilddog.a(wilddog_conn_manage.o)
 *fill*         0x3ffec661        0x3 
 .rodata.str1.4
                0x3ffec664      0x20b ../lib/libwilddog.a(wilddog_event.o)
                                0x227 (size before relaxing)
 *fill*         0x3ffec86f        0x1 
 .rodata.__func__$2799
                0x3ffec870       0x14 ../lib/libwilddog.a(wilddog_event.o)
 .rodata.__func__$2754
                0x3ffec884       0x18 ../lib/libwilddog.a(wilddog_event.o)
 .rodata.__func__$2777
                0x3ffec89c       0x1a ../lib/libwilddog.a(wilddog_event.o)
 *fill*         0x3ffec8b6        0x2 
 .rodata.__func__$2653
                0x3ffec8b8       0x18 ../lib/libwilddog.a(wilddog_event.o)
 .rodata.__func__$2723
                0x3ffec8d0       0x17 ../lib/libwilddog.a(wilddog_event.o)
 *fill*         0x3ffec8e7        0x1 
 .rodata.__func__$2674
                0x3ffec8e8       0x1b ../lib/libwilddog.a(wilddog_event.o)
 *fill*         0x3ffec903        0x1 
 .rodata.__func__$2703
                0x3ffec904       0x17 ../lib/libwilddog.a(wilddog_event.o)
 *fill*         0x3ffec91b        0x1 
 .rodata.__func__$2687
                0x3ffec91c       0x1c ../lib/libwilddog.a(wilddog_event.o)
 .rodata.str1.4
                0x00000000       0x1c ../lib/libwilddog.a(wilddog_sec_host.o)
 .rodata.str1.4
                0x3ffec938      0x25a ../lib/libwilddog.a(option.o)
                                0x272 (size before relaxing)
 *fill*         0x3ffecb92        0x2 
 .rodata.__func__$2194
                0x3ffecb94       0x10 ../lib/libwilddog.a(option.o)
 .rodata.__func__$2180
                0x3ffecba4       0x13 ../lib/libwilddog.a(option.o)
 *fill*         0x3ffecbb7        0x1 
 .rodata.__func__$2157
                0x3ffecbb8        0xf ../lib/libwilddog.a(option.o)
 *fill*         0x3ffecbc7        0x1 
 .rodata.__func__$2141
                0x3ffecbc8       0x10 ../lib/libwilddog.a(option.o)
 .rodata.__func__$2114
                0x3ffecbd8       0x11 ../lib/libwilddog.a(option.o)
 *fill*         0x3ffecbe9        0x3 
 .rodata.__func__$2094
                0x3ffecbec       0x1a ../lib/libwilddog.a(option.o)
 *fill*         0x3ffecc06        0x2 
 .rodata.__func__$2067
                0x3ffecc08        0xf ../lib/libwilddog.a(option.o)
 *fill*         0x3ffecc17        0x1 
 .rodata.str1.4
                0x3ffecc18      0x1ae ../lib/libwilddog.a(pdu.o)
                                0x1ce (size before relaxing)
 *fill*         0x3ffecdc6        0x2 
 .rodata.__func__$2587
                0x3ffecdc8        0xe ../lib/libwilddog.a(pdu.o)
 *fill*         0x3ffecdd6        0x2 
 .rodata.__func__$2571
                0x3ffecdd8        0xf ../lib/libwilddog.a(pdu.o)
 *fill*         0x3ffecde7        0x1 
 .rodata.__func__$2532
                0x3ffecde8       0x11 ../lib/libwilddog.a(pdu.o)
 *fill*         0x3ffecdf9        0x3 
 .rodata.__func__$2543
                0x3ffecdfc        0xf ../lib/libwilddog.a(pdu.o)
 *fill*         0x3ffece0b        0x1 
 .rodata.__func__$2522
                0x3ffece0c        0xe ../lib/libwilddog.a(pdu.o)
 *fill*         0x3ffece1a        0x2 
 .rodata.__func__$2511
                0x3ffece1c        0xe ../lib/libwilddog.a(pdu.o)
 *fill*         0x3ffece2a        0x2 
 .rodata.__func__$2502
                0x3ffece2c       0x16 ../lib/libwilddog.a(pdu.o)
 *fill*         0x3ffece42        0x2 
 .rodata.__func__$2491
                0x3ffece44       0x10 ../lib/libwilddog.a(pdu.o)
 .rodata.__func__$2467
                0x3ffece54        0xe ../lib/libwilddog.a(pdu.o)
 *fill*         0x3ffece62        0x2 
 .rodata.__func__$2457
                0x3ffece64        0xf ../lib/libwilddog.a(pdu.o)
 *fill*         0x3ffece73        0x1 
 .rodata.str1.4
                0x3ffece74      0x316 ../lib/libwilddog.a(wilddog_cbor.o)
                                0x332 (size before relaxing)
 *fill*         0x3ffed18a        0x2 
 .rodata.__func__$2513
                0x3ffed18c       0x17 ../lib/libwilddog.a(wilddog_cbor.o)
 *fill*         0x3ffed1a3        0x1 
 .rodata.__func__$2501
                0x3ffed1a4       0x1a ../lib/libwilddog.a(wilddog_cbor.o)
 *fill*         0x3ffed1be        0x2 
 .rodata.__func__$2486
                0x3ffed1c0       0x19 ../lib/libwilddog.a(wilddog_cbor.o)
 *fill*         0x3ffed1d9        0x3 
 .rodata.__func__$2478
                0x3ffed1dc       0x1b ../lib/libwilddog.a(wilddog_cbor.o)
 *fill*         0x3ffed1f7        0x1 
 .rodata.__func__$2468
                0x3ffed1f8       0x1a ../lib/libwilddog.a(wilddog_cbor.o)
 *fill*         0x3ffed212        0x2 
 .rodata.__func__$2457
                0x3ffed214       0x18 ../lib/libwilddog.a(wilddog_cbor.o)
 .rodata.__func__$2530
                0x3ffed22c       0x13 ../lib/libwilddog.a(wilddog_cbor.o)
 *fill*         0x3ffed23f        0x1 
 .rodata.__func__$2322
                0x3ffed240       0x16 ../lib/libwilddog.a(wilddog_cbor.o)
 *fill*         0x3ffed256        0x2 
 .rodata.__func__$2342
                0x3ffed258       0x16 ../lib/libwilddog.a(wilddog_cbor.o)
 *fill*         0x3ffed26e        0x2 
 .rodata.__func__$2444
                0x3ffed270       0x1d ../lib/libwilddog.a(wilddog_cbor.o)
 *fill*         0x3ffed28d        0x3 
 .rodata.__func__$2303
                0x3ffed290       0x18 ../lib/libwilddog.a(wilddog_cbor.o)
 .rodata.__func__$2388
                0x3ffed2a8       0x16 ../lib/libwilddog.a(wilddog_cbor.o)
 *fill*         0x3ffed2be        0x2 
 .rodata.__func__$2431
                0x3ffed2c0       0x13 ../lib/libwilddog.a(wilddog_cbor.o)
 *fill*         0x3ffed2d3        0x1 
 .rodata._wilddog_c2n_func_table
                0x3ffed2d4       0x20 ../lib/libwilddog.a(wilddog_cbor.o)
 .rodata.str1.1
                0x3ffed2f4       0x5c ../lib/libairkiss.a(airlink.o)
                                 0x60 (size before relaxing)
 .rodata.str1.4
                0x00000000      0x316 /opt/xtensa-lx106-elf/bin/../lib/gcc/xtensa-lx106-elf/4.8.2/libc.a(impure.o)
                                  0x2 (size before relaxing)
 .rodata.str1.4
                0x3ffed350       0x10 ../lib/libwpa.a(wpabuf.o)
 *(.gnu.linkonce.r.*)
 *(.rodata1)
                0x3ffed360                __XT_EXCEPTION_TABLE__ = ABSOLUTE (.)
 *(.xt_except_table)
 *(.gcc_except_table)
 *(.gnu.linkonce.e.*)
 *(.gnu.version_r)
 *(.eh_frame)
 *crtbegin.o(.ctors)
 *(EXCLUDE_FILE(*crtend.o) .ctors)
 *(SORT(.ctors.*))
 *(.ctors)
 *crtbegin.o(.dtors)
 *(EXCLUDE_FILE(*crtend.o) .dtors)
 *(SORT(.dtors.*))
 *(.dtors)
                0x3ffed360                __XT_EXCEPTION_DESCS__ = ABSOLUTE (.)
 *(.xt_except_desc)
 *(.gnu.linkonce.h.*)
                0x3ffed360                __XT_EXCEPTION_DESCS_END__ = ABSOLUTE (.)
 *(.xt_except_desc_end)
 *(.dynamic)
 *(.gnu.version_d)
                0x3ffed360                . = ALIGN (0x4)
                0x3ffed360                _bss_table_start = ABSOLUTE (.)
                0x3ffed360        0x4 LONG 0x3ffed368 _bss_start
                0x3ffed364        0x4 LONG 0x3fff54d0 _bss_end
                0x3ffed368                _bss_table_end = ABSOLUTE (.)
                0x3ffed368                _rodata_end = ABSOLUTE (.)

.bss            0x3ffed368     0x8168
                0x3ffed368                . = ALIGN (0x8)
                0x3ffed368                _bss_start = ABSOLUTE (.)
 *(.dynsbss)
 *(.sbss)
 *(.sbss.*)
 *(.gnu.linkonce.sb.*)
 *(.scommon)
 *(.sbss2)
 *(.sbss2.*)
 *(.gnu.linkonce.sb2.*)
 *(.dynbss)
 *(.bss)
 .bss           0x3ffed368        0x0 ../lib/libmain.a(debug-vector.o)
 .bss           0x3ffed368        0x0 ../lib/libmain.a(double-vector.o)
 .bss           0x3ffed368        0x0 ../lib/libmain.a(kernel-vector.o)
 *fill*         0x3ffed368        0x8 
 .bss           0x3ffed370      0x1c0 ../lib/libmain.a(nmi-vector.o)
 .bss           0x3ffed530        0x0 ../lib/libmain.a(user-vector.o)
 .bss           0x3ffed530        0x0 ../lib/libmain.a(vector.o)
 .bss           0x3ffed530       0x41 ../lib/libmain.a(app_main.o)
                0x3ffed534                info
                0x3ffed558                lwip_timer_interval
                0x3ffed55c                check_timeouts_timer
                0x3ffed570                user_init_flag
 *fill*         0x3ffed571        0xf 
 .bss           0x3ffed580       0x30 ../lib/libmain.a(ets_timer.o)
                0x3ffed580                dbg_timer_flag
                0x3ffed584                timer_list
                0x3ffed588                debug_timer
                0x3ffed58c                debug_timerfn
 .bss           0x3ffed5b0       0x3c ../lib/libmain.a(mem_manager.o)
 .bss           0x3ffed5ec        0x4 ../lib/libmain.a(spi_flash.o)
                0x3ffed5ec                flash_read
 .bss           0x3ffed5f0      0x242 ../lib/libmain.a(user_interface.o)
                0x3ffed6e7                deep_sleep_flag
                0x3ffed6e8                cpu_overclock
                0x3ffed6ec                event_cb
                0x3ffed6f0                status_led_output_level
                0x3ffed6f4                done_cb
                0x3ffed6f8                rst_if
                0x3ffed714                default_interface
                0x3ffed715                OpmodChgIsOnGoing
                0x3ffed718                promiscuous_cb
                0x3ffed730                event_TaskQueue
 .bss           0x3ffed832        0x0 ../lib/libmain.a(eagle_lib.o)
 *fill*         0x3ffed832        0x2 
 .bss           0x3ffed834        0xc ../lib/libmain.a(eagle_lwip_if.o)
                0x3ffed834                hostname
 .bss           0x3ffed840        0x0 user/.output/eagle/debug/lib/libuser.a(user_main.o)
 .bss           0x3ffed840        0x0 user/.output/eagle/debug/lib/libuser.a(AtCmd_Drv.o)
 .bss           0x3ffed840        0x0 user/.output/eagle/debug/lib/libuser.a(AirKiss_Drv.o)
 .bss           0x3ffed840        0x0 user/.output/eagle/debug/lib/libuser.a(user_tcpclient.o)
 .bss           0x3ffed840        0x0 user/.output/eagle/debug/lib/libuser.a(WildDog_Drv.o)
 .bss           0x3ffed840        0x0 user/.output/eagle/debug/lib/libuser.a(GlobalFunc.o)
 .bss           0x3ffed840        0x0 user/.output/eagle/debug/lib/libuser.a(GizCmdTest.o)
 .bss           0x3ffed840        0x0 user/.output/eagle/debug/lib/libuser.a(WDJson_Drv.o)
 .bss           0x3ffed840        0x0 user/.output/eagle/debug/lib/libuser.a(Serial_Drv.o)
 .bss           0x3ffed840        0x0 user/.output/eagle/debug/lib/libuser.a(SensorInterface.o)
 .bss           0x3ffed840        0x0 user/.output/eagle/debug/lib/libuser.a(WifiInterface.o)
 .bss           0x3ffed840        0x4 ../lib/libat.a(at_baseCmd.o)
                0x3ffed840                custom_info
 .bss           0x3ffed844        0x0 ../lib/libat.a(at_cmd.o)
 .bss           0x3ffed844       0x53 ../lib/libat.a(at_ipCmd.o)
                0x3ffed844                at_customLinkMax
                0x3ffed848                pLink
                0x3ffed84d                IPMODE
                0x3ffed84f                wait_for_buffer
                0x3ffed850                at_tranLen
                0x3ffed854                at_delayCheck
                0x3ffed868                sendingID
                0x3ffed86b                at_ssl_cnt
                0x3ffed86c                at_sendLen
                0x3ffed87c                send_mode
                0x3ffed880                at_transmit_check_ip_timer
                0x3ffed894                at_transmit_timer_on
                0x3ffed895                need_save_flag
                0x3ffed896                at_ssl_flag
 .bss           0x3ffed897        0x0 ../lib/libat.a(at_nv_data.o)
 *fill*         0x3ffed897        0x9 
 .bss           0x3ffed8a0      0xebe ../lib/libat.a(at_port.o)
                0x3ffed8a0                at_custom_func
                0x3ffed8b0                at_dataLine2
                0x3ffed8b4                at_dataLine2_len
                0x3ffed8b8                at_state
                0x3ffed8bc                last_byte_time
                0x3ffed8c0                pDataLine
                0x3ffed8c4                custom_at_cmd_ptr
                0x3ffed8c8                custom_at_cmd_num
                0x3ffed9e0                at_dataLine
                0x3ffee550                at_recvTaskQueue
                0x3ffee750                at_procTaskQueue
 *fill*         0x3ffee75e        0x2 
 .bss           0x3ffee760       0x45 ../lib/libat.a(at_wifiCmd.o)
                0x3ffee760                read_from_flash_flag
                0x3ffee761                at_wifiMode
                0x3ffee764                ap_sort_flag
                0x3ffee768                at_japDelayChack
                0x3ffee77c                smart_scanning
 *fill*         0x3ffee7a5        0x3 
 .bss           0x3ffee7a8       0x18 ../lib/libat.a(uart.o)
                0x3ffee7ac                fake_uart_flag
                0x3ffee7b4                uart_rx_soft_buf_state
 .bss           0x3ffee7c0        0x0 ../lib/libat.a(at_init_para.o)
 .bss           0x3ffee7c0        0x0 /opt/xtensa-lx106-elf/bin/../lib/gcc/xtensa-lx106-elf/4.8.2/libc.a(islower.o)
 .bss           0x3ffee7c0        0x0 /opt/xtensa-lx106-elf/bin/../lib/gcc/xtensa-lx106-elf/4.8.2/libc.a(memcmp.o)
 .bss           0x3ffee7c0        0x0 /opt/xtensa-lx106-elf/bin/../lib/gcc/xtensa-lx106-elf/4.8.2/libc.a(memcpy.o)
 .bss           0x3ffee7c0        0x0 /opt/xtensa-lx106-elf/bin/../lib/gcc/xtensa-lx106-elf/4.8.2/libc.a(memset.o)
 .bss           0x3ffee7c0        0x0 /opt/xtensa-lx106-elf/bin/../lib/gcc/xtensa-lx106-elf/4.8.2/libc.a(ctype_.o)
 .bss           0x3ffee7c0        0x0 ../lib/libgcc.a(_modsi3.o)
 .bss           0x3ffee7c0        0x0 /opt/xtensa-lx106-elf/bin/../lib/gcc/xtensa-lx106-elf/4.8.2/libhal.a(int_asm--set_intclear.o)
 .bss           0x3ffee7c0        0x4 ../lib/libphy.a(phy.o)
 .bss           0x3ffee7c4        0x2 ../lib/libphy.a(phy_chip_v6_ana.o)
                0x3ffee7c4                tout_dis_txpwr_track
                0x3ffee7c5                sleep_mode_flag
 *fill*         0x3ffee7c6        0x2 
 .bss           0x3ffee7c8      0x15b ../lib/libphy.a(phy_chip_v6.o)
                0x3ffee7c8                g_phyFuns
                0x3ffee7cc                rxiq_compute_num
                0x3ffee7d0                rx_table_renew_en
                0x3ffee7d4                check_result
                0x3ffee7d8                chip6_sleep_params
                0x3ffee86c                chip6_phy_init_ctrl
                0x3ffee8e0                phy_freq_offset
                0x3ffee8e2                do_pwctrl_flag
                0x3ffee8e3                txbk_dpdby_flag
                0x3ffee8e5                sw_scan_mode
                0x3ffee8e6                rxmax_ext_level
                0x3ffee8e8                phy_rx_gain_dc_table
                0x3ffee8fc                periodic_cal_dc_num
                0x3ffee900                periodic_cal_flag
                0x3ffee901                bbpll_cal_flag
                0x3ffee902                phy_in_most_power
                0x3ffee903                init_rf_no_cal
                0x3ffee904                test_print_time
                0x3ffee908                phy_rx_gain_dc_flag
                0x3ffee909                phy_in_vdd33_offset
                0x3ffee90a                phy_set_most_tpw_disbg
                0x3ffee90b                phy_set_most_tpw_index
                0x3ffee90c                adc_rand_noise
                0x3ffee910                dpd_bypass_original
                0x3ffee912                phy_txpwr_diff_flash
                0x3ffee918                noise_array
 *fill*         0x3ffee923        0x1 
 .bss           0x3ffee924        0x9 ../lib/libphy.a(phy_chip_v6_cal.o)
                0x3ffee924                phy_tx_power_out
                0x3ffee926                phy_tx_pwr_error
                0x3ffee928                tx_pwctrl_track_num
                0x3ffee929                rxiq_cover_fail_num
                0x3ffee92a                phy_meas_freq_offset
                0x3ffee92c                tx_pwctrl_pk_num
 .bss           0x3ffee92d        0x0 ../lib/libphy.a(phy_chip_v6_unused.o)
 *fill*         0x3ffee92d        0x3 
 .bss           0x3ffee930        0x7 ../lib/libphy.a(phy_sleep.o)
                0x3ffee930                periodic_cal_sat
                0x3ffee932                lslp_mem_opt_8266
                0x3ffee934                software_slp_reject
                0x3ffee935                SDIO_slp_reject
                0x3ffee936                hardware_reject
 *fill*         0x3ffee937        0x9 
 .bss           0x3ffee940       0x40 ../lib/libpp.a(if_hwctrl.o)
                0x3ffee940                interface_mask
                0x3ffee960                if_ctrl
 .bss           0x3ffee980      0x150 ../lib/libpp.a(lmac.o)
                0x3ffee984                lmacConfMib
                0x3ffee9a8                our_tx_eb
 .bss           0x3ffeead0      0x11a ../lib/libpp.a(pm.o)
                0x3ffeead0                pmc
                0x3ffeebb0                flash_tmp
 *fill*         0x3ffeebea        0x2 
 .bss           0x3ffeebec       0x34 ../lib/libpp.a(pm_for_bcn_only_mode.o)
 .bss           0x3ffeec20      0x322 ../lib/libpp.a(pp.o)
                0x3ffeec38                pend_flag_noise_check
                0x3ffeec40                pend_flag_periodic_cal
                0x3ffeec58                idle_timer_reopen_flag
                0x3ffeec5a                dbg_stop_sw_wdt
                0x3ffeec5b                dbg_stop_hw_wdt
                0x3ffeec5d                total_buffed_eb_num
                0x3ffeec60                HighestFreqOffsetInOneChk
                0x3ffeec62                LowestFreqOffsetInOneChk
                0x3ffeec64                DefFreqCalTimer
                0x3ffeec78                PktNumInOneChk
                0x3ffeee00                buffed_eb_arr
 *fill*         0x3ffeef42        0xe 
 .bss           0x3ffeef50      0x100 ../lib/libpp.a(rate_control.o)
 .bss           0x3ffef050      0x46c ../lib/libpp.a(trc.o)
 *fill*         0x3ffef4bc        0x4 
 .bss           0x3ffef4c0     0x2f88 ../lib/libpp.a(wdev.o)
                0x3ffef4c0                wDevCtrl
                0x3ffef668                WdevTimOffSet
 *fill*         0x3fff2448        0x8 
 .bss           0x3fff2450      0xaa4 ../lib/libpp.a(esf_buf.o)
 .bss           0x3fff2ef4      0x67c ../lib/libnet80211.a(ieee80211.o)
                0x3fff2ef4                g_ic
 .bss           0x3fff3570        0x0 ../lib/libnet80211.a(ieee80211_crypto.o)
 .bss           0x3fff3570        0x0 ../lib/libnet80211.a(ieee80211_ets.o)
 .bss           0x3fff3570       0x56 ../lib/libnet80211.a(ieee80211_hostap.o)
                0x3fff3570                BcnEb_update
                0x3fff357d                BcnWithMcastSendStart
                0x3fff357e                BcnWithMcastSendCnt
                0x3fff3598                PendFreeBcnEb
                0x3fff359c                ApFreqCalTimer
                0x3fff35b0                APRecvBcnStartTick
 .bss           0x3fff35c6        0x0 ../lib/libnet80211.a(ieee80211_ht.o)
 .bss           0x3fff35c6        0x0 ../lib/libnet80211.a(ieee80211_input.o)
 .bss           0x3fff35c6        0x0 ../lib/libnet80211.a(ieee80211_mesh_quick.o)
 .bss           0x3fff35c6        0x0 ../lib/libnet80211.a(ieee80211_output.o)
 .bss           0x3fff35c6        0x0 ../lib/libnet80211.a(ieee80211_phy.o)
 .bss           0x3fff35c6        0x0 ../lib/libnet80211.a(ieee80211_power.o)
 .bss           0x3fff35c6        0x0 ../lib/libnet80211.a(ieee80211_proto.o)
 .bss           0x3fff35c6        0x0 ../lib/libnet80211.a(ieee80211_rfid.o)
 *fill*         0x3fff35c6        0x2 
 .bss           0x3fff35c8       0xc8 ../lib/libnet80211.a(ieee80211_scan.o)
                0x3fff35c8                gScanStruct
                0x3fff3674                connect_scan_flag
                0x3fff3675                FreqCalCntForScan
                0x3fff3676                TestStaFreqCalValInput
                0x3fff3678                auth_type
                0x3fff367a                scannum
 .bss           0x3fff3690       0x10 ../lib/libnet80211.a(ieee80211_sta.o)
 .bss           0x3fff36a0       0x3c ../lib/libnet80211.a(wl_chm.o)
 *fill*         0x3fff36dc        0x4 
 .bss           0x3fff36e0      0x37e ../lib/libnet80211.a(wl_cnx.o)
                0x3fff3a40                sta_con_timer
                0x3fff3a54                backup_ni_connect_status
                0x3fff3a58                g_cnx_probe_rc_list_cb
                0x3fff3a5c                reconnect_flag
                0x3fff3a5d                no_ap_found_index
 .bss           0x3fff3a5e        0x0 ../lib/libnet80211.a(ieee80211_action.o)
 *fill*         0x3fff3a5e        0x2 
 .bss           0x3fff3a60       0x10 ../lib/libnet80211.a(ieee80211_action_vendor.o)
 .bss           0x3fff3a70        0x0 ../lib/libnet80211.a(ieee80211_crypto_ccmp.o)
 .bss           0x3fff3a70        0x0 ../lib/libnet80211.a(ieee80211_ie_vendor.o)
 .bss           0x3fff3a70       0x38 ../lib/liblwip.a(dhcp.o)
                0x3fff3a70                dhcp_rx_options_given
                0x3fff3a80                dhcp_rx_options_val
 .bss           0x3fff3aa8       0x24 ../lib/liblwip.a(dhcpserver.o)
 *fill*         0x3fff3acc        0x4 
 .bss           0x3fff3ad0      0x480 ../lib/liblwip.a(dns.o)
 .bss           0x3fff3f50        0x0 ../lib/liblwip.a(espconn_mdns.o)
 .bss           0x3fff3f50      0x104 ../lib/liblwip.a(espconn.o)
                0x3fff3f50                plink_active
                0x3fff3f54                pserver_list
                0x3fff3f60                premot
                0x3fff4020                pktinfo
 *fill*         0x3fff4054        0xc 
 .bss           0x3fff4060       0x78 ../lib/liblwip.a(espconn_tcp.o)
                0x3fff4060                espconn_TaskQueue
 .bss           0x3fff40d8        0x0 ../lib/liblwip.a(espconn_udp.o)
 *fill*         0x3fff40d8        0x8 
 .bss           0x3fff40e0      0x100 ../lib/liblwip.a(etharp.o)
                0x3fff40e4                ethzero
 .bss           0x3fff41e0        0xc ../lib/liblwip.a(igmp.o)
 .bss           0x3fff41ec        0x0 ../lib/liblwip.a(inet_chksum.o)
 .bss           0x3fff41ec        0x0 ../lib/liblwip.a(init.o)
 *fill*         0x3fff41ec        0x4 
 .bss           0x3fff41f0       0x10 ../lib/liblwip.a(ip_addr.o)
 .bss           0x3fff4200       0x12 ../lib/liblwip.a(ip.o)
                0x3fff4200                current_iphdr_dest
                0x3fff4204                current_iphdr_src
                0x3fff4208                current_netif
                0x3fff420c                current_header
 *fill*         0x3fff4212        0xe 
 .bss           0x3fff4220      0x421 ../lib/liblwip.a(mdns.o)
                0x3fff4224                PUCK_SERVICE
                0x3fff422c                PUCK_PORT
                0x3fff423c                mdns_timer
 .bss           0x3fff4641        0x0 ../lib/liblwip.a(memp.o)
 *fill*         0x3fff4641        0x3 
 .bss           0x3fff4644        0x9 ../lib/liblwip.a(netif.o)
                0x3fff4644                netif_list
                0x3fff4648                netif_default
 .bss           0x3fff464d        0x0 ../lib/liblwip.a(pbuf.o)
 *fill*         0x3fff464d        0x3 
 .bss           0x3fff4650        0xa ../lib/liblwip.a(ping.o)
 *fill*         0x3fff465a        0x2 
 .bss           0x3fff465c        0x4 ../lib/liblwip.a(raw.o)
 .bss           0x3fff4660       0x34 ../lib/liblwip.a(tcp_in.o)
                0x3fff4690                tcp_input_pcb
 .bss           0x3fff4694       0x1c ../lib/liblwip.a(tcp.o)
                0x3fff4698                tcp_active_pcbs
                0x3fff469c                tcp_tmp_pcb
                0x3fff46a0                tcp_tw_pcbs
                0x3fff46a4                tcp_bound_pcbs
                0x3fff46a8                tcp_listen_pcbs
                0x3fff46ac                tcp_ticks
 .bss           0x3fff46b0        0x0 ../lib/liblwip.a(tcp_out.o)
 .bss           0x3fff46b0        0xc ../lib/liblwip.a(timers.o)
 .bss           0x3fff46bc        0x4 ../lib/liblwip.a(udp.o)
                0x3fff46bc                udp_pcbs
 .bss           0x3fff46c0        0x0 ../lib/liblwip.a(icmp.o)
 .bss           0x3fff46c0        0x0 ../lib/libwpa.a(ap_config.o)
 .bss           0x3fff46c0        0x0 ../lib/libwpa.a(common.o)
 .bss           0x3fff46c0        0x0 ../lib/libwpa.a(os_xtensa.o)
 .bss           0x3fff46c0        0x0 ../lib/libwpa.a(wpa_auth.o)
 .bss           0x3fff46c0        0x0 ../lib/libwpa.a(wpa_auth_ie.o)
 .bss           0x3fff46c0      0x26a ../lib/libwpa.a(wpa.o)
 .bss           0x3fff492a        0x0 ../lib/libwpa.a(wpa_common.o)
 .bss           0x3fff492a        0x0 ../lib/libwpa.a(wpa_debug.o)
 .bss           0x3fff492a        0x0 ../lib/libwpa.a(wpa_ie.o)
 .bss           0x3fff492a        0x0 ../lib/libwpa.a(wpa_main.o)
 .bss           0x3fff492a        0x0 ../lib/libwpa.a(wpas_glue.o)
 .bss           0x3fff492a        0x0 ../lib/libcrypto.a(aes-wrap.o)
 .bss           0x3fff492a        0x0 ../lib/libcrypto.a(aes-internal-enc.o)
 .bss           0x3fff492a        0x0 ../lib/libcrypto.a(aes-internal.o)
 *fill*         0x3fff492a        0x2 
 .bss           0x3fff492c       0x10 ../lib/libssl.a(espconn_secure.o)
                0x3fff492c                def_certificate
                0x3fff4930                def_certificate_len
                0x3fff4934                def_private_key
                0x3fff4938                def_private_key_len
 *fill*         0x3fff493c        0x4 
 .bss           0x3fff4940       0x88 ../lib/libssl.a(espconn_ssl.o)
                0x3fff4940                pfile_param
                0x3fff4948                plink_server
 .bss           0x3fff49c8        0x0 ../lib/libssl.a(ssl_loader.o)
 .bss           0x3fff49c8        0x0 ../lib/libssl.a(ssl_md5.o)
 .bss           0x3fff49c8        0x0 ../lib/libssl.a(ssl_tls1_clnt.o)
 .bss           0x3fff49c8        0x4 ../lib/libssl.a(ssl_tls1.o)
 .bss           0x3fff49cc        0x0 ../lib/libssl.a(ssl_tls1_svr.o)
 .bss           0x3fff49cc        0x0 ../lib/libssl.a(ssl_x509.o)
 .bss           0x3fff49cc        0x0 ../lib/libssl.a(sha256.o)
 .bss           0x3fff49cc        0x0 ../lib/libssl.a(sha384.o)
 .bss           0x3fff49cc        0x0 ../lib/libssl.a(sha512.o)
 .bss           0x3fff49cc        0x0 ../lib/libssl.a(ssl_aes.o)
 .bss           0x3fff49cc        0x0 ../lib/libssl.a(ssl_asn1.o)
 .bss           0x3fff49cc        0x0 ../lib/libssl.a(ssl_bigint.o)
 .bss           0x3fff49cc        0x8 ../lib/libssl.a(ssl_crypto_misc.o)
                0x3fff49cc                hex_finish
                0x3fff49d0                hex_index
 .bss           0x3fff49d4        0x0 ../lib/libssl.a(ssl_hmac.o)
 .bss           0x3fff49d4        0x0 ../lib/libssl.a(ssl_os_port.o)
 .bss           0x3fff49d4        0x0 ../lib/libssl.a(ssl_rc4.o)
 .bss           0x3fff49d4        0x0 ../lib/libssl.a(ssl_rsa.o)
 .bss           0x3fff49d4        0x0 ../lib/libssl.a(ssl_sha1.o)
 .bss           0x3fff49d4        0x4 ../lib/libwps.a(wps.o)
 .bss           0x3fff49d8        0x0 ../lib/libwps.a(wps_common.o)
 .bss           0x3fff49d8        0x0 ../lib/libwps.a(wps_dev_attr.o)
 .bss           0x3fff49d8        0x0 ../lib/libwps.a(wps_enrollee.o)
 .bss           0x3fff49d8        0x0 ../lib/libwps.a(wps_registrar.o)
 .bss           0x3fff49d8        0x0 ../lib/libwps.a(wps_validate.o)
 .bss           0x3fff49d8        0x0 ../lib/libwps.a(eap_common.o)
 .bss           0x3fff49d8        0x0 ../lib/libwps.a(uuid.o)
 .bss           0x3fff49d8        0x0 ../lib/libwps.a(wps_attr_build.o)
 .bss           0x3fff49d8        0x0 ../lib/libwps.a(wps_attr_parse.o)
 .bss           0x3fff49d8        0x0 ../lib/libwps.a(wps_attr_process.o)
 .bss           0x3fff49d8       0x30 ../lib/libsmartconfig.a(sc_sniffer.o)
                0x3fff49d8                pAPListHead
                0x3fff49dc                pAPListTral
                0x3fff49e0                smartconfig_cb
                0x3fff49e4                SnifGlob
                0x3fff49f4                channel_timer
 .bss           0x3fff4a08       0xb8 ../lib/libsmartconfig.a(sc_airkiss.o)
                0x3fff4a08                pAKGuideGlob
                0x3fff4a0c                pAkTrans
                0x3fff4a10                pAkDiret
                0x3fff4a14                KissRes_ht20_timer
                0x3fff4a90                pKissConn
                0x3fff4aac                weixin_timer
 .bss           0x3fff4ac0       0xd4 ../lib/libsmartconfig.a(sc_esptouch.o)
                0x3fff4ac0                pETGuideGlob
                0x3fff4ac4                pCHListHead
                0x3fff4ac8                pCHListTral
                0x3fff4acc                pTouchGlob
                0x3fff4ad0                TouchRestart_ht20_timer
                0x3fff4b4c                TouchRestart_ht40_timer
                0x3fff4b60                pTouchConn
                0x3fff4b7c                TouchUdpTimer
 .bss           0x3fff4b94        0x0 ../lib/libwilddog.a(wilddog_api.o)
 .bss           0x3fff4b94        0x0 ../lib/libwilddog.a(wilddog_common.o)
 .bss           0x3fff4b94        0x0 ../lib/libwilddog.a(wilddog_ct.o)
 .bss           0x3fff4b94        0x0 ../lib/libwilddog.a(wilddog_espressif.o)
 .bss           0x3fff4b94        0x0 ../lib/libwilddog.a(wilddog_node.o)
 .bss           0x3fff4b94        0x0 ../lib/libwilddog.a(wilddog_store.o)
 .bss           0x3fff4b94        0x0 ../lib/libwilddog.a(wilddog_url_parser.o)
 .bss           0x3fff4b94        0x0 ../lib/libwilddog.a(wilddog_conn.o)
 .bss           0x3fff4b94        0x0 ../lib/libwilddog.a(wilddog_conn_coap.o)
 .bss           0x3fff4b94        0x0 ../lib/libwilddog.a(wilddog_conn_manage.o)
 .bss           0x3fff4b94        0x0 ../lib/libwilddog.a(wilddog_event.o)
 .bss           0x3fff4b94        0x0 ../lib/libwilddog.a(wilddog_nosec.o)
 .bss           0x3fff4b94        0x0 ../lib/libwilddog.a(wilddog_sec_host.o)
 .bss           0x3fff4b94        0x0 ../lib/libwilddog.a(option.o)
 .bss           0x3fff4b94        0x0 ../lib/libwilddog.a(pdu.o)
 .bss           0x3fff4b94        0x0 ../lib/libwilddog.a(wilddog_cbor.o)
 .bss           0x3fff4b94        0x0 ../lib/libairkiss.a(airlink.o)
 .bss           0x3fff4b94        0x0 /opt/xtensa-lx106-elf/bin/../lib/gcc/xtensa-lx106-elf/4.8.2/libc.a(atoi.o)
 .bss           0x3fff4b94        0x0 /opt/xtensa-lx106-elf/bin/../lib/gcc/xtensa-lx106-elf/4.8.2/libc.a(rand.o)
 .bss           0x3fff4b94        0x0 /opt/xtensa-lx106-elf/bin/../lib/gcc/xtensa-lx106-elf/4.8.2/libc.a(strchr.o)
 .bss           0x3fff4b94        0x0 /opt/xtensa-lx106-elf/bin/../lib/gcc/xtensa-lx106-elf/4.8.2/libc.a(strtol.o)
 .bss           0x3fff4b94        0x0 /opt/xtensa-lx106-elf/bin/../lib/gcc/xtensa-lx106-elf/4.8.2/libc.a(impure.o)
 .bss           0x3fff4b94        0x0 ../lib/libgcc.a(_ashrdi3.o)
 .bss           0x3fff4b94        0x0 ../lib/libgcc.a(_mulsf3.o)
 .bss           0x3fff4b94        0x0 ../lib/libgcc.a(_divsf3.o)
 .bss           0x3fff4b94        0x0 ../lib/libgcc.a(_fixsfsi.o)
 .bss           0x3fff4b94        0x0 ../lib/libgcc.a(_cmpdf2.o)
 *fill*         0x3fff4b94        0x4 
 .bss           0x3fff4b98        0x8 ../lib/libnet80211.a(ieee80211_crypto_tkip.o)
 .bss           0x3fff4ba0        0x0 ../lib/libnet80211.a(ieee80211_crypto_wep.o)
 .bss           0x3fff4ba0        0x0 ../lib/libwpa.a(wpabuf.o)
 .bss           0x3fff4ba0        0x0 ../lib/libcrypto.a(aes-cbc.o)
 .bss           0x3fff4ba0        0x0 ../lib/libcrypto.a(aes-internal-dec.o)
 .bss           0x3fff4ba0        0x0 ../lib/libcrypto.a(dh_group5.o)
 .bss           0x3fff4ba0        0x0 ../lib/libcrypto.a(dh_groups.o)
 .bss           0x3fff4ba0        0x0 ../lib/libcrypto.a(sha256.o)
 .bss           0x3fff4ba0        0x0 ../lib/libcrypto.a(sha256-internal.o)
 .bss           0x3fff4ba0        0x0 ../lib/libcrypto.a(crypto_internal-modexp.o)
 .bss           0x3fff4ba0        0x0 ../lib/libcrypto.a(bignum.o)
 *(.bss.*)
 .bss.serial$2728
                0x3fff4ba0        0x1 user/.output/eagle/debug/lib/libuser.a(AtCmd_Drv.o)
 *fill*         0x3fff4ba1        0x3 
 .bss.isRxTimeSetReq
                0x3fff4ba4        0x4 user/.output/eagle/debug/lib/libuser.a(AtCmd_Drv.o)
 .bss.isRxTemperatureData
                0x3fff4ba8        0x4 user/.output/eagle/debug/lib/libuser.a(AtCmd_Drv.o)
 .bss.tRxSensorStatus
                0x3fff4bac       0x1f user/.output/eagle/debug/lib/libuser.a(AtCmd_Drv.o)
 .bss.tDeviceStatus
                0x3fff4bcb       0x1f user/.output/eagle/debug/lib/libuser.a(AtCmd_Drv.o)
 *fill*         0x3fff4bea        0x2 
 .bss.isRxRestartWifiResp
                0x3fff4bec        0x4 user/.output/eagle/debug/lib/libuser.a(AtCmd_Drv.o)
 .bss.isRxCfgModeReq
                0x3fff4bf0        0x4 user/.output/eagle/debug/lib/libuser.a(AtCmd_Drv.o)
 .bss.tHeartTickReqTimer
                0x3fff4bf4       0x14 user/.output/eagle/debug/lib/libuser.a(AtCmd_Drv.o)
 .bss.isGetDeviceInfoResp
                0x3fff4c08        0x4 user/.output/eagle/debug/lib/libuser.a(AtCmd_Drv.o)
 .bss.tDeviceInfoReqManagerTimer
                0x3fff4c0c       0x14 user/.output/eagle/debug/lib/libuser.a(AtCmd_Drv.o)
 .bss.udp_sent_cnt
                0x3fff4c20        0x1 user/.output/eagle/debug/lib/libuser.a(AirKiss_Drv.o)
                0x3fff4c20                udp_sent_cnt
 *fill*         0x3fff4c21        0x3 
 .bss.ssdp_time_serv
                0x3fff4c24       0x14 user/.output/eagle/debug/lib/libuser.a(AirKiss_Drv.o)
 .bss.pssdpudpconn
                0x3fff4c38       0x1c user/.output/eagle/debug/lib/libuser.a(AirKiss_Drv.o)
 .bss.ssdp_udp  0x3fff4c54       0x10 user/.output/eagle/debug/lib/libuser.a(AirKiss_Drv.o)
 .bss.AirKissIsOn
                0x3fff4c64        0x1 user/.output/eagle/debug/lib/libuser.a(AirKiss_Drv.o)
 *fill*         0x3fff4c65        0x1 
 .bss.StaConnCount
                0x3fff4c66        0x2 user/.output/eagle/debug/lib/libuser.a(AirKiss_Drv.o)
 .bss.StaIsConnTimer
                0x3fff4c68       0x14 user/.output/eagle/debug/lib/libuser.a(AirKiss_Drv.o)
 .bss.user_tcp  0x3fff4c7c       0x20 user/.output/eagle/debug/lib/libuser.a(user_tcpclient.o)
 .bss.user_tcp_conn
                0x3fff4c9c       0x1c user/.output/eagle/debug/lib/libuser.a(user_tcpclient.o)
 .bss.test_timer
                0x3fff4cb8       0x14 user/.output/eagle/debug/lib/libuser.a(user_tcpclient.o)
 .bss.dns_flag  0x3fff4ccc        0x1 user/.output/eagle/debug/lib/libuser.a(WildDog_Drv.o)
                0x3fff4ccc                dns_flag
 *fill*         0x3fff4ccd        0x1 
 .bss.last_status$2671
                0x3fff4cce        0x2 user/.output/eagle/debug/lib/libuser.a(GizCmdTest.o)
 .bss.tTimeSetReqTimer
                0x3fff4cd0       0x14 user/.output/eagle/debug/lib/libuser.a(GizCmdTest.o)
 .bss.tReadDevCurStatusReqTimer
                0x3fff4ce4       0x14 user/.output/eagle/debug/lib/libuser.a(GizCmdTest.o)
 .bss.tWifiTimingToCheckStatusTimer
                0x3fff4cf8       0x14 user/.output/eagle/debug/lib/libuser.a(GizCmdTest.o)
 .bss.tempSync$3288
                0x3fff4d0c       0x40 user/.output/eagle/debug/lib/libuser.a(WDJson_Drv.o)
 .bss.count$3251
                0x3fff4d4c        0x1 user/.output/eagle/debug/lib/libuser.a(WDJson_Drv.o)
 *fill*         0x3fff4d4d        0x3 
 .bss.tempSync$3272
                0x3fff4d50       0x40 user/.output/eagle/debug/lib/libuser.a(WDJson_Drv.o)
 .bss.tPushTimer
                0x3fff4d90       0x14 user/.output/eagle/debug/lib/libuser.a(WDJson_Drv.o)
 .bss.tTemperaturePushToCloudTimer
                0x3fff4da4       0x14 user/.output/eagle/debug/lib/libuser.a(WDJson_Drv.o)
 .bss.tFatherNodeSync
                0x3fff4db8       0x40 user/.output/eagle/debug/lib/libuser.a(WDJson_Drv.o)
 .bss.recentTime$2375
                0x3fff4df8        0x4 ../lib/libwilddog.a(wilddog_common.o)
 .bss.l_wilddog_currTime
                0x3fff4dfc        0x4 ../lib/libwilddog.a(wilddog_common.o)
 .bss.l_isStarted
                0x3fff4e00        0x1 ../lib/libwilddog.a(wilddog_ct.o)
 *fill*         0x3fff4e01        0x3 
 .bss.l_wilddog_containTable
                0x3fff4e04        0x8 ../lib/libwilddog.a(wilddog_ct.o)
 .bss.address   0x3fff4e0c        0x4 ../lib/libwilddog.a(wilddog_espressif.o)
 .bss.socket    0x3fff4e10       0x1c ../lib/libwilddog.a(wilddog_espressif.o)
 .bss.l_recvData
                0x3fff4e2c      0x501 ../lib/libwilddog.a(wilddog_conn_coap.o)
 *fill*         0x3fff532d        0x3 
 .bss._wilddog_coap_findRespondNode
                0x3fff5330        0x4 ../lib/libwilddog.a(wilddog_conn_coap.o)
                0x3fff5330                _wilddog_coap_findRespondNode
 .bss.p_l_cmControl
                0x3fff5334        0x4 ../lib/libwilddog.a(wilddog_conn_manage.o)
                0x3fff5334                p_l_cmControl
 .bss.d_user_node_num
                0x3fff5338        0x2 ../lib/libwilddog.a(wilddog_conn_manage.o)
 *fill*         0x3fff533a        0x2 
 .bss.l_fd      0x3fff533c        0x4 ../lib/libwilddog.a(wilddog_nosec.o)
 .bss.l_addr_in
                0x3fff5340       0x14 ../lib/libwilddog.a(wilddog_nosec.o)
 .bss.count$2250
                0x3fff5354        0x4 ../lib/libwilddog.a(wilddog_sec_host.o)
 *(.gnu.linkonce.b.*)
 *(COMMON)
 COMMON         0x3fff5358      0x132 user/.output/eagle/debug/lib/libuser.a(AirKiss_Drv.o)
                0x3fff5358                DefaultStationConfig
                0x3fff53bf                lan_buf
                0x3fff5488                lan_buf_len
 *fill*         0x3fff548a        0x2 
 COMMON         0x3fff548c        0x4 user/.output/eagle/debug/lib/libuser.a(user_tcpclient.o)
                0x3fff548c                tcp_server_ip
 COMMON         0x3fff5490       0x3c user/.output/eagle/debug/lib/libuser.a(WildDog_Drv.o)
                0x3fff5490                client_timer
                0x3fff54a4                test_timer2
                0x3fff54b8                test_timer1
 COMMON         0x3fff54cc        0x4 ../lib/libwilddog.a(wilddog_espressif.o)
                0x3fff54cc                head
                0x3fff54d0                . = ALIGN (0x8)
                0x3fff54d0                _bss_end = ABSOLUTE (.)
                0x3fff54d0                _heap_start = ABSOLUTE (.)

.text           0x40100000     0x75db
                0x40100000                _stext = .
                0x40100000                _text_start = ABSOLUTE (.)
 *(.UserEnter.text)
 .UserEnter.text
                0x40100000        0xd ../lib/libmain.a(vector.o)
                                 0x14 (size before relaxing)
                0x40100004                call_user_start
                0x40100010                . = ALIGN (0x10)
 *fill*         0x4010000d        0x3 
 *(.DebugExceptionVector.text)
 .DebugExceptionVector.text
                0x40100010        0x6 ../lib/libmain.a(debug-vector.o)
                0x40100010                _DebugExceptionVector
                0x40100020                . = ALIGN (0x10)
 *fill*         0x40100016        0xa 
 *(.NMIExceptionVector.text)
 .NMIExceptionVector.text
                0x40100020        0x6 ../lib/libmain.a(nmi-vector.o)
                                  0xd (size before relaxing)
                0x40100020                _NMIExceptionVector
                0x40100030                . = ALIGN (0x10)
 *fill*         0x40100026        0xa 
 *(.KernelExceptionVector.text)
 .KernelExceptionVector.text
                0x40100030        0x6 ../lib/libmain.a(kernel-vector.o)
                0x40100030                _KernelExceptionVector
                0x40100036        0x4 LONG 0x0
                0x4010003a        0x4 LONG 0x0
                0x4010003e        0x4 LONG 0x0
                0x40100042        0x4 LONG 0x0
                0x40100050                . = ALIGN (0x10)
 *fill*         0x40100046        0xa 
 *(.UserExceptionVector.text)
 .UserExceptionVector.text
                0x40100050        0x6 ../lib/libmain.a(user-vector.o)
                                  0xd (size before relaxing)
                0x40100050                _UserExceptionVector
                0x40100056        0x4 LONG 0x0
                0x4010005a        0x4 LONG 0x0
                0x4010005e        0x4 LONG 0x0
                0x40100062        0x4 LONG 0x0
                0x40100070                . = ALIGN (0x10)
 *fill*         0x40100066        0xa 
 *(.DoubleExceptionVector.text)
 .DoubleExceptionVector.text
                0x40100070        0x6 ../lib/libmain.a(double-vector.o)
                0x40100070                _DoubleExceptionVector
                0x40100076        0x4 LONG 0x0
                0x4010007a        0x4 LONG 0x0
                0x4010007e        0x4 LONG 0x0
                0x40100082        0x4 LONG 0x0
                0x40100090                . = ALIGN (0x10)
 *fill*         0x40100086        0xa 
 *(.entry.text)
 *(.init.literal)
 *(.init)
 *(.literal .text .literal.* .text.* .stub .gnu.warning .gnu.linkonce.literal.* .gnu.linkonce.t.*.literal .gnu.linkonce.t.*)
 .text          0x40100090       0xc7 ../lib/libmain.a(nmi-vector.o)
                                 0xcb (size before relaxing)
                0x4010009c                _NMILevelVector
 *fill*         0x40100157        0x1 
 .text          0x40100158       0x1e ../lib/libmain.a(user-vector.o)
                0x4010015c                _UserExceptionVector_1
 *fill*         0x40100176        0x2 
 .text          0x40100178      0x5fe ../lib/libmain.a(app_main.o)
                                0x66a (size before relaxing)
                0x401001b0                Cache_Read_Enable_New
                0x401001ec                NmiTimSetFunc
                0x40100210                NMI_Handler
                0x40100268                call_user_start_local
                0x401003c8                wdt_feed
 *fill*         0x40100776        0x2 
 .text          0x40100778      0x3cc ../lib/libmain.a(ets_timer.o)
                                0x450 (size before relaxing)
                0x4010084c                ets_timer_setfn
                0x40100928                ets_timer_disarm
                0x401009d8                ets_timer_arm_new
 .text          0x40100b44      0x30f ../lib/libmain.a(mem_manager.o)
                                0x367 (size before relaxing)
                0x40100b48                prvInsertBlockIntoUsedList
                0x40100b78                pvShowMalloc
                0x40100b78                system_show_malloc
                0x40100c04                prvRemoveBlockFromUsedList
                0x40100c30                xPortWantedSizeAlign
                0x40100c58                pvPortMalloc
                0x40100d20                vPortFree
                0x40100d78                pvPortCalloc
                0x40100da8                pvPortZalloc
                0x40100dc4                pvPortRealloc
 *fill*         0x40100e53        0x1 
 .text          0x40100e54      0x59d ../lib/libmain.a(spi_flash.o)
                                0x650 (size before relaxing)
                0x40100e58                Cache_Read_Disable_2
                0x40100e98                Cache_Read_Enable_2
                0x40100ee8                spi_flash_get_unique_id
                0x40101050                spi_flash_get_id
                0x401010ac                spi_flash_read_status
                0x401010e0                spi_flash_write_status
                0x40101160                spi_flash_erase_sector
                0x40101194                spi_flash_write
                0x401011e8                spi_flash_read
                0x40101264                spi_flash_issi_enable_QIO_mode
 *fill*         0x401013f1        0x3 
 .text          0x401013f4      0x2ee ../lib/libmain.a(user_interface.o)
                                0x34a (size before relaxing)
                0x40101410                os_printf_plus
                0x4010153c                system_restart_core
                0x40101574                system_deep_sleep_local_2
                0x401015e8                system_get_time
                0x40101600                system_os_post
                0x40101634                system_rtc_mem_write
                0x4010168c                system_rtc_mem_read
 *fill*         0x401016e2        0x2 
 .text.user_init
                0x401016e4       0x3f user/.output/eagle/debug/lib/libuser.a(user_main.o)
                0x401016f8                user_init
 *fill*         0x40101723        0x1 
 .text.Sys_GetVersion
                0x40101724       0x77 user/.output/eagle/debug/lib/libuser.a(GlobalFunc.o)
                0x40101740                Sys_GetVersion
 *fill*         0x4010179b        0x1 
 .text          0x4010179c      0x728 ../lib/libat.a(uart.o)
                                0x830 (size before relaxing)
                0x401017a4                uart_tx_buffer_set_size
                0x40101820                uart_tx_buffer_get_size
                0x40101830                uart_tx_one_char
                0x401018f8                uart0_rx_intr_handler_for_user
                0x401019a4                uart_tx_one_char_no_wait
                0x401019c8                uart1_sendStr_no_wait
                0x40101ac0                rx_buff_enq
                0x40101c70                tx_start_uart_buffer
                0x40101d64                uart_rx_intr_disable
                0x40101d84                uart_rx_intr_enable
                0x40101dac                at_fake_uart_rx
 .literal       0x40101ec4        0x4 /opt/xtensa-lx106-elf/bin/../lib/gcc/xtensa-lx106-elf/4.8.2/libc.a(islower.o)
 .literal       0x40101ec8        0x0 /opt/xtensa-lx106-elf/bin/../lib/gcc/xtensa-lx106-elf/4.8.2/libc.a(atoi.o)
                                  0x8 (size before relaxing)
 .literal       0x40101ec8       0x14 /opt/xtensa-lx106-elf/bin/../lib/gcc/xtensa-lx106-elf/4.8.2/libc.a(rand.o)
                                 0x1c (size before relaxing)
 .literal       0x40101edc        0x8 /opt/xtensa-lx106-elf/bin/../lib/gcc/xtensa-lx106-elf/4.8.2/libc.a(strchr.o)
 .literal       0x40101ee4        0x4 /opt/xtensa-lx106-elf/bin/../lib/gcc/xtensa-lx106-elf/4.8.2/libc.a(strtol.o)
                                 0x18 (size before relaxing)
 .literal       0x40101ee8        0x4 ../lib/libgcc.a(_mulsf3.o)
                                 0x10 (size before relaxing)
 .literal       0x40101eec        0x0 ../lib/libgcc.a(_divsf3.o)
                                 0x10 (size before relaxing)
 .literal       0x40101eec        0x0 ../lib/libgcc.a(_fixsfsi.o)
                                  0x4 (size before relaxing)
 .literal       0x40101eec        0x4 ../lib/libgcc.a(_cmpdf2.o)
                                 0x18 (size before relaxing)
 .text          0x40101ef0        0xf /opt/xtensa-lx106-elf/bin/../lib/gcc/xtensa-lx106-elf/4.8.2/libc.a(islower.o)
                0x40101ef0                islower
 *fill*         0x40101eff        0x1 
 .text          0x40101f00       0x53 ../lib/libphy.a(phy.o)
                                 0x5f (size before relaxing)
                0x40101f08                register_phy_ops
                0x40101f28                register_get_phy_addr
                0x40101f30                phy_change_channel
                0x40101f48                phy_get_mactime
 *fill*         0x40101f53        0x1 
 .text          0x40101f54      0x262 ../lib/libphy.a(phy_chip_v6_ana.o)
                                0x276 (size before relaxing)
                0x40101f74                phy_adc_read_fast
 *fill*         0x401021b6        0x2 
 .text          0x401021b8       0x4d ../lib/libphy.a(phy_chip_v6.o)
                                 0x55 (size before relaxing)
                0x401021c8                phy_debug_print
 *fill*         0x40102205        0x3 
 .text          0x40102208       0xb2 ../lib/libphy.a(phy_chip_v6_cal.o)
                                 0xba (size before relaxing)
                0x40102208                unsign_to_sign
                0x40102244                phy_get_bb_freqoffset
                0x401022ac                phy_get_bb_evm
 *fill*         0x401022ba        0x2 
 .text          0x401022bc       0xe7 ../lib/libphy.a(phy_sleep.o)
                                0x103 (size before relaxing)
                0x401022c0                pm_rtc_clock_cali
                0x40102378                clockgate_watchdog
 *fill*         0x401023a3        0x1 
 .text          0x401023a4     0x1602 ../lib/libpp.a(lmac.o)
                               0x1962 (size before relaxing)
                0x401023a8                lmacIsActive
                0x401023bc                lmacIsIdle
                0x4010283c                lmacSetAcParam
                0x40102890                lmacProcessTXStartData
                0x40102a10                lmacProcessTxSuccess
                0x40102b54                GetAccess
                0x40102b60                lmacDiscardAgedMSDU
                0x40102b74                lmacRecycleMPDU
                0x40103138                lmacProcessTxTimeout
                0x401031a0                lmacProcessAllTxTimeout
                0x401031b4                lmacProcessCollisions
                0x40103214                lmacProcessCollision
                0x40103298                lmacMSDUAged
                0x40103628                lmacProcessCtsTimeout
                0x40103660                lmacProcessAckTimeout
                0x401036b8                lmacProcessRtsStart
                0x401036c4                lmacProcessTxRtsError
                0x40103764                lmacProcessTxError
                0x401037f4                lmacTxFrame
                0x40103990                lmacRxDone
 *fill*         0x401039a6        0x2 
 .text          0x401039a8      0x8e1 ../lib/libpp.a(pp.o)
                                0x9fd (size before relaxing)
                0x401039dc                pp_soft_wdt_feed_local
                0x40103a70                ppProcessTxQ
                0x40103ae4                ppFetchTxQFirstAvail
                0x40103b24                ppDequeueTxQ
                0x40103b4c                ppRollBackTxQ
                0x40103b70                ppRecordBarRRC
                0x40103b80                ppTxqUpdateBitmap
                0x40103ba8                ppEnqueueTxDone
                0x40103bdc                ppEnqueueRxq
                0x401040c4                ppDiscardMPDU
                0x401040e8                pp_post
                0x40104174                pp_post2
                0x4010419c                ppCalTxop
                0x4010421c                ppCalFrameTimes
 *fill*         0x40104289        0x3 
 .text          0x4010428c       0xf5 ../lib/libpp.a(rate_control.o)
                                0x109 (size before relaxing)
                0x401042ac                RC_GetAckRate
                0x401042b8                RC_GetRtsRate
                0x401042c8                RC_GetAckTime
                0x401042dc                RC_GetCtsTime
                0x40104314                RC_GetBlockAckTime
 *fill*         0x40104381        0x3 
 .text          0x40104384      0x9a1 ../lib/libpp.a(trc.o)
                                0xa05 (size before relaxing)
                0x40104558                rcUpdateTxDone
                0x401045ec                rcUpdateRxDone
                0x40104648                rcUpdateDataRxDone
                0x40104664                rcGetSched
                0x40104748                rcGetRate
                0x40104c58                rcReachRetryLimit
                0x40104c70                trc_NeedRTS
 *fill*         0x40104d25        0x3 
 .text          0x40104d28     0x105b ../lib/libpp.a(wdev.o)
                               0x1347 (size before relaxing)
                0x401050cc                wDev_MacTim1SetFunc
                0x401050ec                wDev_MacTim1Arm
                0x40105180                wDev_ProcessFiq
                0x401054c4                wDev_EnableTransmit
                0x401054fc                wDev_DisableTransmit
                0x4010551c                Tx_Copy2Queue
                0x40105564                wDev_ProcessCollision
                0x40105588                wDev_GetTxqCollisions
                0x40105598                wDev_ClearTxqCollisions
                0x401055b4                wDev_SetWaitingQueue
                0x401055fc                wDev_ClearWaitingQueue
                0x40105620                wDev_SetFrameAckType
                0x40105680                wDev_AppendRxBlocks
                0x401057c4                wDev_AppendRxAmpduLensBlocks
                0x40105898                wDev_GetBAInfo
                0x401058cc                wDevDisableRx
 *fill*         0x40105d83        0x1 
 .text          0x40105d84       0x4c ../lib/libpp.a(esf_buf.o)
                                 0x5c (size before relaxing)
                0x40105d88                esf_rx_buf_alloc
 .text          0x40105dd0       0x23 ../lib/libnet80211.a(ieee80211_output.o)
                                 0x27 (size before relaxing)
 *fill*         0x40105df3        0x1 
 .text          0x40105df4        0xb ../lib/libnet80211.a(wl_chm.o)
                0x40105df8                chm_get_current_channel
 *fill*         0x40105dff        0x1 
 .text          0x40105e00       0x43 ../lib/liblwip.a(etharp.o)
                                 0x47 (size before relaxing)
 *fill*         0x40105e43        0x1 
 .text          0x40105e44      0x1fd ../lib/liblwip.a(tcp.o)
                                0x229 (size before relaxing)
 *fill*         0x40106041        0x3 
 .text          0x40106044      0x15d ../lib/liblwip.a(tcp_out.o)
                                0x161 (size before relaxing)
 *fill*         0x401061a1        0x3 
 .text          0x401061a4       0xb4 ../lib/liblwip.a(timers.o)
                                 0xc0 (size before relaxing)
 .text          0x40106258       0x41 ../lib/libssl.a(ssl_os_port.o)
                                 0x49 (size before relaxing)
                0x40106260                gettimeofday
 *fill*         0x40106299        0x3 
 .text          0x4010629c       0x88 ../lib/libwps.a(wps.o)
                                 0x94 (size before relaxing)
 .text          0x40106324       0x76 ../lib/libwps.a(wps_dev_attr.o)
                                 0x82 (size before relaxing)
 *fill*         0x4010639a        0x2 
 .text          0x4010639c       0x5c ../lib/libwps.a(wps_enrollee.o)
                                 0x68 (size before relaxing)
 .text          0x401063f8       0x9a ../lib/libwps.a(wps_registrar.o)
                                 0xaa (size before relaxing)
 *fill*         0x40106492        0x2 
 .text          0x40106494       0x9a ../lib/libwps.a(wps_attr_build.o)
                                 0xaa (size before relaxing)
 *fill*         0x4010652e        0x2 
 .text.wilddog_increaseTime
                0x40106530       0x17 ../lib/libwilddog.a(wilddog_api.o)
                0x40106534                wilddog_increaseTime
 *fill*         0x40106547        0x1 
 .text.wilddog_trySync
                0x40106548       0x1c ../lib/libwilddog.a(wilddog_api.o)
                0x4010654c                wilddog_trySync
 .text.wilddog_initWithUrl
                0x40106564       0x3b ../lib/libwilddog.a(wilddog_api.o)
                                 0x43 (size before relaxing)
                0x4010656c                wilddog_initWithUrl
 *fill*         0x4010659f        0x1 
 .text.wilddog_destroy
                0x401065a0       0x2f ../lib/libwilddog.a(wilddog_api.o)
                                 0x3f (size before relaxing)
                0x401065a4                wilddog_destroy
 *fill*         0x401065cf        0x1 
 .text.wilddog_auth
                0x401065d0       0x57 ../lib/libwilddog.a(wilddog_api.o)
                                 0x6b (size before relaxing)
                0x401065d4                wilddog_auth
 *fill*         0x40106627        0x1 
 .text.wilddog_unauth
                0x40106628       0x45 ../lib/libwilddog.a(wilddog_api.o)
                                 0x51 (size before relaxing)
                0x4010662c                wilddog_unauth
 *fill*         0x4010666d        0x3 
 .text.wilddog_getValue
                0x40106670       0x3f ../lib/libwilddog.a(wilddog_api.o)
                                 0x4b (size before relaxing)
                0x40106674                wilddog_getValue
 *fill*         0x401066af        0x1 
 .text.wilddog_setValue
                0x401066b0       0x40 ../lib/libwilddog.a(wilddog_api.o)
                                 0x4c (size before relaxing)
                0x401066b4                wilddog_setValue
 .text.wilddog_push
                0x401066f0       0x40 ../lib/libwilddog.a(wilddog_api.o)
                                 0x4c (size before relaxing)
                0x401066f4                wilddog_push
 .text.wilddog_removeValue
                0x40106730       0x3f ../lib/libwilddog.a(wilddog_api.o)
                                 0x4b (size before relaxing)
                0x40106734                wilddog_removeValue
 *fill*         0x4010676f        0x1 
 .text.wilddog_addObserver
                0x40106770       0x40 ../lib/libwilddog.a(wilddog_api.o)
                                 0x4c (size before relaxing)
                0x40106774                wilddog_addObserver
 .text.wilddog_removeObserver
                0x401067b0       0x3b ../lib/libwilddog.a(wilddog_api.o)
                                 0x47 (size before relaxing)
                0x401067b4                wilddog_removeObserver
 *fill*         0x401067eb        0x1 
 .text.wilddog_getParent
                0x401067ec       0x43 ../lib/libwilddog.a(wilddog_api.o)
                                 0x4f (size before relaxing)
                0x401067f0                wilddog_getParent
 *fill*         0x4010682f        0x1 
 .text.wilddog_getRoot
                0x40106830       0x43 ../lib/libwilddog.a(wilddog_api.o)
                                 0x4f (size before relaxing)
                0x40106834                wilddog_getRoot
 *fill*         0x40106873        0x1 
 .text.wilddog_getChild
                0x40106874       0x42 ../lib/libwilddog.a(wilddog_api.o)
                                 0x4e (size before relaxing)
                0x40106878                wilddog_getChild
 *fill*         0x401068b6        0x2 
 .text.wilddog_getKey
                0x401068b8       0x39 ../lib/libwilddog.a(wilddog_api.o)
                                 0x45 (size before relaxing)
                0x401068bc                wilddog_getKey
 *fill*         0x401068f1        0x3 
 .text.wilddog_getHost
                0x401068f4       0x39 ../lib/libwilddog.a(wilddog_api.o)
                                 0x45 (size before relaxing)
                0x401068f8                wilddog_getHost
 *fill*         0x4010692d        0x3 
 .text.wilddog_getPath
                0x40106930       0x39 ../lib/libwilddog.a(wilddog_api.o)
                                 0x45 (size before relaxing)
                0x40106934                wilddog_getPath
 *fill*         0x40106969        0x3 
 .text.wilddog_onDisconnectSetValue
                0x4010696c       0x40 ../lib/libwilddog.a(wilddog_api.o)
                                 0x4c (size before relaxing)
                0x40106970                wilddog_onDisconnectSetValue
 .text.wilddog_onDisconnectPush
                0x401069ac       0x40 ../lib/libwilddog.a(wilddog_api.o)
                                 0x4c (size before relaxing)
                0x401069b0                wilddog_onDisconnectPush
 .text.wilddog_onDisconnectRemoveValue
                0x401069ec       0x3f ../lib/libwilddog.a(wilddog_api.o)
                                 0x4b (size before relaxing)
                0x401069f0                wilddog_onDisconnectRemoveValue
 *fill*         0x40106a2b        0x1 
 .text.wilddog_cancelDisconnectOperations
                0x40106a2c       0x3f ../lib/libwilddog.a(wilddog_api.o)
                                 0x4b (size before relaxing)
                0x40106a30                wilddog_cancelDisconnectOperations
 *fill*         0x40106a6b        0x1 
 .text.wilddog_goOffline
                0x40106a6c       0x18 ../lib/libwilddog.a(wilddog_api.o)
                                 0x1c (size before relaxing)
                0x40106a6c                wilddog_goOffline
 .text.wilddog_goOnline
                0x40106a84       0x18 ../lib/libwilddog.a(wilddog_api.o)
                                 0x1c (size before relaxing)
                0x40106a84                wilddog_goOnline
 .text._wilddog_memcpy
                0x40106a9c       0x21 ../lib/libwilddog.a(wilddog_common.o)
                                 0x25 (size before relaxing)
                0x40106a9c                _wilddog_memcpy
 *fill*         0x40106abd        0x3 
 .text._wilddog_ct_conn_goOffline
                0x40106ac0       0x4b ../lib/libwilddog.a(wilddog_ct.o)
                0x40106ac4                _wilddog_ct_conn_goOffline
 *fill*         0x40106b0b        0x1 
 .text._wilddog_ct_conn_goOnline
                0x40106b0c       0x47 ../lib/libwilddog.a(wilddog_ct.o)
                                 0x4b (size before relaxing)
                0x40106b0c                _wilddog_ct_conn_goOnline
 *fill*         0x40106b53        0x1 
 .text._wilddog_coap_deInit
                0x40106b54       0x21 ../lib/libwilddog.a(wilddog_conn_coap.o)
                0x40106b5c                _wilddog_coap_deInit
 *fill*         0x40106b75        0x3 
 .text._wilddog_sec_reconnect
                0x40106b78       0x6b ../lib/libwilddog.a(wilddog_nosec.o)
                0x40106b8c                _wilddog_sec_reconnect
 *fill*         0x40106be3        0x1 
 .text          0x40106be4       0x27 /opt/xtensa-lx106-elf/bin/../lib/gcc/xtensa-lx106-elf/4.8.2/libc.a(atoi.o)
                                 0x2f (size before relaxing)
                0x40106be4                atoi
                0x40106bf8                _atoi_r
 *fill*         0x40106c0b        0x1 
 .text          0x40106c0c       0x5f /opt/xtensa-lx106-elf/bin/../lib/gcc/xtensa-lx106-elf/4.8.2/libc.a(rand.o)
                0x40106c0c                srand
                0x40106c1c                rand
 *fill*         0x40106c6b        0x1 
 .text          0x40106c6c       0x90 /opt/xtensa-lx106-elf/bin/../lib/gcc/xtensa-lx106-elf/4.8.2/libc.a(strchr.o)
                0x40106c6c                strchr
 .text          0x40106cfc      0x163 /opt/xtensa-lx106-elf/bin/../lib/gcc/xtensa-lx106-elf/4.8.2/libc.a(strtol.o)
                0x40106cfc                _strtol_r
                0x40106e44                strtol
 *fill*         0x40106e5f        0x1 
 .text          0x40106e60      0x15d ../lib/libgcc.a(_mulsf3.o)
                0x40106ed8                __mulsf3
 *fill*         0x40106fbd        0x3 
 .text          0x40106fc0      0x135 ../lib/libgcc.a(_divsf3.o)
                0x4010703c                __divsf3
 *fill*         0x401070f5        0x3 
 .text          0x401070f8       0x40 ../lib/libgcc.a(_fixsfsi.o)
                0x401070f8                __fixsfsi
 .text          0x40107138      0x169 ../lib/libgcc.a(_cmpdf2.o)
                0x40107138                __eqdf2
                0x40107138                __nedf2
                0x40107168                __gtdf2
                0x4010718c                __ledf2
                0x401071f0                __gedf2
                0x40107214                __ltdf2
                0x40107278                __unorddf2
 *fill*         0x401072a1        0x3 
 .text          0x401072a4       0x52 ../lib/libwpa.a(wpabuf.o)
                                 0x5a (size before relaxing)
 .text          0x401072f6        0x0 ../lib/libmain.a(debug-vector.o)
 .text          0x401072f6        0x0 ../lib/libmain.a(double-vector.o)
 .text          0x401072f6        0x0 ../lib/libmain.a(kernel-vector.o)
 *fill*         0x401072f6        0x2 
 .literal       0x401072f8        0x0 ../lib/libmain.a(nmi-vector.o)
 *fill*         0x401072f8        0x0 
 .literal       0x401072f8        0x0 ../lib/libmain.a(user-vector.o)
 .text          0x401072f8        0x0 ../lib/libmain.a(vector.o)
 *fill*         0x401072f8        0x0 
 .literal       0x401072f8        0x0 ../lib/libmain.a(app_main.o)
 *fill*         0x401072f8        0x0 
 .literal       0x401072f8        0x0 ../lib/libmain.a(ets_timer.o)
 .literal       0x401072f8        0x0 ../lib/libmain.a(mem_manager.o)
 *fill*         0x401072f8        0x0 
 .literal       0x401072f8        0x0 ../lib/libmain.a(spi_flash.o)
 .literal       0x401072f8        0x0 ../lib/libmain.a(user_interface.o)
 .text          0x401072f8        0x0 ../lib/libmain.a(eagle_lib.o)
 .text          0x401072f8        0x0 ../lib/libmain.a(eagle_lwip_if.o)
 *fill*         0x401072f8        0x0 
 .literal.user_rf_pre_init
                0x401072f8        0x0 user/.output/eagle/debug/lib/libuser.a(user_main.o)
 .literal.user_init
                0x401072f8        0x0 user/.output/eagle/debug/lib/libuser.a(user_main.o)
 .text          0x401072f8        0x0 user/.output/eagle/debug/lib/libuser.a(user_main.o)
 .text.user_rf_pre_init
                0x401072f8        0x2 user/.output/eagle/debug/lib/libuser.a(user_main.o)
                0x401072f8                user_rf_pre_init
 *fill*         0x401072fa        0x0 
 .text          0x401072fa        0x0 user/.output/eagle/debug/lib/libuser.a(AtCmd_Drv.o)
 .text          0x401072fa        0x0 user/.output/eagle/debug/lib/libuser.a(AirKiss_Drv.o)
 .text          0x401072fa        0x0 user/.output/eagle/debug/lib/libuser.a(user_tcpclient.o)
 .text          0x401072fa        0x0 user/.output/eagle/debug/lib/libuser.a(WildDog_Drv.o)
 *fill*         0x401072fa        0x2 
 .literal.Sys_GetVersion
                0x401072fc        0x0 user/.output/eagle/debug/lib/libuser.a(GlobalFunc.o)
 .text          0x401072fc        0x0 user/.output/eagle/debug/lib/libuser.a(GlobalFunc.o)
 .text          0x401072fc        0x0 user/.output/eagle/debug/lib/libuser.a(GizCmdTest.o)
 .text          0x401072fc        0x0 user/.output/eagle/debug/lib/libuser.a(WDJson_Drv.o)
 .text          0x401072fc        0x0 user/.output/eagle/debug/lib/libuser.a(Serial_Drv.o)
 .text          0x401072fc        0x0 user/.output/eagle/debug/lib/libuser.a(SensorInterface.o)
 .text          0x401072fc        0x0 user/.output/eagle/debug/lib/libuser.a(WifiInterface.o)
 .text          0x401072fc        0x0 ../lib/libat.a(at_baseCmd.o)
 .text          0x401072fc        0x0 ../lib/libat.a(at_cmd.o)
 .text          0x401072fc        0x0 ../lib/libat.a(at_ipCmd.o)
 .text          0x401072fc        0x0 ../lib/libat.a(at_nv_data.o)
 .text          0x401072fc        0x0 ../lib/libat.a(at_port.o)
 .text          0x401072fc        0x0 ../lib/libat.a(at_wifiCmd.o)
 *fill*         0x401072fc        0x0 
 .literal       0x401072fc        0x0 ../lib/libat.a(uart.o)
 .text          0x401072fc        0x0 ../lib/libat.a(at_init_para.o)
 *fill*         0x401072fc        0x0 
 .text          0x401072fc       0x59 /opt/xtensa-lx106-elf/bin/../lib/gcc/xtensa-lx106-elf/4.8.2/libc.a(memcmp.o)
                0x401072fc                memcmp
 *fill*         0x40107355        0x3 
 .text          0x40107358      0x145 /opt/xtensa-lx106-elf/bin/../lib/gcc/xtensa-lx106-elf/4.8.2/libc.a(memcpy.o)
                0x4010739c                memcpy
 *fill*         0x4010749d        0x3 
 .text          0x401074a0       0x7c /opt/xtensa-lx106-elf/bin/../lib/gcc/xtensa-lx106-elf/4.8.2/libc.a(memset.o)
                0x401074cc                memset
 .text          0x4010751c        0x0 /opt/xtensa-lx106-elf/bin/../lib/gcc/xtensa-lx106-elf/4.8.2/libc.a(ctype_.o)
 .text          0x4010751c       0x49 ../lib/libgcc.a(_modsi3.o)
                0x4010751c                __modsi3
 *fill*         0x40107565        0x3 
 .text          0x40107568        0x5 /opt/xtensa-lx106-elf/bin/../lib/gcc/xtensa-lx106-elf/4.8.2/libhal.a(int_asm--set_intclear.o)
                0x40107568                xthal_set_intclear
 *fill*         0x4010756d        0x3 
 .literal       0x40107570        0x0 ../lib/libphy.a(phy.o)
 *fill*         0x40107570        0x0 
 .literal       0x40107570        0x0 ../lib/libphy.a(phy_chip_v6_ana.o)
 *fill*         0x40107570        0x0 
 .literal       0x40107570        0x0 ../lib/libphy.a(phy_chip_v6.o)
 *fill*         0x40107570        0x0 
 .literal       0x40107570        0x0 ../lib/libphy.a(phy_chip_v6_cal.o)
 .text          0x40107570        0x0 ../lib/libphy.a(phy_chip_v6_unused.o)
 *fill*         0x40107570        0x0 
 .literal       0x40107570        0x0 ../lib/libphy.a(phy_sleep.o)
 .text          0x40107570        0x0 ../lib/libpp.a(if_hwctrl.o)
 *fill*         0x40107570        0x0 
 .literal       0x40107570        0x0 ../lib/libpp.a(lmac.o)
 .text          0x40107570        0x0 ../lib/libpp.a(pm.o)
 .text          0x40107570        0x0 ../lib/libpp.a(pm_for_bcn_only_mode.o)
 *fill*         0x40107570        0x0 
 .literal       0x40107570        0x0 ../lib/libpp.a(pp.o)
 *fill*         0x40107570        0x0 
 .literal       0x40107570        0x0 ../lib/libpp.a(rate_control.o)
 *fill*         0x40107570        0x0 
 .literal       0x40107570        0x0 ../lib/libpp.a(trc.o)
 *fill*         0x40107570        0x0 
 .literal       0x40107570        0x0 ../lib/libpp.a(wdev.o)
 *fill*         0x40107570        0x0 
 .literal       0x40107570        0x0 ../lib/libpp.a(esf_buf.o)
 .text          0x40107570        0x0 ../lib/libnet80211.a(ieee80211.o)
 .text          0x40107570        0x0 ../lib/libnet80211.a(ieee80211_crypto.o)
 .text          0x40107570        0x0 ../lib/libnet80211.a(ieee80211_ets.o)
 .literal       0x40107570        0x0 ../lib/libnet80211.a(ieee80211_hostap.o)
 .text          0x40107570       0x25 ../lib/libnet80211.a(ieee80211_hostap.o)
 .text          0x40107595        0x0 ../lib/libnet80211.a(ieee80211_ht.o)
 .text          0x40107595        0x0 ../lib/libnet80211.a(ieee80211_input.o)
 .text          0x40107595        0x0 ../lib/libnet80211.a(ieee80211_mesh_quick.o)
 *fill*         0x40107595        0x3 
 .literal       0x40107598        0x0 ../lib/libnet80211.a(ieee80211_output.o)
 .text          0x40107598        0x0 ../lib/libnet80211.a(ieee80211_phy.o)
 .text          0x40107598        0x0 ../lib/libnet80211.a(ieee80211_power.o)
 .text          0x40107598        0x0 ../lib/libnet80211.a(ieee80211_proto.o)
 .text          0x40107598        0x0 ../lib/libnet80211.a(ieee80211_rfid.o)
 .text          0x40107598        0x0 ../lib/libnet80211.a(ieee80211_scan.o)
 .text          0x40107598        0x0 ../lib/libnet80211.a(ieee80211_sta.o)
 *fill*         0x40107598        0x0 
 .literal       0x40107598        0x0 ../lib/libnet80211.a(wl_chm.o)
 .text          0x40107598        0x0 ../lib/libnet80211.a(wl_cnx.o)
 .text          0x40107598        0x0 ../lib/libnet80211.a(ieee80211_action.o)
 .text          0x40107598        0x0 ../lib/libnet80211.a(ieee80211_action_vendor.o)
 .text          0x40107598        0x0 ../lib/libnet80211.a(ieee80211_crypto_ccmp.o)
 .text          0x40107598        0x0 ../lib/libnet80211.a(ieee80211_ie_vendor.o)
 .text          0x40107598        0x0 ../lib/liblwip.a(dhcp.o)
 .text          0x40107598        0x0 ../lib/liblwip.a(dhcpserver.o)
 .text          0x40107598        0x0 ../lib/liblwip.a(dns.o)
 .text          0x40107598        0x0 ../lib/liblwip.a(espconn_mdns.o)
 .text          0x40107598        0x0 ../lib/liblwip.a(espconn.o)
 .text          0x40107598        0x0 ../lib/liblwip.a(espconn_tcp.o)
 .text          0x40107598        0x0 ../lib/liblwip.a(espconn_udp.o)
 *fill*         0x40107598        0x0 
 .literal       0x40107598        0x0 ../lib/liblwip.a(etharp.o)
 .text          0x40107598        0x0 ../lib/liblwip.a(igmp.o)
 .text          0x40107598        0x0 ../lib/liblwip.a(inet_chksum.o)
 .text          0x40107598        0x0 ../lib/liblwip.a(init.o)
 .text          0x40107598        0x0 ../lib/liblwip.a(ip_addr.o)
 .text          0x40107598        0x0 ../lib/liblwip.a(ip.o)
 .text          0x40107598        0x0 ../lib/liblwip.a(mdns.o)
 .text          0x40107598        0x0 ../lib/liblwip.a(memp.o)
 .text          0x40107598        0x0 ../lib/liblwip.a(netif.o)
 .text          0x40107598        0x0 ../lib/liblwip.a(pbuf.o)
 .text          0x40107598        0x0 ../lib/liblwip.a(ping.o)
 .text          0x40107598        0x0 ../lib/liblwip.a(raw.o)
 .text          0x40107598        0x0 ../lib/liblwip.a(tcp_in.o)
 *fill*         0x40107598        0x0 
 .literal       0x40107598        0x0 ../lib/liblwip.a(tcp.o)
 *fill*         0x40107598        0x0 
 .literal       0x40107598        0x0 ../lib/liblwip.a(tcp_out.o)
 *fill*         0x40107598        0x0 
 .literal       0x40107598        0x0 ../lib/liblwip.a(timers.o)
 .text          0x40107598        0x0 ../lib/liblwip.a(udp.o)
 .text          0x40107598        0x0 ../lib/liblwip.a(icmp.o)
 .text          0x40107598        0x0 ../lib/libwpa.a(ap_config.o)
 .text          0x40107598        0x0 ../lib/libwpa.a(common.o)
 .text          0x40107598        0x0 ../lib/libwpa.a(os_xtensa.o)
 .literal       0x40107598        0x0 ../lib/libwpa.a(wpa_auth.o)
 .text          0x40107598       0x11 ../lib/libwpa.a(wpa_auth.o)
 .text          0x401075a9        0x0 ../lib/libwpa.a(wpa_auth_ie.o)
 .text          0x401075a9        0x0 ../lib/libwpa.a(wpa.o)
 .text          0x401075a9        0x0 ../lib/libwpa.a(wpa_common.o)
 .text          0x401075a9        0x0 ../lib/libwpa.a(wpa_debug.o)
 .text          0x401075a9        0x0 ../lib/libwpa.a(wpa_ie.o)
 .text          0x401075a9        0x0 ../lib/libwpa.a(wpa_main.o)
 .text          0x401075a9        0x0 ../lib/libwpa.a(wpas_glue.o)
 .text          0x401075a9        0x0 ../lib/libcrypto.a(aes-wrap.o)
 .text          0x401075a9        0x0 ../lib/libcrypto.a(aes-internal-enc.o)
 .text          0x401075a9        0x0 ../lib/libcrypto.a(aes-internal.o)
 .text          0x401075a9        0x0 ../lib/libssl.a(espconn_secure.o)
 .text          0x401075a9        0x0 ../lib/libssl.a(espconn_ssl.o)
 .text          0x401075a9        0x0 ../lib/libssl.a(ssl_loader.o)
 .text          0x401075a9        0x0 ../lib/libssl.a(ssl_md5.o)
 .text          0x401075a9        0x0 ../lib/libssl.a(ssl_tls1_clnt.o)
 .text          0x401075a9        0x0 ../lib/libssl.a(ssl_tls1.o)
 .text          0x401075a9        0x0 ../lib/libssl.a(ssl_tls1_svr.o)
 .text          0x401075a9        0x0 ../lib/libssl.a(ssl_x509.o)
 .text          0x401075a9        0x0 ../lib/libssl.a(sha256.o)
 .text          0x401075a9        0x0 ../lib/libssl.a(sha384.o)
 .text          0x401075a9        0x0 ../lib/libssl.a(sha512.o)
 .text          0x401075a9        0x0 ../lib/libssl.a(ssl_aes.o)
 .text          0x401075a9        0x0 ../lib/libssl.a(ssl_asn1.o)
 .text          0x401075a9        0x0 ../lib/libssl.a(ssl_bigint.o)
 .text          0x401075a9        0x0 ../lib/libssl.a(ssl_crypto_misc.o)
 .text          0x401075a9        0x0 ../lib/libssl.a(ssl_hmac.o)
 *fill*         0x401075a9        0x3 
 .literal       0x401075ac        0x0 ../lib/libssl.a(ssl_os_port.o)
 .text          0x401075ac        0x0 ../lib/libssl.a(ssl_rc4.o)
 .text          0x401075ac        0x0 ../lib/libssl.a(ssl_rsa.o)
 .text          0x401075ac        0x0 ../lib/libssl.a(ssl_sha1.o)
 *fill*         0x401075ac        0x0 
 .literal       0x401075ac        0x0 ../lib/libwps.a(wps.o)
 .text          0x401075ac        0x0 ../lib/libwps.a(wps_common.o)
 .literal       0x401075ac        0x0 ../lib/libwps.a(wps_dev_attr.o)
 *fill*         0x401075ac        0x0 
 .literal       0x401075ac        0x0 ../lib/libwps.a(wps_enrollee.o)
 .literal       0x401075ac        0x0 ../lib/libwps.a(wps_registrar.o)
 .text          0x401075ac        0x0 ../lib/libwps.a(wps_validate.o)
 *fill*         0x401075ac        0x0 
 .literal       0x401075ac        0x0 ../lib/libwps.a(eap_common.o)
 .text          0x401075ac        0xb ../lib/libwps.a(eap_common.o)
 .text          0x401075b7        0x0 ../lib/libwps.a(uuid.o)
 *fill*         0x401075b7        0x1 
 .literal       0x401075b8        0x0 ../lib/libwps.a(wps_attr_build.o)
 .text          0x401075b8        0x0 ../lib/libwps.a(wps_attr_parse.o)
 .text          0x401075b8        0x0 ../lib/libwps.a(wps_attr_process.o)
 .text          0x401075b8        0x0 ../lib/libsmartconfig.a(sc_sniffer.o)
 .text          0x401075b8        0x0 ../lib/libsmartconfig.a(sc_airkiss.o)
 .text          0x401075b8        0x0 ../lib/libsmartconfig.a(sc_esptouch.o)
 *fill*         0x401075b8        0x0 
 .literal.wilddog_increaseTime
                0x401075b8        0x0 ../lib/libwilddog.a(wilddog_api.o)
 .literal.wilddog_trySync
                0x401075b8        0x0 ../lib/libwilddog.a(wilddog_api.o)
 .literal.wilddog_initWithUrl
                0x401075b8        0x0 ../lib/libwilddog.a(wilddog_api.o)
 .literal.wilddog_destroy
                0x401075b8        0x0 ../lib/libwilddog.a(wilddog_api.o)
 .literal.wilddog_auth
                0x401075b8        0x0 ../lib/libwilddog.a(wilddog_api.o)
 .literal.wilddog_unauth
                0x401075b8        0x0 ../lib/libwilddog.a(wilddog_api.o)
 .literal.wilddog_getValue
                0x401075b8        0x0 ../lib/libwilddog.a(wilddog_api.o)
 .literal.wilddog_setValue
                0x401075b8        0x0 ../lib/libwilddog.a(wilddog_api.o)
 .literal.wilddog_push
                0x401075b8        0x0 ../lib/libwilddog.a(wilddog_api.o)
 .literal.wilddog_removeValue
                0x401075b8        0x0 ../lib/libwilddog.a(wilddog_api.o)
 .literal.wilddog_addObserver
                0x401075b8        0x0 ../lib/libwilddog.a(wilddog_api.o)
 .literal.wilddog_removeObserver
                0x401075b8        0x0 ../lib/libwilddog.a(wilddog_api.o)
 .literal.wilddog_getParent
                0x401075b8        0x0 ../lib/libwilddog.a(wilddog_api.o)
 .literal.wilddog_getRoot
                0x401075b8        0x0 ../lib/libwilddog.a(wilddog_api.o)
 .literal.wilddog_getChild
                0x401075b8        0x0 ../lib/libwilddog.a(wilddog_api.o)
 .literal.wilddog_getKey
                0x401075b8        0x0 ../lib/libwilddog.a(wilddog_api.o)
 .literal.wilddog_getHost
                0x401075b8        0x0 ../lib/libwilddog.a(wilddog_api.o)
 .literal.wilddog_getPath
                0x401075b8        0x0 ../lib/libwilddog.a(wilddog_api.o)
 .literal.wilddog_onDisconnectSetValue
                0x401075b8        0x0 ../lib/libwilddog.a(wilddog_api.o)
 .literal.wilddog_onDisconnectPush
                0x401075b8        0x0 ../lib/libwilddog.a(wilddog_api.o)
 .literal.wilddog_onDisconnectRemoveValue
                0x401075b8        0x0 ../lib/libwilddog.a(wilddog_api.o)
 .literal.wilddog_cancelDisconnectOperations
                0x401075b8        0x0 ../lib/libwilddog.a(wilddog_api.o)
 .literal.wilddog_goOffline
                0x401075b8        0x0 ../lib/libwilddog.a(wilddog_api.o)
 .literal.wilddog_goOnline
                0x401075b8        0x0 ../lib/libwilddog.a(wilddog_api.o)
 .text          0x401075b8        0x0 ../lib/libwilddog.a(wilddog_api.o)
 *fill*         0x401075b8        0x0 
 *fill*         0x401075b8        0x0 
 *fill*         0x401075b8        0x0 
 *fill*         0x401075b8        0x0 
 *fill*         0x401075b8        0x0 
 *fill*         0x401075b8        0x0 
 *fill*         0x401075b8        0x0 
 *fill*         0x401075b8        0x0 
 *fill*         0x401075b8        0x0 
 *fill*         0x401075b8        0x0 
 *fill*         0x401075b8        0x0 
 *fill*         0x401075b8        0x0 
 *fill*         0x401075b8        0x0 
 *fill*         0x401075b8        0x0 
 *fill*         0x401075b8        0x0 
 *fill*         0x401075b8        0x0 
 .literal._wilddog_memcpy
                0x401075b8        0x0 ../lib/libwilddog.a(wilddog_common.o)
 .text          0x401075b8        0x0 ../lib/libwilddog.a(wilddog_common.o)
 *fill*         0x401075b8        0x0 
 .literal._wilddog_ct_conn_goOffline
                0x401075b8        0x0 ../lib/libwilddog.a(wilddog_ct.o)
 .literal._wilddog_ct_conn_goOnline
                0x401075b8        0x0 ../lib/libwilddog.a(wilddog_ct.o)
 .text          0x401075b8        0x0 ../lib/libwilddog.a(wilddog_ct.o)
 *fill*         0x401075b8        0x0 
 .text          0x401075b8        0x0 ../lib/libwilddog.a(wilddog_espressif.o)
 .text          0x401075b8        0x0 ../lib/libwilddog.a(wilddog_node.o)
 .text          0x401075b8        0x0 ../lib/libwilddog.a(wilddog_store.o)
 .text          0x401075b8        0x0 ../lib/libwilddog.a(wilddog_url_parser.o)
 .text          0x401075b8        0x0 ../lib/libwilddog.a(wilddog_conn.o)
 *fill*         0x401075b8        0x0 
 .literal._wilddog_coap_deInit
                0x401075b8        0x0 ../lib/libwilddog.a(wilddog_conn_coap.o)
 .text          0x401075b8        0x0 ../lib/libwilddog.a(wilddog_conn_coap.o)
 .text          0x401075b8        0x0 ../lib/libwilddog.a(wilddog_conn_manage.o)
 .text          0x401075b8        0x0 ../lib/libwilddog.a(wilddog_event.o)
 *fill*         0x401075b8        0x0 
 .literal._wilddog_sec_reconnect
                0x401075b8        0x0 ../lib/libwilddog.a(wilddog_nosec.o)
 .text          0x401075b8        0x0 ../lib/libwilddog.a(wilddog_nosec.o)
 .text          0x401075b8        0x0 ../lib/libwilddog.a(wilddog_sec_host.o)
 .text          0x401075b8        0x0 ../lib/libwilddog.a(option.o)
 .text          0x401075b8        0x0 ../lib/libwilddog.a(pdu.o)
 .text          0x401075b8        0x0 ../lib/libwilddog.a(wilddog_cbor.o)
 .text          0x401075b8        0x0 ../lib/libairkiss.a(airlink.o)
 *fill*         0x401075b8        0x0 
 *fill*         0x401075b8        0x0 
 *fill*         0x401075b8        0x0 
 .text          0x401075b8        0x0 /opt/xtensa-lx106-elf/bin/../lib/gcc/xtensa-lx106-elf/4.8.2/libc.a(impure.o)
 *fill*         0x401075b8        0x0 
 .text          0x401075b8       0x18 ../lib/libgcc.a(_ashrdi3.o)
                0x401075b8                __ashrdi3
 *fill*         0x401075d0        0x0 
 *fill*         0x401075d0        0x0 
 .text          0x401075d0        0x0 ../lib/libnet80211.a(ieee80211_crypto_tkip.o)
 .text          0x401075d0        0x0 ../lib/libnet80211.a(ieee80211_crypto_wep.o)
 *fill*         0x401075d0        0x0 
 .literal       0x401075d0        0x0 ../lib/libwpa.a(wpabuf.o)
 .text          0x401075d0        0x0 ../lib/libcrypto.a(aes-cbc.o)
 .text          0x401075d0        0x0 ../lib/libcrypto.a(aes-internal-dec.o)
 .text          0x401075d0        0x0 ../lib/libcrypto.a(dh_group5.o)
 *fill*         0x401075d0        0x0 
 .literal       0x401075d0        0x0 ../lib/libcrypto.a(dh_groups.o)
 .text          0x401075d0        0xb ../lib/libcrypto.a(dh_groups.o)
 .text          0x401075db        0x0 ../lib/libcrypto.a(sha256.o)
 .text          0x401075db        0x0 ../lib/libcrypto.a(sha256-internal.o)
 .text          0x401075db        0x0 ../lib/libcrypto.a(crypto_internal-modexp.o)
 .text          0x401075db        0x0 ../lib/libcrypto.a(bignum.o)
 *(.fini.literal)
 *(.fini)
 *(.gnu.version)
                0x401075db                _text_end = ABSOLUTE (.)
                0x401075db                _etext = .

.NMIExceptionVector.literal
                0x401075dc        0x0
 .NMIExceptionVector.literal
                0x401075dc        0x0 ../lib/libmain.a(nmi-vector.o)

.UserExceptionVector.literal
                0x401075dc        0x0
 .UserExceptionVector.literal
                0x401075dc        0x0 ../lib/libmain.a(user-vector.o)

.UserEnter.literal
                0x401075dc        0x0
 .UserEnter.literal
                0x401075dc        0x0 ../lib/libmain.a(vector.o)

.lit4           0x401075dc        0x0
                0x401075dc                _lit4_start = ABSOLUTE (.)
 *(*.lit4)
 *(.lit4.*)
 *(.gnu.linkonce.lit4.*)
                0x401075dc                _lit4_end = ABSOLUTE (.)

.irom0.text     0x40201010    0x605fd
                0x40201010                _irom0_text_start = ABSOLUTE (.)
 *(.irom0.literal .irom.literal .irom.text.literal .irom0.text .irom.text)
 .irom0.text    0x40201010      0xa85 ../lib/libmain.a(app_main.o)
                                0xc9d (size before relaxing)
                0x402011f8                wdt_init
                0x402012a0                user_uart_wait_tx_fifo_empty
 *fill*         0x40201a95        0x3 
 .irom0.text    0x40201a98      0x186 ../lib/libmain.a(ets_timer.o)
                                0x1b2 (size before relaxing)
                0x40201aa0                ets_timer_done
                0x40201aec                ets_timer_handler_isr
                0x40201bbc                ets_timer_init
 *fill*         0x40201c1e        0x2 
 .irom0.text    0x40201c20       0xec ../lib/libmain.a(mem_manager.o)
                                 0xf8 (size before relaxing)
                0x40201c20                check_memleak_debug_enable
                0x40201c8c                xPortGetFreeHeapSize
                0x40201c94                vPortInitialiseBlocks
 .irom0.text    0x40201d0c        0xb ../lib/libmain.a(spi_flash.o)
                0x40201d10                spi_flash_set_read_func
 *fill*         0x40201d17        0x1 
 .irom0.text    0x40201d18     0x3549 ../lib/libmain.a(user_interface.o)
                               0x3f9d (size before relaxing)
                0x40201d1c                system_set_os_print
                0x40201d2c                system_get_os_print
                0x40201ef4                system_pp_recycle_rx_pkt
                0x40201f10                system_adc_read
                0x40201f50                system_adc_read_fast
                0x40201fb0                system_get_vdd33
                0x40201fdc                system_restart_hook
                0x40201ff4                system_restart_local
                0x402020d4                system_restart
                0x40202130                system_restore
                0x40202198                system_get_flash_size_map
                0x402021b8                system_get_boot_version
                0x402021f0                system_get_test_result
                0x40202218                system_get_userbin_addr
                0x402022b0                system_get_boot_mode
                0x402022e0                system_restart_enhance
                0x40202410                system_upgrade_userbin_set
                0x4020245c                system_upgrade_userbin_check
                0x4020249c                system_upgrade_flag_set
                0x402024b0                system_upgrade_flag_check
                0x402024d8                system_upgrade_reboot
                0x4020260c                system_deep_sleep_instant
                0x402027a4                system_deep_sleep
                0x40202804                system_deep_sleep_set_option
                0x40202820                system_phy_temperature_alert
                0x40202834                system_phy_set_max_tpw
                0x40202848                system_phy_set_tpw_via_vdd33
                0x4020285c                system_phy_set_rfoption
                0x40202870                system_phy_set_powerup_option
                0x40202888                system_update_cpu_freq
                0x402028e4                system_get_cpu_freq
                0x402028fc                system_overclock
                0x40202928                system_restoreclock
                0x40202958                system_timer_reinit
                0x40202970                system_relative_time
                0x40202994                system_station_got_ip_set
                0x40202ac0                system_print_meminfo
                0x40202b20                system_get_free_heap_size
                0x40202b38                system_get_chip_id
                0x40202b5c                system_rtc_clock_cali_proc
                0x40202b70                system_get_rtc_time
                0x40202b84                system_mktime
                0x40202c54                system_init_done_cb
                0x40202c5c                system_get_rst_info
                0x40202c64                system_get_data_of_array_8
                0x40202c88                system_get_data_of_array_16
                0x40202cb0                system_get_string_from_flash
                0x40202d1c                wifi_softap_dhcps_start
                0x40202d64                wifi_softap_dhcps_stop
                0x40202da4                wifi_softap_dhcps_status
                0x40202dac                wifi_station_dhcpc_start
                0x40202e04                wifi_station_dhcpc_stop
                0x40202e44                wifi_station_dhcpc_event
                0x40202eb8                wifi_station_dhcpc_set_maxtry
                0x40202ec8                wifi_station_dhcpc_status
                0x40202f40                wifi_get_opmode
                0x40202f54                wifi_get_opmode_default
                0x40202fd0                wifi_get_broadcast_if
                0x4020300c                wifi_set_broadcast_if
                0x40203188                wifi_set_opmode
                0x4020319c                wifi_set_opmode_current
                0x402031b0                system_get_checksum
                0x402031f8                wifi_param_save_protect_with_check
                0x402032b4                system_param_save_with_protect
                0x4020335c                system_save_sys_param
                0x40203388                system_param_load
                0x402034c0                wifi_station_get_config
                0x402034d4                wifi_station_get_config_default
                0x402034f4                wifi_station_get_ap_info
                0x402035ac                wifi_station_ap_number_set
                0x40203940                wifi_station_set_config
                0x40203958                wifi_station_set_config_current
                0x40203970                wifi_station_restore_config
                0x40203988                wifi_station_get_current_ap_id
                0x4020399c                wifi_station_ap_check
                0x402039e4                wifi_station_ap_change
                0x40203b10                wifi_station_scan
                0x40203b5c                wifi_station_get_auto_connect
                0x40203b70                wifi_station_set_auto_connect
                0x40203bc0                wifi_station_save_pmk2cache
                0x40203c74                wifi_station_connect
                0x40203d08                wifi_station_disconnect
                0x40203dc8                wifi_station_get_connect_status
                0x40203df8                wifi_station_set_reconnect_policy
                0x40203e10                wifi_station_get_reconnect_policy
                0x40203e18                wifi_station_get_rssi
                0x40203e68                wifi_station_set_default_hostname
                0x40203ed0                wifi_station_get_hostname
                0x40203f00                wifi_station_set_hostname
                0x40203fa0                wifi_softap_cacl_mac
                0x40204010                wifi_softap_set_default_ssid
                0x402041f0                wifi_softap_get_config
                0x40204204                wifi_softap_get_config_default
                0x40204558                wifi_softap_set_config
                0x4020456c                wifi_softap_set_config_current
                0x40204580                wifi_softap_set_station_info
                0x402045ec                wifi_softap_get_station_info
                0x4020469c                wifi_softap_free_station_info
                0x402046e4                wifi_softap_get_station_num
                0x40204738                wifi_softap_deauth
                0x402047e8                wifi_softap_get_beacon_only_mode
                0x402047fc                wifi_softap_set_beacon_only_mode
                0x40204860                wifi_register_user_ie_manufacturer_recv_cb
                0x40204874                wifi_unregister_user_ie_manufacturer_recv_cb
                0x402048a8                wifi_set_user_ie
                0x402049b8                wifi_get_user_ie
                0x402049ec                wifi_get_phy_mode
                0x402049f4                wifi_set_phy_mode
                0x40204abc                wifi_set_sleep_type
                0x40204ad8                wifi_get_sleep_type
                0x40204af0                wifi_get_channel
                0x40204b08                wifi_set_channel
                0x40204b4c                wifi_promiscuous_set_mac
                0x40204bac                wifi_promiscuous_enable
                0x40204c90                wifi_set_promiscuous_rx_cb
                0x40204ca0                wifi_get_ip_info
                0x40204d20                wifi_set_ip_info
                0x40204d94                wifi_get_macaddr
                0x40204df4                wifi_set_macaddr
                0x40204f10                wifi_enable_6m_rate
                0x40204f18                wifi_get_user_fixed_rate
                0x40204f38                wifi_set_user_fixed_rate
                0x40204f58                wifi_set_user_sup_rate
                0x40204f94                wifi_set_user_rate_limit
                0x40204fb8                wifi_get_user_limit_rate_mask
                0x40204fc0                wifi_set_user_limit_rate_mask
                0x40204fd8                wifi_register_send_pkt_freedom_cb
                0x40204fec                wifi_unregister_send_pkt_freedom_cb
                0x40204ff8                wifi_send_pkt_freedom
                0x40205044                wifi_rfid_locp_recv_open
                0x40205058                wifi_rfid_locp_recv_close
                0x4020506c                wifi_register_rfid_locp_recv_cb
                0x40205080                wifi_unregister_rfid_locp_recv_cb
                0x40205098                wifi_status_led_install
                0x402050cc                wifi_status_led_uninstall
                0x402050f0                wifi_set_status_led_output_level
                0x40205144                wifi_set_event_handler_cb
                0x4020518c                system_os_task
                0x402051c8                system_uart_swap
                0x40205228                system_uart_de_swap
                0x4020525c                system_get_sdk_version
 *fill*         0x40205261        0x3 
 .irom0.text    0x40205264      0x610 ../lib/libmain.a(eagle_lib.o)
                                0x620 (size before relaxing)
                0x40205268                divide
                0x402052a4                skip_atoi
                0x40205424                ets_vsnprintf
                0x40205784                ets_vsprintf
                0x402057a8                ets_sprintf
                0x402057d0                ets_strcat
                0x402057f0                ets_strrchr
                0x4020581c                ets_strchr
                0x40205834                bit_popcount
                0x40205850                ets_snprintf
 .irom0.text    0x40205874      0x31e ../lib/libmain.a(eagle_lwip_if.o)
                                0x3e6 (size before relaxing)
                0x4020592c                eagle_lwip_if_alloc
                0x40205aec                eagle_lwip_if_free
                0x40205b70                eagle_lwip_getif
 *fill*         0x40205b92        0x2 
 .irom0.text    0x40205b94     0x1619 user/.output/eagle/debug/lib/libuser.a(AtCmd_Drv.o)
                               0x1afd (size before relaxing)
                0x40205e2c                ATUART_RxIntServer
                0x40206d18                CMDFN_SendConfigMode_Req
                0x40206d84                GetRxCfgModeReqFlag
                0x40206d8c                SetRxCfgModeReqFlag
                0x40206d9c                CMDFN_SendRestartWifi_Req
                0x40206e1c                GetRxRestartWifiReqFlag
                0x40206e24                SetRxRestartWifiReqFlag
                0x40206e30                CMDFN_SendWifiStatusChangeNotify_Req
                0x40206e9c                CMDFN_SendReadDeviceCurStatus_Req
                0x40206f00                DeviceCurTimeUpdate
                0x40206f44                DeviceCurSysStatusUpdate
                0x40206f4c                DeviceCurTempValUpdate
                0x40206f68                DeviceCurHumiValUpdate
                0x40206f84                DeviceCurFormaValUpdate
                0x40206fa0                DeviceCurPM25ValUpdate
                0x40206fb4                DeviceCurBatteryCapacityUpdate
                0x40206fd0                Sensor_HasTemperatureData
                0x40207010                CMDFN_SendReadDeviceCurStatusReport
                0x40207080                CMDFN_SendDeviceTimeSet_Req
                0x40207100                GetRxTimeSetReqFlag
                0x40207108                SetRxTimeSetReqFlag
                0x40207114                TestTimerCallBack
                0x40207138                ATCMD_Init
 *fill*         0x402071ad        0x3 
 .irom0.text    0x402071b0      0x482 user/.output/eagle/debug/lib/libuser.a(AirKiss_Drv.o)
                                0x5ae (size before relaxing)
                0x402074d0                airkiss_start_discover
                0x402075f4                AirKiss_Init
                0x40207608                AirKiss_IsNetConnected
 *fill*         0x40207632        0x2 
 .irom0.text    0x40207634       0xd5 user/.output/eagle/debug/lib/libuser.a(user_tcpclient.o)
                                0x131 (size before relaxing)
                0x40207644                user_check_ip
                0x402076d0                user_set_station_config
 *fill*         0x40207709        0x3 
 .irom0.text    0x4020770c      0x1ab user/.output/eagle/debug/lib/libuser.a(WildDog_Drv.o)
                                0x243 (size before relaxing)
                0x40207710                fake_main
                0x4020774c                WD_user_check_ip
                0x402077ec                WD_user_set_station_config
                0x40207894                WD_Init
 *fill*         0x402078b7        0x1 
 .irom0.text    0x402078b8       0x4c user/.output/eagle/debug/lib/libuser.a(GlobalFunc.o)
                                 0x58 (size before relaxing)
                0x402078b8                Sys_GetRunTime
                0x402078d4                Sys_DelayMs
                0x40207900                Sys_IsBigEndian
 .irom0.text    0x40207904      0x259 user/.output/eagle/debug/lib/libuser.a(GizCmdTest.o)
                                0x31d (size before relaxing)
                0x40207a70                CmdTest_WifiTimingToCheckStatus_Manager
                0x40207ab8                CmdTest_SendReadDevCurStatusReq_Manager
                0x40207af4                CmdTest_TimeSetReqTimer_Manager
                0x40207b3c                GizCmdTestInit
 *fill*         0x40207b5d        0x3 
 .irom0.text    0x40207b60      0x887 user/.output/eagle/debug/lib/libuser.a(WDJson_Drv.o)
                                0xac3 (size before relaxing)
                0x40207e60                WDJson_SetNodeFloatValue
                0x40207f20                WDJson_SetNodeNumValue
                0x402080a8                WDJson_SetNodeStringValue
                0x40208270                WDJson_WriteToCloud
                0x402083a8                WDJson_PushToCloud
 *fill*         0x402083e7        0x1 
 .irom0.text    0x402083e8      0x1e4 user/.output/eagle/debug/lib/libuser.a(Serial_Drv.o)
                                0x2b4 (size before relaxing)
                0x402083f8                at_setupCmdTest
                0x402084c4                at_testCmdTest
                0x402084f8                at_queryCmdTest
                0x4020852c                at_exeCmdTest
                0x4020855c                SerialDrv_SetRxCompleteBool
                0x40208578                SerialDrv_Init
 .irom0.text    0x402085cc       0x4d user/.output/eagle/debug/lib/libuser.a(SensorInterface.o)
                0x402085cc                Sensor_GetHourMinSec
                0x402085dc                Sensor_GetSysState
                0x402085e4                Sensor_GetPM25Val
                0x402085f0                Sensor_GetFormaldehydeVal
                0x402085fc                Sensor_GetTemperatureVal
                0x40208608                Sensor_GetHumidityVal
                0x40208614                Sensor_GetBatCapacityVal
 *fill*         0x40208619        0x3 
 .irom0.text    0x4020861c       0x38 user/.output/eagle/debug/lib/libuser.a(WifiInterface.o)
                                 0x44 (size before relaxing)
                0x4020861c                my_wifi_is_config_mode_on
                0x4020864c                my_wifi_is_binding_on
                0x40208650                my_wifi_is_connect_cloud
 .irom0.text    0x40208654      0x3fa ../lib/libat.a(at_baseCmd.o)
                                0x5c2 (size before relaxing)
                0x40208654                at_exeCmdNull
                0x4020866c                at_setupCmdE
                0x402086b4                at_exeCmdRst
                0x402086d0                at_set_custom_info
                0x4020873c                at_exeCmdGmr
                0x4020879c                at_setupCmdIpr
                0x40208828                at_execCmdRestore
                0x40208840                at_setupCmdGslp
                0x4020888c                at_setupCmdSleep
                0x402088f0                at_queryCmdSleep
                0x4020892c                at_setupCmdRFPower
                0x40208988                at_setupCmdRFVdd
                0x402089fc                at_execCmdRFVdd
                0x40208a14                at_queryCmdRFVdd
 *fill*         0x40208a4e        0x2 
 .irom0.text    0x40208a50      0x24f ../lib/libat.a(at_cmd.o)
                                0x26f (size before relaxing)
                0x40208a54                at_response_ok
                0x40208a70                at_response_error
                0x40208bb0                at_cmdProcess
 *fill*         0x40208c9f        0x1 
 .irom0.text    0x40208ca0     0x472f ../lib/libat.a(at_ipCmd.o)
                               0x5cb1 (size before relaxing)
                0x40208ca4                at_enter_special_state
                0x40208cb4                at_leave_special_state
                0x40208ccc                at_get_version
                0x40208ce4                at_get_next_int_dec
                0x40208dd0                at_alloc_linkconn
                0x40208e30                at_testCmdCifsr
                0x40208e50                at_setupCmdCifsr
                0x40208f48                at_exeCmdCifsr
                0x402090c4                at_testCmdCipstatus
                0x402090ec                at_exeCmdCipstatus
                0x40209214                at_testCmdCipstart
                0x4020929c                at_tcpclient_recv
                0x402093b4                at_queryCmdCipIpdInfo
                0x40209400                at_setupCmdCipIpdInfo
                0x40209458                at_udpclient_recv
                0x40209680                at_set_rx_buf_state
                0x40209d94                at_setupCmdCipstart
                0x4020a594                at_setupCmdCipSslsize
                0x4020a620                at_queryCmdCipSslSize
                0x4020a8c0                at_testCmdCipclose
                0x4020a8dc                at_setupCmdCipclose
                0x4020abf8                at_exeCmdCipclose
                0x4020ad38                at_testCmdCipsend
                0x4020ad84                at_setupCmdCipsend
                0x4020b138                at_setupCmdCipsendEx
                0x4020b194                at_ipDataSending
                0x4020b330                at_transmit_check_ip
                0x4020b3f0                at_trans_start_check_ip_timer
                0x4020b434                at_transparent_exit
                0x4020b4ec                get_block_conn
                0x4020b528                at_ipDataTransparent
                0x4020b608                at_ipDataSendNow
                0x4020b644                at_exeCmdCipsend
                0x4020b6fc                at_queryCmdCipmux
                0x4020b748                at_setupCmdCipmux
                0x4020bb90                at_setupCmdCipserver
                0x4020bde8                at_queryCmdCipmode
                0x4020be28                at_setupCmdCipmode
                0x4020bedc                at_setupCmdSaveTransLink
                0x4020c1d8                at_queryCmdCipsto
                0x4020c214                at_setupCmdCipsto
                0x4020c298                at_queryCmdCipAlive
                0x4020c480                trans_config_reinit
                0x4020c500                trans_client_connect
                0x4020c5fc                trans_client_init
                0x4020c7c8                at_setupCmdUart
                0x4020c9dc                at_setupCmdUartDef
                0x4020ca38                at_execCmdCipBufReset
                0x4020cac4                at_setupCmdCipBufReset
                0x4020cbc8                at_setupCmdCipSendBuf
                0x4020cc0c                at_setupCmdCipCheckQueue
                0x4020cdcc                at_execCmdCipBufStatus
                0x4020ce80                at_setupCmdCipBufStatus
                0x4020cfb8                wifi_event_handler_cb
                0x4020d0d0                at_setupCmdMDNS
                0x4020d31c                at_setupCipdomain
 *fill*         0x4020d3cf        0x1 
 .irom0.text    0x4020d3d0       0xe0 ../lib/libat.a(at_nv_data.o)
                                0x120 (size before relaxing)
                0x4020d3d4                at_restore_param_in_flash
                0x4020d3fc                at_read_param_from_flash
                0x4020d430                at_write_param_into_flash
 .irom0.text    0x4020d4b0      0x7e1 ../lib/libat.a(at_port.o)
                                0x9f1 (size before relaxing)
                0x4020d4b4                at_set_escape_character
                0x4020d4e4                at_register_uart_rx_intr
                0x4020d4ec                at_register_uart_tx_complete_func
                0x4020d4f8                at_task_malloc_buffer
                0x4020d52c                at_task_free_buffer
                0x4020dbe8                at_cmd_array_regist
                0x4020dc54                at_init
 *fill*         0x4020dc91        0x3 
 .irom0.text    0x4020dc94     0x2c88 ../lib/libat.a(at_wifiCmd.o)
                               0x3a9c (size before relaxing)
                0x4020dc94                at_data_str_copy
                0x4020dd24                str_2_mac
                0x4020ddcc                str_to_digit_ex
                0x4020df08                at_testCmdCwmode
                0x4020df48                at_queryCmdCwmode
                0x4020dfa0                at_setupCmdCwmode
                0x4020e038                at_queryCmdCwmodeDef
                0x4020e058                at_setupCmdCwmodeDef
                0x4020e080                at_cmd_ping_recv_cb
                0x4020e0c8                at_cmd_ping_send_cb
                0x4020e118                at_ping_start
                0x4020e134                at_ping_dns_found_cb
                0x4020e198                at_setupCmdPing
                0x4020e5f8                at_setupCmdCwlap
                0x4020e74c                at_setupCmdCwlapOpt
                0x4020e7f0                at_exeCmdCwlap
                0x4020e840                at_queryCmdCwjap
                0x4020e90c                at_queryCmdCwjapDef
                0x4020e93c                at_japChack
                0x4020e9e0                at_setupCmdCwjap
                0x4020eb88                at_setupCmdCwjapDef
                0x4020eba8                at_testCmdCwqap
                0x4020ebc0                at_exeCmdCwqap
                0x4020ebf0                at_queryCmdCwsap
                0x4020eca8                at_queryCmdCwsapDef
                0x4020ecc8                at_setupCmdCwsap
                0x4020ef04                at_setupCmdCwsapDef
                0x4020ef28                at_exeCmdCwlif
                0x4020efc8                get_dhcp_status
                0x4020effc                at_queryCmdCwdhcp
                0x4020f058                set_dhcp
                0x4020f0c4                at_setupCmdCwdhcp
                0x4020f1dc                at_queryCmdCwdhcpDef
                0x4020f1fc                at_setupCmdCwdhcpDef
                0x4020f220                at_queryCmdCwdhcps
                0x4020f2b8                at_setupCmdCwdhcps
                0x4020f4e4                at_queryCmdCwdhcpsDef
                0x4020f504                at_setupCmdCwdhcpsDef
                0x4020f52c                at_queryCmdCipstamac
                0x4020f5d8                at_setupCmdCipstamac
                0x4020f6d8                at_queryCmdCipstamacDef
                0x4020f6f8                at_setupCmdCipstamacDef
                0x4020f718                at_queryCmdCipapmac
                0x4020f7c4                at_setupCmdCipapmac
                0x4020f8c8                at_queryCmdCipapmacDef
                0x4020f8e8                at_setupCmdCipapmacDef
                0x4020f914                at_queryCmdCipsta
                0x4020fa14                at_setupCmdCipsta
                0x4020fc00                at_queryCmdCipstaDef
                0x4020fc20                at_setupCmdCipstaDef
                0x4020fc40                at_queryCmdCipap
                0x4020fd38                at_setupCmdCipap
                0x4020ff18                at_queryCmdCipapDef
                0x4020ff38                at_setupCmdCipapDef
                0x4020ff58                at_queryCmdCwAutoConn
                0x4020ff98                at_setupCmdCwAutoConn
                0x4021002c                smartconfig_done
                0x4021011c                at_setupCmdSmartStart
                0x402101bc                at_exeCmdSmartStart
                0x4021020c                at_exeCmdSmartStop
                0x40210288                at_exeCmdWps
                0x40210304                at_setupCmdWps
                0x402103e0                at_airkiss_discover_set
                0x40210610                at_setupCmdStartDiscover
                0x402108a0                at_execCmdStopDiscover
 .irom0.text    0x4021091c      0xb54 ../lib/libat.a(uart.o)
                                0xd4c (size before relaxing)
                0x40210acc                at_uart_tx_data
                0x40210b68                at_port_send_str
                0x40210b68                at_port_print
                0x40210b90                at_register_response_func
                0x40210b98                at_response
                0x40210bbc                uart_init
                0x40210bf8                uart_reattach
                0x40210c1c                uart_set_rx_buf_state
                0x40210c9c                Uart_Buf_Init
                0x40210cfc                uart_buf_free
                0x40210d38                rx_buff_deq
                0x40210fec                tx_buff_enq
                0x4021102c                at_fake_uart_response_func_dummy
                0x4021103c                at_fake_uart_enable
                0x402110c4                set_tcp_block
                0x402110f0                clr_tcp_block
                0x4021111c                reset_tcp_block
                0x4021112c                create_tcp_block_counting
                0x40211158                UART_SetWordLength
                0x40211180                UART_SetStopBits
                0x402111ac                UART_SetLineInverse
                0x402111dc                UART_SetParity
                0x40211214                UART_SetBaudrate
                0x4021124c                UART_SetFlowCtrl
                0x4021131c                UART_CheckOutputFinished
                0x402113bc                UART_WaitTxFifoEmpty
                0x402113e0                UART_ResetFifo
                0x40211418                UART_ClearIntrStatus
                0x4021142c                UART_SetIntrEna
                0x4021144c                UART_SetPrintPort
 .irom0.text    0x40211470      0x33f ../lib/libat.a(at_init_para.o)
                                0x4af (size before relaxing)
                0x40211480                user_system_init_from_flash
 *fill*         0x402117af        0x1 
 .irom0.text    0x402117b0       0xfa ../lib/libphy.a(phy.o)
                                0x11e (size before relaxing)
                0x402117b4                rf_init
                0x402117d0                bb_init
                0x402117e8                phy_init
                0x40211818                RFChannelSel
                0x40211834                phy_delete_channel
                0x4021184c                phy_enable_agc
                0x40211864                phy_disable_agc
                0x4021187c                phy_initialize_bb
                0x40211894                phy_set_sense
 *fill*         0x402118aa        0x2 
 .irom0.text    0x402118ac     0x1763 ../lib/libphy.a(phy_chip_v6_ana.o)
                               0x1973 (size before relaxing)
                0x402118b0                ram_pbus_set_rxgain
                0x40211984                ram_pbus_debugmode
                0x40211a38                ram_pbus_xpd_tx_on
                0x40211aa4                set_rf_freq_offset
                0x40211b14                chip_v6_rxmax_ext_ana
                0x40211c68                ram_chip_v6_rx_init
                0x40211c98                tsen_meas
                0x40211d44                readvdd33
                0x40211f10                txpwr_offset
                0x40211fcc                set_txcap_reg
                0x4021204c                ram_ana_inf_gating_en
                0x402121ac                ram_restart_cal
                0x40212218                wait_rfpll_cal_end
                0x402122ac                ram_rfpll_set_freq
                0x402123b4                ram_set_channel_freq
                0x402126b0                chip_60_set_channel
                0x40212850                chip_v6_set_chan_offset
                0x402128b0                chip_v6_set_chan
                0x40212958                chip_v6_set_chan_wakeup
                0x402129dc                chip_v6_rf_init
                0x40212c40                low_power_set
                0x40212c90                test_tout
                0x40212e08                check_data_flag
                0x40212e28                phy_get_check_flag
                0x40212f5c                phy_get_vdd33
 *fill*         0x4021300f        0x1 
 .irom0.text    0x40213010     0x3e8c ../lib/libphy.a(phy_chip_v6.o)
                               0x453c (size before relaxing)
                0x40213010                ram_tx_mac_enable
                0x40213014                ram_tx_mac_disable
                0x40213018                rtc_mem_backup
                0x40213048                rtc_mem_recovery
                0x40213078                set_cal_rxdc
                0x4021312c                set_rx_gain_cal_iq
                0x40213484                gen_rx_gain_table
                0x402135dc                pbus_set_rxbbgain
                0x4021365c                set_rx_gain_testchip_50
                0x40213990                ram_get_corr_power
                0x40213a80                check_data_func
                0x40213aa0                do_noisefloor_lsleep_v50
                0x40213ad4                do_noisefloor
                0x40213b44                start_dig_rx
                0x40213b88                stop_dig_rx
                0x40213bb4                chip_v6_set_chanfreq
                0x40213be4                tx_cap_init
                0x40213dd0                target_power_add_backoff
                0x40213e00                tx_pwctrl_init_cal
                0x40213f78                tx_atten_set_interp
                0x402141d8                check_tx_pwr_cal
                0x4021431c                tx_pwctrl_init
                0x40214440                ram_get_noisefloor
                0x4021445c                get_noisefloor_sat
                0x4021448c                ram_set_noise_floor
                0x402144e8                ram_start_noisefloor
                0x40214534                read_hw_noisefloor
                0x40214560                noise_check_loop
                0x402146bc                noise_init
                0x402148bc                target_power_backoff
                0x40214910                sdt_on_noise_start
                0x40214990                chip_v6_set_chan_rx_cmp
                0x40214b1c                chip_v6_set_chan_misc
                0x40214bb0                phy_dig_spur_set
                0x40214f08                phy_dig_spur_prot
                0x40215140                chip_v6_rxmax_ext_dig
                0x4021518c                chip_v6_rxmax_ext
                0x40215234                phy_bb_rx_cfg
                0x4021564c                uart_wait_idle
                0x40215684                phy_pbus_soc_cfg
                0x4021573c                phy_gpio_cfg
                0x40215954                tx_cont_en
                0x402159fc                tx_cont_dis
                0x40215a50                tx_cont_cfg
                0x40215a74                chip_v6_initialize_bb
                0x40215be0                periodic_cal
                0x40215cc0                bbpll_cal
                0x40215d58                periodic_cal_top
                0x40215db8                register_chipv6_phy_init_param
                0x40216060                change_bbpll160_sleep
                0x40216210                change_bbpll160
                0x40216248                set_crystal_uart
                0x402162d8                ant_switch_init
                0x40216388                reduce_current_init
                0x40216474                rtc_mem_check
                0x402164b0                phy_afterwake_set_rfoption
                0x402164d0                deep_sleep_set_option
                0x402164fc                write_data_to_rtc
                0x40216534                get_data_from_rtc
                0x402165b4                register_chipv6_phy
                0x40216a50                set_dpd_bypass
                0x40216a78                set_rf_gain_stage10
                0x40216aa4                get_vdd33_offset
                0x40216b18                get_phy_target_power
                0x40216bcc                set_most_pwr_reg
                0x40216ca0                phy_set_most_tpw
                0x40216cc0                phy_vdd33_set_tpw
                0x40216cd8                get_adc_rand
                0x40216d0c                phy_get_rand
                0x40216d24                phy_tx_pwctrl_cali
                0x40216d4c                phy_check_data_table
                0x40216d88                phy_after_init_enrx
                0x40216dec                phy_set_rx11b_reg
                0x40216e20                phy_set_powerup_option
                0x40216e30                phy_get_txpwr_param
                0x40216e7c                phy_get_rxnf_param
                0x40216e88                phy_get_freq_param
 .irom0.text    0x40216e9c     0x2170 ../lib/libphy.a(phy_chip_v6_cal.o)
                               0x23a4 (size before relaxing)
                0x40216e9c                txbbgain2dcoindex
                0x40216ebc                dcoindex2txbbgain
                0x40216ee0                init_cal_dcoffset
                0x40216fa4                set_rfanagain_dc_reg
                0x40217040                set_txdc_pbus
                0x402170ac                get_rf_gain_qdb
                0x402170d4                correct_rf_ana_gain
                0x402171dc                get_sar_dout
                0x40217268                cal_rf_ana_gain
                0x40217394                meas_tone_pwr_db
                0x40217404                tx_pwr_backoff
                0x4021758c                get_fcc_1m2m_pwr_offset
                0x402175c8                ram_set_txbb_atten
                0x4021765c                txiq_get_mis_pwr
                0x40217700                txiq_cover
                0x4021791c                ram_rfcal_txiq
                0x40217b88                rc_cal
                0x40217d48                get_target_power_offset
                0x40217e50                get_pwctrl_correct
                0x40217ea8                tx_pwctrl_cal
                0x402181a4                tx_pwctrl_bg_init
                0x4021821c                tx_pwctrl_background
                0x402182d4                read_sar_dout
                0x40218338                ram_get_fm_sar_dout
                0x402183dc                ram_cal_tos_v60
                0x402185ac                ram_get_bb_atten
                0x402185dc                ram_rfcal_txcap
                0x402187a0                ram_rfcal_pwrctrl
                0x402189c8                ram_rxiq_get_mis
                0x40218b98                ram_rxiq_cover_mg_mp
                0x40218d3c                ram_rfcal_rxiq
                0x40218f48                dpd_scale_set
                0x40218f90                dpd_mem_write
 .irom0.text    0x4021900c      0xd96 ../lib/libphy.a(phy_sleep.o)
                                0xfc6 (size before relaxing)
                0x4021900c                pm_usec2rtc
                0x40219040                pm_rtc2usec
                0x4021904c                pm_set_sleep_cycles
                0x40219070                pm_sleep_opt
                0x402191b4                pm_wakeup_opt
                0x402191ec                get_chip_version
                0x4021922c                pm_sleep_opt_bb_off
                0x4021926c                pm_sleep_opt_bb_on
                0x402192b4                pm_set_pll_xtal_wait_time
                0x402192e0                pm_prepare_to_sleep
                0x402192e8                pm_sdio_nidle
                0x4021935c                chg_lslp_mem_opt_8266
                0x4021938c                pm_goto_sleep
                0x402194d8                pm_wait4wakeup
                0x40219514                pm_open_rf
                0x40219558                pm_sleep_set_mac
                0x402195dc                pm_set_wakeup_mac
                0x40219674                pm_check_mac_idle
                0x402196cc                pm_set_sleep_btco
                0x4021976c                pm_set_wakeup_btco
                0x40219884                pm_set_sleep_mode
                0x402199a0                pm_unmask_bt
                0x40219a08                pm_wakeup_init
                0x40219c48                sleep_opt_8266
                0x40219c68                sleep_opt_bb_on_8266
                0x40219ca0                sleep_reset_analog_rtcreg_8266
 *fill*         0x40219da2        0x2 
 .irom0.text    0x40219da4      0x465 ../lib/libpp.a(if_hwctrl.o)
                                0x581 (size before relaxing)
                0x40219dc4                ic_get_addr
                0x40219dd0                ic_set_opmode
                0x40219de4                ic_enable_interface
                0x40219e34                ic_interface_enabled
                0x40219e48                ic_disable_interface
                0x40219e90                ic_is_pure_sta
                0x40219eac                ic_get_ptk_alg
                0x40219ebc                ic_get_gtk_alg
                0x40219ecc                ic_set_ptk_alg
                0x40219edc                ic_set_gtk_alg
                0x40219eec                ic_interface_is_p2p
                0x40219f84                ic_set_vif
                0x4021a040                ic_set_sta
                0x4021a118                ic_bss_info_update
                0x4021a174                ic_set_key
                0x4021a1d0                ic_remove_key
                0x4021a1e4                ic_get_rssi
 *fill*         0x4021a209        0x3 
 .irom0.text    0x4021a20c      0x100 ../lib/libpp.a(lmac.o)
                                0x118 (size before relaxing)
                0x4021a210                lmacInitAc
                0x4021a244                lmacInit
                0x4021a2f0                lmacSetRetryLimit
 .irom0.text    0x4021a30c     0x19f1 ../lib/libpp.a(pm.o)
                               0x1f91 (size before relaxing)
                0x4021a314                pm_rtc_clock_cali_proc
                0x4021a34c                pm_get_ck170_period
                0x4021a370                pm_set_sleep_time
                0x4021a6f4                pm_rf_is_closed
                0x4021a720                pm_set_sleep_type_from_upper
                0x4021a810                pm_get_sleep_type
                0x4021a9cc                uart_tx_flush
                0x4021a9d0                pm_suspend
                0x4021abf0                pm_shutdown
                0x4021acb8                pm_reset_idle_sleep
                0x4021acf8                pm_idle_sleep
                0x4021ad04                pm_open
                0x4021ade4                pm_onBcnRx
                0x4021b17c                StopLightSleepSetFunc
                0x4021b184                LightSleepWakedCbSetFunc
                0x4021b740                pm_enable_gpio_wakeup
                0x4021b778                pm_attach
                0x4021b86c                pm_send_nullfunc
                0x4021ba10                pm_is_waked
                0x4021ba28                pm_is_open
                0x4021ba40                pm_scan_lock
                0x4021ba68                pm_try_scan_unlock
                0x4021ba80                pm_force_scan_unlock
                0x4021bb20                pm_scan_unlocked
                0x4021bb34                pm_allow_tx
                0x4021bb50                pm_assoc_parse
                0x4021bb68                pm_set_addr
                0x4021bb88                pm_sleep_for
                0x4021bbb8                pm_post
                0x4021bcbc                pm_get_idle_wait_time
 *fill*         0x4021bcfd        0x3 
 .irom0.text    0x4021bd00      0xb48 ../lib/libpp.a(pm_for_bcn_only_mode.o)
                                0xf0c (size before relaxing)
                0x4021bd14                wifi_fpm_set_sleep_type
                0x4021bd14                fpm_set_type_from_upper
                0x4021bdd0                fpm_get_slp_type
                0x4021bdd0                wifi_fpm_get_sleep_type
                0x4021bdd8                fpm_rf_is_closed
                0x4021bdec                fpm_is_open
                0x4021bdf8                fpm_allow_tx
                0x4021be1c                fpm_close
                0x4021be1c                wifi_fpm_close
                0x4021be98                wifi_fpm_open
                0x4021be98                fpm_open
                0x4021bf00                fpm_attach
                0x4021c0e4                fpm_set_wakeup_cb
                0x4021c0e4                wifi_fpm_set_wakeup_cb
                0x4021c228                wifi_fpm_do_wakeup
                0x4021c228                fpm_do_wakeup
                0x4021c760                fpm_do_sleep
                0x4021c760                wifi_fpm_do_sleep
                0x4021c800                wifi_fpm_auto_sleep_set_in_null_mode
                0x4021c800                fpm_auto_sleep_set_in_null_mode
                0x4021c840                get_fpm_auto_sleep_flag
 .irom0.text    0x4021c848     0x15ba ../lib/libpp.a(pp.o)
                               0x19a2 (size before relaxing)
                0x4021c854                PPWdtReset
                0x4021c888                pp_soft_wdt_init
                0x4021c8a8                system_soft_wdt_feed
                0x4021c8a8                pp_soft_wdt_feed
                0x4021c8c4                pp_soft_wdt_stop
                0x4021c8c4                system_soft_wdt_stop
                0x4021c8f0                pp_soft_wdt_restart
                0x4021c8f0                system_soft_wdt_restart
                0x4021c928                RxNodeNum
                0x4021c940                TxNodeNum
                0x4021c964                pp_disable_noise_timer
                0x4021c984                pp_enable_noise_timer
                0x4021ca94                pp_noise_test
                0x4021caa4                reset_noise_timer
                0x4021cadc                pp_disable_idle_timer
                0x4021cb00                pp_enable_idle_timer
                0x4021cb28                pp_try_enable_idle_timer
                0x4021cb64                ppPeocessRxPktHdr
                0x4021ce98                HdlAllBuffedEb
                0x4021cf20                ppTxPkt
                0x4021d098                ppProcessWaitQ
                0x4021d0a8                ppRegisterTxCallback
                0x4021d0d0                ppUnregisterTxCallback
                0x4021d104                ppRecycleRxPkt
                0x4021d164                ppCheckTxIdle
                0x4021d3e0                pp_tx_idle_timeout
                0x4021d5a4                DefFreqCalTimerCB
                0x4021d920                ppGetTxQFirstAvail_Locked
                0x4021da00                pp_attach
 *fill*         0x4021de02        0x2 
 .irom0.text    0x4021de04      0x296 ../lib/libpp.a(rate_control.o)
                                0x2a2 (size before relaxing)
                0x4021e050                RC_SetBasicRate
 *fill*         0x4021e09a        0x2 
 .irom0.text    0x4021e09c      0x5e9 ../lib/libpp.a(trc.o)
                                0x64d (size before relaxing)
                0x4021e09c                phytype2mode
                0x4021e0b8                rc_set_rate_limit_id
                0x4021e1d4                rcUpdatePhyMode
                0x4021e3a0                rcAttach
                0x4021e3ec                rcGetTrc
                0x4021e3f4                trc_onDisconnect
                0x4021e3f8                trc_onScanStart
                0x4021e40c                trc_onScanDone
                0x4021e428                rc_enable_trc
                0x4021e500                rc_get_mask
                0x4021e514                rc_disable_trc
                0x4021e568                rc_disable_trc_by_interface
                0x4021e584                rc_get_sta_trc
                0x4021e5c8                rc_get_trc
                0x4021e638                rc_get_trc_by_index
                0x4021e658                rc_only_sta_trc
 *fill*         0x4021e685        0x3 
 .irom0.text    0x4021e688      0xaf7 ../lib/libpp.a(wdev.o)
                                0xc53 (size before relaxing)
                0x4021e694                wDev_Option_Init
                0x4021e788                wDev_Enable_Beacon_Tsf
                0x4021e7a4                wDev_Disable_Beacon_Tsf
                0x4021e7c0                wDev_Set_Beacon_Int
                0x4021e7c8                wDev_Reset_TBTT
                0x4021e7f8                wDev_Get_Next_TBTT
                0x4021ea74                wDev_Initialize
                0x4021eae4                wDevForceAck6M
                0x4021eb00                wDev_SetMacAddress
                0x4021eb9c                wDev_SetRxPolicy
                0x4021ebf0                wDev_SetBssid
                0x4021ecc8                wDev_ClearBssid
                0x4021ed00                wDev_Insert_KeyEntry
                0x4021edf4                wDev_remove_KeyEntry
                0x4021ee30                wDev_remove_KeyEntry_all_cnx
                0x4021ee80                wDev_Crypto_Conf
                0x4021ef1c                wDev_Crypto_Disable
                0x4021ef54                wDevEnableRx
                0x4021ef7c                wdev_go_sniffer
                0x4021f058                wdev_set_sniffer_addr
                0x4021f0b0                wdev_exit_sniffer
 *fill*         0x4021f17f        0x1 
 .irom0.text    0x4021f180      0x3ed ../lib/libpp.a(esf_buf.o)
                                0x4c1 (size before relaxing)
                0x4021f188                esf_buf_alloc
                0x4021f370                esf_buf_recycle
                0x4021f4b0                esf_buf_setup
 *fill*         0x4021f56d        0x3 
 .irom0.text    0x4021f570      0x475 ../lib/libnet80211.a(ieee80211.o)
                                0x545 (size before relaxing)
                0x4021f5f4                ieee80211_rate_ref_init
                0x4021f608                ieee80211_freedom_inside_cb
                0x4021f638                ieee80211_freedom_init
                0x4021f65c                ieee80211_user_ie_init
                0x4021f678                ieee80211_ifattach
                0x4021f6dc                ieee80211_mhz2ieee
                0x4021f738                ieee80211_chan2ieee
                0x4021f754                ieee80211_ieee2mhz
                0x4021f794                ieee80211_find_channel
                0x4021f7c0                ieee80211_find_channel_byieee
                0x4021f810                wifi_mode_set
 *fill*         0x4021f9e5        0x3 
 .irom0.text    0x4021f9e8       0xcf ../lib/libnet80211.a(ieee80211_crypto.o)
                                 0xd7 (size before relaxing)
                0x4021f9e8                ieee80211_crypto_attach
                0x4021f9ec                ieee80211_crypto_available
                0x4021f9f0                ieee80211_crypto_setkey
                0x4021f9f4                ieee80211_crypto_encap
                0x4021fa4c                ieee80211_crypto_decap
 *fill*         0x4021fab7        0x1 
 .irom0.text    0x4021fab8       0x4c ../lib/libnet80211.a(ieee80211_ets.o)
                                 0x50 (size before relaxing)
                0x4021fabc                ieee80211_getmgtframe
 .irom0.text    0x4021fb04     0x1a08 ../lib/libnet80211.a(ieee80211_hostap.o)
                               0x1f77 (size before relaxing)
                0x40220128                ieee80211_hostap_attach
                0x40220224                hostap_handle_timer
                0x402202bc                hostap_input
                0x40221208                wifi_softap_start
                0x40221374                wifi_softap_stop
 *fill*         0x4022150c        0x0 
 .irom0.text    0x4022150c      0xa7e ../lib/libnet80211.a(ieee80211_ht.o)
                                0xb4e (size before relaxing)
                0x4022151c                ieee80211_ht_attach
                0x40221570                ieee80211_ht_node_init
                0x402215b0                ieee80211_ht_node_cleanup
                0x402215e8                ieee80211_parse_htcap
                0x402216c8                ieee80211_ht_updateparams
                0x402217dc                ieee80211_setup_htrates
                0x402218a8                ieee80211_setup_basic_htrates
                0x40221bf4                ieee80211_add_htcap
                0x40221c10                ieee80211_add_htcap_vendor
                0x40221d34                ieee80211_add_htinfo
                0x40221d50                ieee80211_add_htinfo_vendor
 *fill*         0x40221f8a        0x2 
 .irom0.text    0x40221f8c      0xa8c ../lib/libnet80211.a(ieee80211_input.o)
                                0xb1c (size before relaxing)
                0x40221f8c                ieee80211_deliver_data
                0x40221fe0                ieee80211_decap
                0x402220e4                ieee80211_setup_rates
                0x40222154                ieee80211_alloc_challenge
                0x40222190                ieee80211_parse_beacon
                0x40222764                ieee80211_parse_wpa
                0x40222878                ieee80211_parse_rsn
                0x40222978                ieee80211_parse_action
                0x40222a14                ieee80211_setup_rateset
 .irom0.text    0x40222a18      0x2a6 ../lib/libnet80211.a(ieee80211_mesh_quick.o)
                                0x302 (size before relaxing)
                0x40222a24                ieee80211_mesh_quick_init
                0x40222a94                ieee80211_mesh_quick_deinit
                0x40222ac4                ieee80211_mesh_quick_set
                0x40222bc0                ieee80211_mesh_quick_get
                0x40222c8c                ieee80211_mesh_quick_ie_add
 *fill*         0x40222cbe        0x2 
 .irom0.text    0x40222cc0     0x1c56 ../lib/libnet80211.a(ieee80211_output.o)
                               0x1ff2 (size before relaxing)
                0x40222cc4                ieee80211_output_pbuf
                0x40222f34                ieee80211_send_setup
                0x40223068                ieee80211_mgmt_output
                0x4022314c                ieee80211_tx_mgt_cb
                0x40223150                ieee80211_send_nulldata
                0x402235c0                ieee80211_add_rates
                0x40223610                ieee80211_add_xrates
                0x402236e0                ieee80211_send_probereq
                0x402238f4                ieee80211_getcapinfo
                0x40223950                ieee80211_send_mgmt
                0x40223ef8                ieee80211_alloc_proberesp
                0x402240d0                ieee80211_send_proberesp
                0x40224218                ieee80211_alloc_deauth
                0x40224258                ieee80211_send_deauth
                0x40224394                ieee80211_freedom_output
                0x40224780                ieee80211_beacon_alloc
 *fill*         0x40224916        0x2 
 .irom0.text    0x40224918       0xe0 ../lib/libnet80211.a(ieee80211_phy.o)
                                0x108 (size before relaxing)
                0x40224918                ieee80211_phy_init
                0x4022494c                ieee80211_phy_type_get
                0x40224968                ieee80211_setup_ratetable
 .irom0.text    0x402249f8      0x1b6 ../lib/libnet80211.a(ieee80211_power.o)
                                0x1f2 (size before relaxing)
                0x402249f8                ieee80211_psq_init
                0x40224a18                ieee80211_psq_cleanup
                0x40224a20                ieee80211_set_tim
                0x40224a60                ieee80211_pwrsave
                0x40224ac8                pwrsave_flushq
                0x40224b78                ieee80211_node_pwrsave
 *fill*         0x40224bae        0x2 
 .irom0.text    0x40224bb0      0x101 ../lib/libnet80211.a(ieee80211_proto.o)
                                0x129 (size before relaxing)
                0x40224bb4                ieee80211_proto_attach
                0x40224bdc                ieee80211_set_shortslottime
                0x40224bf8                ieee80211_iserp_rateset
                0x40224c2c                ieee80211_wme_initparams
                0x40224c30                ieee80211_wme_updateparams
                0x40224c38                ieee80211_mlme_connect_bss
 *fill*         0x40224cb1        0x3 
 .irom0.text    0x40224cb4       0xaa ../lib/libnet80211.a(ieee80211_rfid.o)
                                 0xd6 (size before relaxing)
                0x40224cb4                ieee80211_rfid_locp_recv_open
                0x40224cec                ieee80211_rfid_locp_recv_close
                0x40224d04                ieee80211_rfid_locp_recv_reset
                0x40224d24                ieee80211_rfid_locp_recv
                0x40224d40                register_ieee80211_rfid_locp_recv_cb
                0x40224d54                unregister_ieee80211_rfid_locp_recv_cb
 *fill*         0x40224d5e        0x2 
 .irom0.text    0x40224d60      0xf4d ../lib/libnet80211.a(ieee80211_scan.o)
                               0x12a1 (size before relaxing)
                0x40224d6c                ieee80211_scan_attach
                0x40224e00                scan_start
                0x40224fc0                scan_pm_channel_op_cb
                0x40225160                scan_cancel
                0x402252bc                scan_add_bssid
                0x402252e0                scan_remove_bssid
                0x402252ec                scan_hidden_ssid
                0x402252f4                scan_add_probe_ssid
                0x40225348                scan_remove_probe_ssid
                0x40225484                scan_clear_channles
                0x402254f8                scan_set_desChan
                0x40225504                scan_get_type
                0x4022550c                cannel_scan_connect_state
                0x40225524                scan_connect_state
                0x4022556c                scan_check_hidden
                0x40225598                scan_profile_check
                0x4022593c                scan_parse_beacon
 *fill*         0x40225cad        0x3 
 .irom0.text    0x40225cb0     0x103e ../lib/libnet80211.a(ieee80211_sta.o)
                               0x12c1 (size before relaxing)
                0x40225d0c                sta_status_set
                0x40225d78                ieee80211_sta_new_state
                0x40226108                sta_input
                0x40226654                ieee80211_parse_wmeparams
                0x40226c44                wifi_station_start
                0x40226cb4                wifi_station_stop
 *fill*         0x40226cee        0x2 
 .irom0.text    0x40226cf0      0x29e ../lib/libnet80211.a(wl_chm.o)
                                0x31e (size before relaxing)
                0x40226cfc                chm_init
                0x40226d60                chm_acquire_lock
                0x40226da4                chm_release_lock
                0x40226db8                chm_start_op
                0x40226e5c                chm_end_op
                0x40226ea4                chm_cancel_op
                0x40226ed8                chm_return_home_channel
                0x40226f08                chm_set_current_channel
                0x40226f38                chm_freq2index
                0x40226f60                chm_check_same_channel
 *fill*         0x40226f8e        0x2 
 .irom0.text    0x40226f90     0x17d5 ../lib/libnet80211.a(wl_cnx.o)
                               0x1d4d (size before relaxing)
                0x40226f9c                cnx_attach
                0x40226fdc                cnx_sta_connect_led_timer_cb
                0x40227030                cnx_sta_connect_cmd
                0x402270ec                cnx_sta_scan_cmd
                0x40227354                cnx_connect_timeout
                0x402273d0                cnx_auth_timeout
                0x402273f4                cnx_assoc_timeout
                0x40227418                cnx_handshake_timeout
                0x40227458                cnx_start_handoff_cb
                0x402278c8                cnx_bss_alloc
                0x40227968                cnx_rc_search
                0x402279e8                cnx_add_rc
                0x40227a54                cnx_remove_all_rc
                0x40227aa0                cnx_remove_rc
                0x40227b70                cnx_rc_update_rssi
                0x40227bf8                cnx_rc_update_state_metric
                0x40227c64                cnx_rc_update_age
                0x40227c88                cnx_update_bss
                0x40227cbc                cnx_update_bss_more
                0x40227e98                cnx_sta_leave
                0x40228128                cnx_sta_associated
                0x40228230                cnx_node_alloc
                0x402282a4                cnx_node_remove
                0x40228330                cnx_node_search
                0x402283ac                cnx_node_leave
                0x402284ac                wifi_softap_staconnected_event_policy
                0x402284d4                wifi_softap_toomany_deny
                0x40228510                cnx_node_join
 *fill*         0x40228765        0x3 
 .irom0.text    0x40228768      0x16f ../lib/libnet80211.a(ieee80211_action.o)
                                0x193 (size before relaxing)
                0x40228778                ieee80211_send_action_register
                0x402287ac                ieee80211_send_action_unregister
                0x402287c0                ieee80211_send_action
                0x4022882c                ieee80211_recv_action_register
                0x40228860                ieee80211_recv_action_unregister
                0x40228874                ieee80211_recv_action
 *fill*         0x402288d7        0x1 
 .irom0.text    0x402288d8      0x479 ../lib/libnet80211.a(ieee80211_action_vendor.o)
                                0x505 (size before relaxing)
                0x402288dc                get_iav_key
                0x402288fc                register_ieee80211_action_vendor_get_key_cb
                0x40228910                unregister_ieee80211_action_vendor_get_key_cb
                0x40228924                ieee80211_add_action_vendor_spec_esp
                0x4022896c                ieee80211_alloc_action_vendor_spec
                0x40228a58                ieee80211_send_action_vendor_spec
                0x40228bec                ieee80211_recv_action_vendor_spec
                0x40228cf4                ieee80211_action_vendor_spec_attach
                0x40228d34                register_ieee80211_action_vendor_spec_cb
                0x40228d48                unregister_ieee80211_action_vendor_spec_cb
 *fill*         0x40228d51        0x3 
 .irom0.text    0x40228d54      0x15d ../lib/libnet80211.a(ieee80211_crypto_ccmp.o)
                                0x165 (size before relaxing)
 *fill*         0x40228eb1        0x3 
 .irom0.text    0x40228eb4      0x23d ../lib/libnet80211.a(ieee80211_ie_vendor.o)
                                0x25d (size before relaxing)
                0x40228eb8                ieee80211_add_ie_vendor_esp_head
                0x40228ef0                ieee80211_add_ie_vendor_esp_mesh_assoc
                0x40228f74                ieee80211_add_ie_vendor_esp_mesh_group
                0x40228fa4                ieee80211_add_ie_vendor_esp_simple_pair
                0x40228ff4                ieee80211_add_ie_vendor_esp_freq_annon
                0x4022902c                ieee80211_add_ie_vendor_esp_now
                0x40229064                ieee80211_add_ie_vendor_esp_ssid
                0x402290a4                ieee80211_add_ie_vendor_esp_manufacturer
 *fill*         0x402290f1        0x3 
 .irom0.text    0x402290f4     0x146a ../lib/liblwip.a(dhcp.o)
                               0x1666 (size before relaxing)
                0x40229370                dhcp_coarse_tmr
                0x402293bc                dhcp_fine_tmr
                0x40229614                dhcp_set_struct
                0x4022963c                dhcp_cleanup
                0x40229668                dhcp_start
                0x40229720                dhcp_inform
                0x402297cc                dhcp_network_changed
                0x40229814                dhcp_arp_reply
                0x40229b10                dhcp_renew
                0x40229e3c                dhcp_release
                0x40229efc                dhcp_stop
 *fill*         0x4022a55e        0x2 
 .irom0.text    0x4022a560      0xdd6 ../lib/liblwip.a(dhcpserver.o)
                               0x1006 (size before relaxing)
                0x4022a560                node_insert_to_list
                0x4022a598                node_remove_from_list
                0x4022aca0                dhcps_start
                0x4022ad08                dhcps_stop
                0x4022ad74                wifi_softap_set_dhcps_lease
                0x4022ae60                wifi_softap_get_dhcps_lease
                0x4022af00                dhcps_coarse_tmr
                0x4022af74                wifi_softap_set_dhcps_offer_option
                0x4022afb8                wifi_softap_set_dhcps_lease_time
                0x4022afe8                wifi_softap_reset_dhcps_lease_time
                0x4022b014                wifi_softap_get_dhcps_lease_time
                0x4022b01c                wifi_softap_dhcps_client_leave
                0x4022b0c4                wifi_softap_dhcps_client_update
 *fill*         0x4022b336        0x2 
 .irom0.text    0x4022b338      0x5cf ../lib/liblwip.a(dns.o)
                                0x68b (size before relaxing)
                0x4022b344                dns_init
                0x4022b384                dns_setserver
                0x4022b3a4                dns_getserver
                0x4022b3b8                dns_tmr
                0x4022b8b0                dns_gethostbyname
 *fill*         0x4022b907        0x1 
 .irom0.text    0x4022b908       0xc6 ../lib/liblwip.a(espconn_mdns.o)
                                 0xee (size before relaxing)
                0x4022b908                espconn_mdns_enable
                0x4022b91c                espconn_mdns_disable
                0x4022b930                espconn_mdns_set_hostname
                0x4022b944                espconn_mdns_get_hostname
                0x4022b958                espconn_mdns_set_servername
                0x4022b96c                espconn_mdns_get_servername
                0x4022b980                espconn_mdns_server_register
                0x4022b994                espconn_mdns_server_unregister
                0x4022b9a8                espconn_mdns_close
                0x4022b9bc                espconn_mdns_init
 *fill*         0x4022b9ce        0x2 
 .irom0.text    0x4022b9d0      0xa7a ../lib/liblwip.a(espconn.o)
                                0xb72 (size before relaxing)
                0x4022b9d0                espconn_copy_partial
                0x4022ba60                espconn_list_creat
                0x4022ba80                espconn_list_delete
                0x4022baa8                espconn_pbuf_create
                0x4022bac4                espconn_pbuf_delete
                0x4022baec                espconn_find_connection
                0x4022bba8                espconn_connect
                0x4022bc8c                espconn_create
                0x4022bcd4                espconn_sent
                0x4022bcd4                espconn_send
                0x4022bd98                espconn_sendto
                0x4022bde0                espconn_tcp_get_wnd
                0x4022be04                espconn_tcp_set_wnd
                0x4022be20                espconn_tcp_get_mss
                0x4022be28                espconn_tcp_get_max_con
                0x4022be38                espconn_tcp_set_max_con
                0x4022be50                espconn_tcp_get_max_retran
                0x4022be60                espconn_tcp_set_max_retran
                0x4022be78                espconn_tcp_get_max_syn
                0x4022be88                espconn_tcp_set_max_syn
                0x4022bea0                espconn_tcp_get_max_con_allow
                0x4022bec8                espconn_tcp_set_max_con_allow
                0x4022bef8                espconn_tcp_set_buf_count
                0x4022bf3c                espconn_regist_sentcb
                0x4022bf48                espconn_regist_write_finish
                0x4022bf60                espconn_regist_connectcb
                0x4022bf70                espconn_regist_recvcb
                0x4022bf7c                espconn_regist_reconcb
                0x4022bf8c                espconn_regist_disconcb
                0x4022bfa0                espconn_get_connection_info
                0x4022c068                espconn_accept
                0x4022c0ac                espconn_regist_time
                0x4022c0ec                espconn_disconnect
                0x4022c130                espconn_abort
                0x4022c178                espconn_get_packet_info
                0x4022c208                espconn_set_opt
                0x4022c260                espconn_clear_opt
                0x4022c2c0                espconn_set_keepalive
                0x4022c32c                espconn_get_keepalive
                0x4022c39c                espconn_delete
                0x4022c3e4                espconn_port
                0x4022c41c                espconn_gethostbyname
                0x4022c438                espconn_dns_setserver
 *fill*         0x4022c44a        0x2 
 .irom0.text    0x4022c44c      0xfd8 ../lib/liblwip.a(espconn_tcp.o)
                               0x1308 (size before relaxing)
                0x4022c534                espconn_kill_oldest_pcb
                0x4022c5b8                espconn_kill_pcb
                0x4022c634                espconn_find_current_pcb
                0x4022c6d0                espconn_tcp_memp_free
                0x4022c930                espconn_tcp_sent
                0x4022c9e8                espconn_tcp_disconnect
                0x4022ca90                espconn_recv_hold
                0x4022cad4                espconn_recv_unhold
                0x4022cbe0                espconn_tcp_write
                0x4022ce10                espconn_tcp_client
                0x4022d2c0                espconn_tcp_server
                0x4022d37c                espconn_tcp_delete
                0x4022d408                espconn_init
 .irom0.text    0x4022d424      0x4e7 ../lib/liblwip.a(espconn_udp.o)
                                0x63f (size before relaxing)
                0x4022d474                espconn_udp_sent
                0x4022d5dc                espconn_udp_sendto
                0x4022d830                espconn_udp_disconnect
                0x4022d86c                espconn_udp_server
                0x4022d8d4                espconn_igmp_leave
                0x4022d8f0                espconn_igmp_join
 *fill*         0x4022d90b        0x1 
 .irom0.text    0x4022d90c      0x8cf ../lib/liblwip.a(etharp.o)
                                0x9b7 (size before relaxing)
                0x4022d940                etharp_tmr
                0x4022db6c                etharp_cleanup_netif
                0x4022dba8                etharp_find_addr
                0x4022ddfc                etharp_output
                0x4022df10                etharp_query
                0x4022e140                etharp_request
                0x4022e164                ethernet_input
 *fill*         0x4022e1db        0x1 
 .irom0.text    0x4022e1dc      0x5f6 ../lib/liblwip.a(igmp.o)
                                0x68a (size before relaxing)
                0x4022e1e8                igmp_init
                0x4022e1f8                igmp_start
                0x4022e23c                igmp_stop
                0x4022e2a0                igmp_report_groups
                0x4022e2d0                igmp_lookfor_group
                0x4022e398                igmp_input
                0x4022e4e0                igmp_joingroup
                0x4022e588                igmp_leavegroup
                0x4022e62c                igmp_tmr
 *fill*         0x4022e7d2        0x2 
 .irom0.text    0x4022e7d4       0x40 ../lib/liblwip.a(init.o)
                                 0x60 (size before relaxing)
                0x4022e7d8                lwip_init
 .irom0.text    0x4022e814      0x37a ../lib/liblwip.a(ip_addr.o)
                                0x3a2 (size before relaxing)
                0x4022e814                ip4_addr_isbroadcast
                0x4022e840                ip4_addr_netmask_valid
                0x4022e880                ipaddr_addr
                0x4022e89c                ipaddr_aton
                0x4022eab8                ipaddr_ntoa
                0x4022eacc                ipaddr_ntoa_r
 *fill*         0x4022eb8e        0x2 
 .irom0.text    0x4022eb90      0x581 ../lib/liblwip.a(ip.o)
                                0x62d (size before relaxing)
                0x4022eb90                ip_route
                0x4022ec0c                ip_router
                0x4022ec88                ip_input
                0x4022eee0                ip_output_if
                0x4022eefc                ip_output_if_opt
                0x4022f0d8                ip_output
 *fill*         0x4022f111        0x3 
 .irom0.text    0x4022f114      0xf27 ../lib/liblwip.a(mdns.o)
                               0x1307 (size before relaxing)
                0x4022f118                getPcb
                0x4022fb4c                mdns_close
                0x4022fbe4                mdns_set_name
                0x4022fc00                mdns_enable
                0x4022fc24                mdns_disable
                0x4022fc48                mdns_get_hostname
                0x4022fc5c                mdns_set_hostname
                0x4022fcc8                mdns_set_servername
                0x4022fcf4                mdns_get_servername
                0x4022fd0c                mdns_server_unregister
                0x4022fd84                mdns_server_register
                0x4022fdd4                mdns_reg
                0x4022fe30                mdns_init
 *fill*         0x4023003b        0x1 
 .irom0.text    0x4023003c      0x27d ../lib/liblwip.a(netif.o)
                                0x2bd (size before relaxing)
                0x4023003c                netif_init
                0x40230044                netif_add
                0x402300ac                netif_set_addr
                0x402300d4                netif_remove
                0x40230130                netif_find
                0x4023016c                netif_set_ipaddr
                0x402301d4                netif_set_gw
                0x402301e4                netif_set_netmask
                0x402301f4                netif_set_default
                0x402301fc                netif_set_up
                0x40230238                netif_set_down
                0x4023025c                netif_set_link_up
                0x402302a8                netif_set_link_down
 *fill*         0x402302b9        0x3 
 .irom0.text    0x402302bc      0x68e ../lib/liblwip.a(pbuf.o)
                                0x6f6 (size before relaxing)
                0x402302bc                pbuf_free_ooseq_new
                0x40230314                pbuf_alloc
                0x40230474                pbuf_realloc
                0x402304bc                pbuf_header
                0x40230528                pbuf_free
                0x402305b4                pbuf_clen
                0x402305cc                pbuf_ref
                0x402305d8                pbuf_cat
                0x40230604                pbuf_chain
                0x40230620                pbuf_dechain
                0x4023065c                pbuf_copy
                0x40230700                pbuf_copy_partial
                0x40230780                pbuf_take
                0x402307e0                pbuf_coalesce
                0x40230814                pbuf_get_at
                0x4023083c                pbuf_memcmp
                0x402308a8                pbuf_memfind
                0x40230900                pbuf_strstr
 *fill*         0x4023094a        0x2 
 .irom0.text    0x4023094c      0x458 ../lib/liblwip.a(ping.o)
                                0x538 (size before relaxing)
                0x40230d30                ping_start
                0x40230d8c                ping_regist_recv
                0x40230d98                ping_regist_sent
 .irom0.text    0x40230da4      0x1f1 ../lib/liblwip.a(raw.o)
                                0x249 (size before relaxing)
                0x40230dac                raw_input
                0x40230e34                raw_bind
                0x40230e44                raw_connect
                0x40230e54                raw_recv
                0x40230e5c                raw_sendto
                0x40230ef8                raw_send
                0x40230f10                raw_remove
                0x40230f4c                raw_new
 *fill*         0x40230f95        0x3 
 .irom0.text    0x40230f98     0x157c ../lib/liblwip.a(tcp_in.o)
                               0x17c0 (size before relaxing)
                0x40230fa0                tcp_input
 .irom0.text    0x40232514      0xae7 ../lib/liblwip.a(tcp.o)
                                0xc23 (size before relaxing)
                0x40232518                tcp_tmr
                0x4023253c                tcp_close
                0x40232560                tcp_shutdown
                0x402325c0                tcp_abandon
                0x40232668                tcp_abort
                0x40232680                tcp_bind
                0x402326fc                tcp_listen_with_backlog
                0x402327bc                tcp_update_rcv_ann_wnd
                0x40232800                tcp_recved
                0x4023285c                tcp_connect
                0x40232968                tcp_slowtmr
                0x40232c10                tcp_fasttmr
                0x40232c8c                tcp_segs_free
                0x40232ca8                tcp_seg_free
                0x40232cd4                tcp_setprio
                0x40232cdc                tcp_seg_copy
                0x40232d20                tcp_recv_null
                0x40232dd4                tcp_alloc
                0x40232ebc                tcp_new
                0x40232ed0                tcp_arg
                0x40232ed4                tcp_recv
                0x40232edc                tcp_sent
                0x40232ee4                tcp_err
                0x40232eec                tcp_accept
                0x40232ef0                tcp_poll
                0x40232ef8                tcp_pcb_purge
                0x40232f4c                tcp_pcb_remove
                0x40232fb4                tcp_next_iss
                0x40232fc8                tcp_eff_send_mss
 *fill*         0x40232ffb        0x1 
 .irom0.text    0x40232ffc      0xee8 ../lib/liblwip.a(tcp_out.o)
                                0xfec (size before relaxing)
                0x402330f4                tcp_send_fin
                0x402332dc                tcp_write
                0x40233618                tcp_enqueue_flags
                0x402336fc                tcp_send_empty_ack
                0x40233790                tcp_output
                0x40233aa0                tcp_rst
                0x40233be0                tcp_rexmit_rto
                0x40233c1c                tcp_rexmit
                0x40233cc8                tcp_rexmit_fast
                0x40233d20                tcp_keepalive
                0x40233da0                tcp_zero_window_probe
 .irom0.text    0x40233ee4      0x2c7 ../lib/liblwip.a(timers.o)
                                0x357 (size before relaxing)
                0x40233f24                tcp_timer_needed
                0x40233fac                sys_timeouts_init
                0x40234014                sys_timeout
                0x40234090                sys_untimeout
                0x402340e0                sys_check_timeouts
                0x4023419c                sys_restart_timeouts
 *fill*         0x402341ab        0x1 
 .irom0.text    0x402341ac      0x56f ../lib/liblwip.a(udp.o)
                                0x62b (size before relaxing)
                0x402341b0                udp_input
                0x40234408                udp_send
                0x4023441c                udp_sendto
                0x40234468                udp_sendto_if
                0x402345ac                udp_bind
                0x40234628                udp_connect
                0x40234684                udp_disconnect
                0x4023469c                udp_recv
                0x402346a8                udp_remove
                0x402346e4                udp_new
 *fill*         0x4023471b        0x1 
 .irom0.text    0x4023471c      0x26e ../lib/liblwip.a(icmp.o)
                                0x312 (size before relaxing)
                0x40234720                icmp_input
                0x402348cc                icmp_dest_unreach
 *fill*         0x4023498a        0x2 
 .irom0.text    0x4023498c      0x2a6 ../lib/libwpa.a(ap_config.o)
                                0x2ee (size before relaxing)
                0x4023498c                hostapd_config_defaults_bss
                0x402349d8                hostapd_config_defaults
                0x40234a5c                hostapd_mac_comp
                0x40234a70                hostapd_mac_comp_empty
                0x40234adc                hostapd_setup_wpa_psk
                0x40234b0c                hostapd_wep_key_cmp
                0x40234b5c                hostapd_maclist_found
                0x40234bc4                hostapd_rate_found
                0x40234be0                hostapd_get_psk
 *fill*         0x40234c32        0x2 
 .irom0.text    0x40234c34      0x2b6 ../lib/libwpa.a(common.o)
                                0x302 (size before relaxing)
                0x40234c34                inc_byte_array
                0x40234c88                hex2byte
                0x40234cbc                hexstr2bin
                0x40234d08                wpa_get_ntp_timestamp
                0x40234da0                wpa_config_parse_string
                0x40234ea4                dup_binstr
 *fill*         0x40234eea        0x2 
 .irom0.text    0x40234eec       0xcc ../lib/libwpa.a(os_xtensa.o)
                                 0xdc (size before relaxing)
                0x40234ef0                ets_strdup
                0x40234f34                os_get_time
                0x40234f38                r_rand
                0x40234f4c                os_random
                0x40234f5c                os_get_random
 .irom0.text    0x40234fb8     0x1c86 ../lib/libwpa.a(wpa_auth.o)
                               0x1f66 (size before relaxing)
                0x40235104                wpa_auth_for_each_sta
                0x40235284                wpa_init
                0x40235314                wpa_auth_sta_init
                0x4023535c                wpa_auth_sta_associated
                0x402353c8                wpa_auth_sta_no_wpa
                0x40235424                wpa_auth_sta_deinit
                0x402354f4                wpa_receive
                0x40235958                __wpa_send_eapol
                0x40235e7c                wpa_remove_ptk
                0x40235ec8                wpa_auth_sm_event
 *fill*         0x40236c3e        0x2 
 .irom0.text    0x40236c40      0x582 ../lib/libwpa.a(wpa_auth_ie.o)
                                0x5f6 (size before relaxing)
                0x40236d04                wpa_write_rsn_ie
                0x40236e10                wpa_auth_gen_wpa_ie
                0x40236ea0                wpa_add_kde
                0x40236f0c                wpa_validate_wpa_ie
                0x40237118                wpa_parse_kde_ies
                0x402371b4                wpa_auth_uses_mfp
 *fill*         0x402371c2        0x2 
 .irom0.text    0x402371c4     0x14fc ../lib/libwpa.a(wpa.o)
                               0x1708 (size before relaxing)
                0x4023815c                wpa_sm_rx_eapol
                0x402382d4                wpa_register
                0x40238300                wpa_set_profile
                0x40238318                wpa_set_pmk
                0x40238344                wpa_set_bss
                0x40238568                pp_michael_mic_failure
                0x4023860c                eapol_txcb
                0x40238698                wpa_sm_set_state
 .irom0.text    0x402386c0      0x76a ../lib/libwpa.a(wpa_common.o)
                                0x7fa (size before relaxing)
                0x40238808                wpa_parse_wpa_ie_rsn
                0x4023899c                wpa_parse_wpa_ie_wpa
                0x40238b2c                wpa_eapol_key_mic
                0x40238b6c                wpa_compare_rsn_ie
                0x40238b94                wpa_pmk_to_ptk
                0x40238c84                rsn_pmkid
                0x40238ce0                wpa_cipher_key_len
                0x40238d04                wpa_cipher_to_alg
                0x40238d2c                wpa_cipher_to_suite
                0x40238d80                rsn_cipher_put_suites
                0x40238de0                wpa_cipher_put_suites
 *fill*         0x40238e2a        0x2 
 .irom0.text    0x40238e2c       0xa8 ../lib/libwpa.a(wpa_debug.o)
                                 0xac (size before relaxing)
                0x40238ea4                wpa_snprintf_hex_uppercase
                0x40238eb8                wpa_snprintf_hex
                0x40238ecc                eloop_cancel_timeout
                0x40238ed0                eloop_register_timeout
 .irom0.text    0x40238ed4      0x325 ../lib/libwpa.a(wpa_ie.o)
                                0x341 (size before relaxing)
                0x40238ed4                wpa_parse_wpa_ie
                0x40238fc8                wpa_supplicant_parse_ies
                0x402391c8                wpa_gen_wpa_ie
 *fill*         0x402391f9        0x3 
 .irom0.text    0x402391fc      0x430 ../lib/libwpa.a(wpa_main.o)
                                0x52c (size before relaxing)
                0x40239208                ppInstallKey
                0x40239398                wpa_config_profile
                0x402393cc                wpa_config_bss
                0x402393f8                wpa_config_assoc_ie
                0x4023940c                dhcp_bind_check
                0x40239450                eagle_auth_done
                0x402395cc                wpa_neg_complete
                0x402395f4                wpa_attach
 .irom0.text    0x4023962c       0xd6 ../lib/libwpa.a(wpas_glue.o)
                                 0xe2 (size before relaxing)
                0x4023969c                wpa_sm_alloc_eapol
                0x402396dc                wpa_sm_deauthenticate
                0x402396f8                wpa_sm_mlme_setprotection
                0x402396fc                wpa_sm_get_beacon_ie
                0x40239700                wpa_sm_disassociate
 *fill*         0x40239702        0x2 
 .irom0.text    0x40239704       0xdf ../lib/libcrypto.a(aes-wrap.o)
                                0x103 (size before relaxing)
                0x40239704                aes_wrap
 *fill*         0x402397e3        0x1 
 .irom0.text    0x402397e4      0x4c3 ../lib/libcrypto.a(aes-internal-enc.o)
                                0x4df (size before relaxing)
                0x402397f4                rijndaelEncrypt
                0x40239c10                aes_encrypt_init
                0x40239c64                aes_encrypt
                0x40239c7c                aes_encrypt_deinit
 *fill*         0x40239ca7        0x1 
 .irom0.text    0x40239ca8      0x304 ../lib/libcrypto.a(aes-internal.o)
                                0x31c (size before relaxing)
                0x40239cac                rijndaelKeySetupEnc
 .irom0.text    0x40239fac      0x365 ../lib/libssl.a(espconn_secure.o)
                                0x415 (size before relaxing)
                0x40239fac                espconn_secure_connect
                0x4023a074                espconn_secure_disconnect
                0x4023a09c                espconn_secure_sent
                0x4023a09c                espconn_secure_send
                0x4023a0e8                espconn_secure_accept
                0x4023a108                espconn_secure_set_size
                0x4023a13c                espconn_secure_get_size
                0x4023a174                espconn_secure_ca_enable
                0x4023a1a8                espconn_secure_ca_disable
                0x4023a1d0                espconn_secure_cert_req_enable
                0x4023a204                espconn_secure_cert_req_disable
                0x4023a234                espconn_secure_set_default_certificate
                0x4023a27c                espconn_secure_set_default_private_key
                0x4023a2c4                espconn_secure_delete
 *fill*         0x4023a311        0x3 
 .irom0.text    0x4023a314     0x14c8 ../lib/libssl.a(espconn_ssl.o)
                               0x190c (size before relaxing)
                0x4023a4b0                espconn_ssl_read
                0x4023a614                espconn_ssl_read_param_from_flash
                0x4023a914                espconn_ssl_sent
                0x4023a968                espconn_sent_packet
                0x4023af9c                espconn_ssl_disconnect
                0x4023afc4                espconn_ssl_client
                0x4023b678                espconn_ssl_server
                0x4023b73c                espconn_ssl_delete
 .irom0.text    0x4023b7dc      0x587 ../lib/libssl.a(ssl_loader.o)
                                0x687 (size before relaxing)
                0x4023b7e8                ssl_obj_load
                0x4023b878                ssl_obj_memory_load
                0x4023b918                ssl_obj_free
                0x4023bcd0                load_key_certs
 *fill*         0x4023bd63        0x1 
 .irom0.text    0x4023bd64      0x9f2 ../lib/libssl.a(ssl_md5.o)
                                0x9fa (size before relaxing)
                0x4023bd74                MD5_Init
                0x4023bd90                MD5_Update
                0x4023be34                MD5_Final
 *fill*         0x4023c756        0x2 
 .irom0.text    0x4023c758      0x469 ../lib/libssl.a(ssl_tls1_clnt.o)
                                0x4e9 (size before relaxing)
                0x4023c758                SSLClient_new
                0x4023c7c8                do_clnt_handshake
                0x4023c89c                do_client_connect
 *fill*         0x4023cbc1        0x3 
 .irom0.text    0x4023cbc4     0x19b3 ../lib/libssl.a(ssl_tls1.o)
                               0x1c8f (size before relaxing)
                0x4023cbc8                ssl_ctx_new
                0x4023cc30                ssl_ctx_free
                0x4023ccc8                ssl_free
                0x4023cd30                ssl_read
                0x4023cd6c                ssl_write
                0x4023cdbc                add_cert
                0x4023ce64                add_cert_auth
                0x4023cee4                ssl_get_cert_dn
                0x4023cf18                ssl_get_cert_subject_alt_dnsname
                0x4023cf44                ssl_renegotiate
                0x4023cfa0                ssl_new_context
                0x4023d028                add_private_key
                0x4023d1b4                add_packet
                0x4023d3d0                generate_master_secret
                0x4023d494                finished_digest
                0x4023d684                send_packet
                0x4023d97c                basic_read
                0x4023dc24                send_change_cipher_spec
                0x4023dc80                send_finished
                0x4023dce4                send_alert
                0x4023dda0                process_finished
                0x4023de18                send_certificate
                0x4023dec0                disposable_new
                0x4023def4                disposable_free
                0x4023df3c                ssl_session_update
                0x4023e058                kill_ssl_session
                0x4023e080                ssl_get_session_id
                0x4023e088                ssl_get_session_id_size
                0x4023e090                ssl_get_cipher_id
                0x4023e098                ssl_handshake_status
                0x4023e0a0                ssl_get_config
                0x4023e0bc                ssl_verify_cert
                0x4023e0dc                process_certificate
                0x4023e1c8                DISPLAY_STATE
                0x4023e248                DISPLAY_RSA
                0x4023e264                DISPLAY_BYTES
                0x4023e2b8                ssl_display_error
                0x4023e484                DISPLAY_ALERT
                0x4023e570                ssl_version
 *fill*         0x4023e577        0x1 
 .irom0.text    0x4023e578      0x464 ../lib/libssl.a(ssl_tls1_svr.o)
                                0x4e4 (size before relaxing)
                0x4023e578                sslserver_new
                0x4023e590                do_svr_handshake
 .irom0.text    0x4023e9dc      0x7fe ../lib/libssl.a(ssl_x509.o)
                                0x9b6 (size before relaxing)
                0x4023ea38                x509_new
                0x4023ee18                x509_free
                0x4023efa8                x509_verify
                0x4023f128                x509_print
                0x4023f16c                x509_display_error
 *fill*         0x4023f1da        0x2 
 .irom0.text    0x4023f1dc     0x292e ../lib/libssl.a(sha256.o)
                               0x293a (size before relaxing)
                0x4023f1fc                SHA256_Init
                0x4024190c                SHA256_Update
                0x402419ac                SHA256_Final
 *fill*         0x40241b0a        0x2 
 .irom0.text    0x40241b0c       0xe2 ../lib/libssl.a(sha384.o)
                                 0xee (size before relaxing)
                0x40241b4c                SHA384_Init
                0x40241bac                SHA384_Update
                0x40241bc0                SHA384_Final
 *fill*         0x40241bee        0x2 
 .irom0.text    0x40241bf0      0x592 ../lib/libssl.a(sha512.o)
                                0x5c2 (size before relaxing)
                0x40241c10                SHA512_Init
                0x40242008                SHA512_Update
                0x4024208c                SHA512_Final
 *fill*         0x40242182        0x2 
 .irom0.text    0x40242184      0x8e5 ../lib/libssl.a(ssl_aes.o)
                                0x925 (size before relaxing)
                0x402421a4                AES_set_key
                0x40242320                AES_convert_key
                0x402423cc                AES_cbc_encrypt
                0x4024253c                AES_cbc_decrypt
 *fill*         0x40242a69        0x3 
 .irom0.text    0x40242a6c      0xab7 ../lib/libssl.a(ssl_asn1.o)
                                0xb67 (size before relaxing)
                0x40242a6c                get_asn1_length
                0x40242ab4                asn1_next_obj
                0x40242ad8                asn1_skip_obj
                0x40242b10                asn1_get_int
                0x40242b74                asn1_get_private_key
                0x40242f40                asn1_version
                0x40242f60                asn1_validity
                0x402430d4                asn1_name
                0x40243180                asn1_public_key
                0x4024321c                asn1_signature
                0x402432b0                remove_ca_certs
                0x40243300                asn1_compare_dn
                0x40243344                asn1_find_oid
                0x402433d8                asn1_find_subjectaltname
                0x4024341c                asn1_signature_type
 *fill*         0x40243523        0x1 
 .irom0.text    0x40243524     0x134b ../lib/libssl.a(ssl_bigint.o)
                               0x1403 (size before relaxing)
                0x40243528                bi_initialize
                0x40243578                bi_terminate
                0x402435b0                bi_clear_cache
                0x40243600                bi_copy
                0x40243624                bi_permanent
                0x40243644                bi_depermanent
                0x40243668                bi_free
                0x402436a4                int_to_bi
                0x402436c0                bi_clone
                0x402436f8                bi_add
                0x40243778                bi_subtract
                0x40243894                bi_divide
                0x40243ca4                bi_import
                0x40243d1c                bi_str_import
                0x40243da8                bi_print
                0x40243e20                bi_export
                0x40243ea0                bi_set_mod
                0x40243f20                bi_free_mod
                0x40244088                bi_multiply
                0x40244244                bi_square
                0x40244264                bi_compare
                0x4024448c                bi_barrett
                0x402445ec                bi_mod_power
                0x4024474c                bi_mod_power2
                0x402447e8                bi_crt
 *fill*         0x4024486f        0x1 
 .irom0.text    0x40244870      0x1a2 ../lib/libssl.a(ssl_crypto_misc.o)
                                0x1c2 (size before relaxing)
                0x40244874                get_file
                0x402448f0                RNG_initialize
                0x402448f4                RNG_custom_init
                0x402448f8                RNG_terminate
                0x402448fc                get_random
                0x40244918                get_random_NZ
                0x40244964                print_blob
                0x40244970                base64_decode
 *fill*         0x40244a12        0x2 
 .irom0.text    0x40244a14      0x1c2 ../lib/libssl.a(ssl_hmac.o)
                                0x252 (size before relaxing)
                0x40244a14                ssl_hmac_md5
                0x40244af8                ssl_hmac_sha1
 *fill*         0x40244bd6        0x2 
 .irom0.text    0x40244bd8      0x3ad ../lib/libssl.a(ssl_rsa.o)
                                0x4e5 (size before relaxing)
                0x40244bd8                RSA_priv_key_new
                0x40244c64                RSA_pub_key_new
                0x40244cd0                RSA_free
                0x40244d54                RSA_decrypt
                0x40244e58                RSA_private
                0x40244e88                RSA_print
                0x40244eb8                RSA_public
                0x40244ed8                RSA_encrypt
 *fill*         0x40244f85        0x3 
 .irom0.text    0x40244f88      0x354 ../lib/libssl.a(ssl_sha1.o)
                                0x368 (size before relaxing)
                0x40244f8c                SHA1_Init
                0x40244fb0                SHA1_Update
                0x40245004                SHA1_Final
 .irom0.text    0x402452dc     0x1811 ../lib/libwps.a(wps.o)
                               0x1d91 (size before relaxing)
                0x402452dc                show_buf
                0x402453ec                wps_sm_alloc_eapol
                0x40245444                wps_init
                0x4024558c                wps_deinit
                0x402455ec                wps_process_msg
                0x40245608                wps_get_msg
                0x40245624                wps_is_selected_pbc_registrar
                0x402456e0                wps_is_selected_pin_registrar
                0x40245708                wps_is_addr_authorized
                0x402457a8                wps_ap_priority_compar
                0x40245814                wps_get_uuid_e
                0x40245834                wps_is_20
                0x40245864                wps_build_assoc_req_ie
                0x402458dc                wps_build_assoc_resp_ie
                0x40245950                wps_build_probe_req_ie
                0x40245a64                wps_attr_text
                0x40245f04                wps_send_eap_identity_rsp
                0x40245f8c                wps_process_wps_mX_req
                0x40245ff0                wps_send_wps_mX_rsp
                0x402460c4                wps_txStart
                0x40246114                wps_start_pending
                0x4024613c                wps_sm_rx_eapol
                0x402462fc                wps_dev_init
                0x40246480                wps_dev_deinit
                0x402464f0                wifi_station_wps_timeout
                0x40246528                wifi_station_wps_success
                0x40246568                wifi_station_wps_init
                0x40246718                wifi_station_wps_deinit
                0x4024680c                wps_station_wps_register_cb
                0x40246820                wps_sm_get
                0x4024682c                wps_key_save
                0x402468b4                wifi_wps_scan_done
                0x402468ec                wifi_wps_scan
                0x40246928                wifi_station_wps_start
                0x4024697c                wifi_wps_enable
                0x402469f8                wifi_wps_disable
                0x40246a70                wifi_wps_start
                0x40246ac4                wifi_set_wps_cb
 *fill*         0x40246aed        0x3 
 .irom0.text    0x40246af0      0x859 ../lib/libwps.a(wps_common.o)
                                0x9d4 (size before relaxing)
                0x40246af0                wps_kdf
                0x40246bc0                wps_derive_keys
                0x40246cbc                wps_derive_psk
                0x40246d20                wps_decrypt_encr_settings
                0x40246dd0                wps_pin_checksum
                0x40246e38                wps_pin_valid
                0x40246e74                wps_generate_pin
                0x40246eac                wps_pin_str_valid
                0x40246ed8                wps_fail_event
                0x40246f20                wps_success_event
                0x40246f3c                wps_pwd_auth_fail_event
                0x40246f7c                wps_pbc_overlap_event
                0x40246f98                wps_pbc_timeout_event
                0x40246fb8                wps_dev_type_str2bin
                0x40247030                wps_dev_type_bin2str
                0x402470a8                uuid_gen_mac_addr
                0x40247154                wps_config_methods_str2bin
                0x4024727c                wps_build_wsc_ack
                0x402472dc                wps_build_wsc_nack
 *fill*         0x40247349        0x3 
 .irom0.text    0x4024734c      0x7ae ../lib/libwps.a(wps_dev_attr.o)
                                0x8e6 (size before relaxing)
                0x40247358                wps_build_manufacturer
                0x402473b0                wps_build_model_name
                0x40247408                wps_build_model_number
                0x402474b8                wps_build_primary_dev_type
                0x402474f8                wps_build_secondary_dev_type
                0x4024754c                wps_build_req_dev_type
                0x4024759c                wps_build_dev_name
                0x402475f0                wps_build_device_attrs
                0x40247648                wps_build_os_version
                0x402476ac                wps_build_vendor_ext_m1
                0x402476fc                wps_build_rf_bands
                0x40247740                wps_build_vendor_ext
                0x40247974                wps_process_device_attrs
                0x402479dc                wps_process_os_version
                0x40247a0c                wps_process_rf_bands
                0x40247a20                wps_device_data_dup
                0x40247a90                wps_device_data_free
 *fill*         0x40247afa        0x2 
 .irom0.text    0x40247afc     0x1458 ../lib/libwps.a(wps_enrollee.o)
                               0x1868 (size before relaxing)
                0x40248294                wps_enrollee_get_msg
                0x40248eb4                wps_enrollee_process_msg
 .irom0.text    0x40248f54     0x2c51 ../lib/libwps.a(wps_registrar.o)
                               0x3421 (size before relaxing)
                0x4024921c                wps_device_store
                0x402493e4                wps_registrar_pbc_overlap
                0x402496b4                wps_authorized_macs
                0x40249704                wps_registrar_init
                0x402497b0                wps_registrar_deinit
                0x4024982c                wps_registrar_add_pin
                0x40249a2c                wps_registrar_invalidate_pin
                0x40249b0c                wps_registrar_unlock_pin
                0x40249bb8                wps_registrar_button_pushed
                0x40249c74                wps_registrar_complete
                0x40249cd0                wps_registrar_wps_cancel
                0x40249d14                wps_registrar_probe_req_rx
                0x4024a4cc                wps_build_credential_wrap
                0x4024a530                wps_build_cred
                0x4024ac80                wps_registrar_get_msg
                0x4024b9a8                wps_registrar_process_msg
                0x4024ba30                wps_registrar_update_ie
                0x4024ba5c                wps_registrar_selected_registrar_changed
                0x4024bad0                wps_registrar_get_info
                0x4024bb5c                wps_registrar_config_ap
 *fill*         0x4024bba5        0x3 
 .irom0.text    0x4024bba8     0x1322 ../lib/libwps.a(wps_validate.o)
                               0x1386 (size before relaxing)
                0x4024c1a0                wps_validate_beacon
                0x4024c24c                wps_validate_beacon_probe_resp
                0x4024c370                wps_validate_probe_req
                0x4024c470                wps_validate_assoc_req
                0x4024c4bc                wps_validate_assoc_resp
                0x4024c508                wps_validate_m1
                0x4024c644                wps_validate_m2
                0x4024c774                wps_validate_m2d
                0x4024c880                wps_validate_m3
                0x4024c8f4                wps_validate_m4
                0x4024c978                wps_validate_m4_encr
                0x4024c9b8                wps_validate_m5
                0x4024ca24                wps_validate_m5_encr
                0x4024ca64                wps_validate_m6
                0x4024cad0                wps_validate_m6_encr
                0x4024cb10                wps_validate_m7
                0x4024cb88                wps_validate_m7_encr
                0x4024cc28                wps_validate_m8
                0x4024cc94                wps_validate_m8_encr
                0x4024cd20                wps_validate_wsc_ack
                0x4024cd80                wps_validate_wsc_nack
                0x4024cde8                wps_validate_wsc_done
                0x4024ce48                wps_validate_upnp_set_selected_registrar
 *fill*         0x4024ceca        0x2 
 .irom0.text    0x4024cecc      0x223 ../lib/libwps.a(eap_common.o)
                                0x253 (size before relaxing)
                0x4024ced0                eap_hdr_len_valid
                0x4024cf1c                eap_hdr_validate
                0x4024cfdc                eap_msg_alloc
                0x4024d090                eap_update_len
                0x4024d0b0                eap_get_id
                0x4024d0d0                eap_get_type
 *fill*         0x4024d0ef        0x1 
 .irom0.text    0x4024d0f0      0x111 ../lib/libwps.a(uuid.o)
                                0x135 (size before relaxing)
                0x4024d0f0                uuid_str2bin
                0x4024d170                uuid_bin2str
                0x4024d1ec                is_nil_uuid
 *fill*         0x4024d201        0x3 
 .irom0.text    0x4024d204      0x788 ../lib/libwps.a(wps_attr_build.o)
                                0x958 (size before relaxing)
                0x4024d218                wps_build_public_key
                0x4024d35c                wps_build_req_type
                0x4024d398                wps_build_resp_type
                0x4024d3d0                wps_build_config_methods
                0x4024d40c                wps_build_uuid_e
                0x4024d444                wps_build_dev_password_id
                0x4024d47c                wps_build_config_error
                0x4024d4b8                wps_build_authenticator
                0x4024d538                wps_build_version
                0x4024d56c                wps_build_wfa_ext
                0x4024d654                wps_build_msg_type
                0x4024d690                wps_build_enrollee_nonce
                0x4024d6d0                wps_build_registrar_nonce
                0x4024d710                wps_build_auth_type_flags
                0x4024d748                wps_build_encr_type_flags
                0x4024d780                wps_build_conn_type_flags
                0x4024d7b8                wps_build_assoc_state
                0x4024d7f0                wps_build_key_wrap_auth
                0x4024d84c                wps_build_encr_settings
                0x4024d8e0                wps_ie_encapsulate
 .irom0.text    0x4024d98c      0x56b ../lib/libwps.a(wps_attr_parse.o)
                                0x573 (size before relaxing)
                0x4024de78                wps_parse_msg
 *fill*         0x4024def7        0x1 
 .irom0.text    0x4024def8      0x31d ../lib/libwps.a(wps_attr_process.o)
                                0x33d (size before relaxing)
                0x4024def8                wps_process_authenticator
                0x4024df60                wps_process_key_wrap_auth
                0x4024e0f8                wps_process_cred
                0x4024e1a4                wps_process_ap_settings
 *fill*         0x4024e215        0x3 
 .irom0.text    0x4024e218      0x950 ../lib/libsmartconfig.a(sc_sniffer.o)
                                0xbe0 (size before relaxing)
                0x4024e228                sc_init_snif_glob
                0x4024e270                sc_free_snif_glob
                0x4024e2b0                sc_smartconfig_restart
                0x4024e2e4                sc_channel_timer_cb
                0x4024e3f0                sc_PackCallback
                0x4024e4cc                sc_wifi_scan_done
                0x4024e738                sc_system_init_done
                0x4024e780                smartconfig_start
                0x4024e888                smartconfig_stop
                0x4024ea2c                smartconfig_get_status
                0x4024eadc                smartconfig_get_version
                0x4024eaec                esptouch_set_timeout
                0x4024eb28                smartconfig_set_type
 .irom0.text    0x4024eb68     0x1adc ../lib/libsmartconfig.a(sc_airkiss.o)
                               0x1ed4 (size before relaxing)
                0x4024eb78                KISS_Init_guide_glob
                0x4024ebc8                KISS_Free_guide_glob
                0x4024ebf8                KISS_Init_Glob_Trans
                0x4024ec54                KISS_Init_Glob_Diret
                0x4024eca8                KISS_Free_Glob_Trans
                0x4024ecd0                KISS_Free_Glob_Diret
                0x4024ed84                KISS_Find_channel_end
                0x4024ef58                KISS_Find_channel_trans
                0x4024f344                KISS_Find_channel_direct
                0x4024f6d8                KISS_Find_channel
                0x4025040c                KISS_Deal_with
 .irom0.text    0x40250644     0x247a ../lib/libsmartconfig.a(sc_esptouch.o)
                               0x29e2 (size before relaxing)
                0x402506a0                TOUCH_Init_guide_glob
                0x40250738                TOUCH_Free_guide_glob
                0x40250790                TOUCH_Init_glob
                0x402507f0                TOUCH_Free_glob
                0x40250a74                TOUCH_Find_sync_ht20
                0x40251c00                TOUCH_Find_sync_ht40
                0x402527f0                TOUCH_Deal_with
 *fill*         0x40252abe        0x2 
 .irom0.text    0x40252ac0      0x1af ../lib/libwilddog.a(wilddog_common.o)
                                0x1df (size before relaxing)
                0x40252ac4                wmalloc
                0x40252b04                wfree
                0x40252b20                wrealloc
                0x40252b8c                _wilddog_atoi
                0x40252ba0                _wilddog_isUrlValid
                0x40252ba4                _wilddog_isAuthValid
                0x40252bac                _wilddog_setTimeIncrease
                0x40252bc0                _wilddog_getTime
                0x40252bd0                _wilddog_syncTime
                0x40252bf0                _wilddog_strchar
                0x40252c10                _wilddog_strstr
 *fill*         0x40252c6f        0x1 
 .irom0.text    0x40252c70      0x8c3 ../lib/libwilddog.a(wilddog_ct.o)
                                0xa07 (size before relaxing)
                0x40253138                _wilddog_ct_getOnlineStatus
                0x40253140                _wilddog_ct_setOnlineStatus
                0x4025314c                _wilddog_ct_getRepoHead
                0x40253154                _wilddog_ct_getRepoNum
                0x40253170                _wilddog_ct_findRepo
                0x4025350c                _wilddog_ct_ioctl
 *fill*         0x40253533        0x1 
 .irom0.text    0x40253534      0x31b ../lib/libwilddog.a(wilddog_espressif.o)
                                0x3db (size before relaxing)
                0x4025354c                dns_found
                0x40253660                gethost
                0x4025369c                wilddog_gethostbyname
                0x402536e4                wilddog_openSocket
                0x40253750                wilddog_closeSocket
                0x4025376c                wilddog_send
                0x402537b4                wilddog_receive
 *fill*         0x4025384f        0x1 
 .irom0.text    0x40253850      0xa5f ../lib/libwilddog.a(wilddog_node.o)
                                0xb63 (size before relaxing)
                0x40253858                _wilddog_node_new
                0x4025389c                _isKeyValid
                0x402539c0                _wilddog_node_setKey
                0x40253a6c                wilddog_node_setValue
                0x40253b20                wilddog_node_getValue
                0x40253b50                _wilddog_node_free
                0x40253bd4                wilddog_node_find
                0x40253ca4                wilddog_node_delete
                0x40253cfc                wilddog_node_addChild
                0x40253dc0                wilddog_node_deleteChildren
                0x40253fc8                wilddog_node_createFalse
                0x40253fec                wilddog_node_createTrue
                0x40254014                wilddog_node_createNull
                0x4025403c                wilddog_node_createNum
                0x40254090                wilddog_node_createFloat
                0x402540ec                wilddog_node_createBString
                0x40254154                wilddog_node_createUString
                0x402541c4                wilddog_node_createObject
                0x402541f4                wilddog_node_clone
 *fill*         0x402542af        0x1 
 .irom0.text    0x402542b0      0x22d ../lib/libwilddog.a(wilddog_store.o)
                                0x26d (size before relaxing)
                0x40254424                _wilddog_store_init
                0x40254490                _wilddog_store_deinit
 *fill*         0x402544dd        0x3 
 .irom0.text    0x402544e0      0x963 ../lib/libwilddog.a(wilddog_url_parser.o)
                                0xaa3 (size before relaxing)
                0x402544e0                parsed_url_free
                0x40254554                parse_url
                0x40254944                _wilddogurl_checkPath
                0x40254a48                _wilddog_url_freeParsedUrl
                0x40254a94                _wilddog_url_parseUrl
                0x40254bd4                _wilddog_url_diff
                0x40254c18                _wilddog_url_getKey
                0x40254c90                _wilddog_url_getPath
 *fill*         0x40254e43        0x1 
 .irom0.text    0x40254e44     0x11ed ../lib/libwilddog.a(wilddog_conn.o)
                               0x1689 (size before relaxing)
                0x40255028                _wilddog_conn_deinit
                0x40255060                _wilddog_conn_init
 *fill*         0x40256031        0x3 
 .irom0.text    0x40256034      0x7a0 ../lib/libwilddog.a(wilddog_conn_coap.o)
                                0x8d0 (size before relaxing)
                0x40256034                _wilddog_coap_send
                0x40256058                _wilddog_coap_midTokenModify
                0x40256154                _wilddog_coap_init
                0x4025641c                _wilddog_coap_code2Http
                0x40256444                _wilddog_recv_getOptionValue
                0x402564a8                _wilddog_recv_path_alloc
                0x40256580                _wilddog_recv_dispatch
                0x40256654                _wilddog_coap_receive
                0x402567b0                _wilddog_protocol_ioctl
 .irom0.text    0x402567d4     0x156d ../lib/libwilddog.a(wilddog_conn_manage.o)
                               0x18f9 (size before relaxing)
                0x40256afc                _wilddog_cm_cmd_deInit
                0x402576dc                _wilddog_cm_cmd_init
                0x40257d1c                _wilddog_cm_ioctl
 *fill*         0x40257d41        0x3 
 .irom0.text    0x40257d44      0x77d ../lib/libwilddog.a(wilddog_event.o)
                                0x8b9 (size before relaxing)
                0x40257e2c                _wilddog_event_nodeAdd
                0x4025808c                _wilddog_event_nodeDelete
                0x40258300                _wilddog_event_pathRelative
                0x4025836c                _wilddog_event_trigger
                0x40258438                _wilddog_event_init
                0x40258480                _wilddog_event_deinit
 *fill*         0x402584c1        0x3 
 .irom0.text    0x402584c4       0xaf ../lib/libwilddog.a(wilddog_nosec.o)
                                 0xeb (size before relaxing)
                0x402584cc                _wilddog_sec_send
                0x40258508                _wilddog_sec_recv
                0x4025852c                _wilddog_sec_init
                0x40258558                _wilddog_sec_deinit
 *fill*         0x40258573        0x1 
 .irom0.text    0x40258574       0x94 ../lib/libwilddog.a(wilddog_sec_host.o)
                                 0xa4 (size before relaxing)
                0x40258580                _wilddog_sec_getHost
 .irom0.text    0x40258608      0x733 ../lib/libwilddog.a(option.o)
                                0x7c7 (size before relaxing)
                0x40258608                options_start
                0x4025864c                coap_opt_parse
                0x402587f0                coap_option_iterator_init
                0x402588d8                coap_option_next
                0x402589b8                coap_check_option
                0x40258a10                coap_opt_delta
                0x40258a58                coap_opt_length
                0x40258ae0                coap_opt_value
                0x40258b58                coap_opt_size
                0x40258b78                coap_opt_setheader
                0x40258cb4                coap_opt_encode
 *fill*         0x40258d3b        0x1 
 .irom0.text    0x40258d3c      0x797 ../lib/libwilddog.a(pdu.o)
                                0x877 (size before relaxing)
                0x40258d44                coap_pdu_clear
                0x40258da0                coap_pdu_init
                0x40258e28                coap_new_pdu
                0x40258e44                coap_delete_pdu
                0x40258e54                coap_add_token
                0x40258ec0                coap_add_option
                0x40258f30                coap_add_option_later
                0x40258fac                coap_add_data
                0x40259034                coap_get_data
                0x402590d4                coap_pdu_parse
                0x402592ac                print_readable
                0x4025939c                coap_show_pdu
 *fill*         0x402594d3        0x1 
 .irom0.text    0x402594d4     0x1023 ../lib/libwilddog.a(wilddog_cbor.o)
                               0x1217 (size before relaxing)
                0x4025a27c                _wilddog_cbor2Node
                0x4025a3d4                _wilddog_node2Cbor
                0x4025a4d8                _wilddog_node2Payload
                0x4025a4e8                _wilddog_payload2Node
 *fill*         0x4025a4f7        0x1 
 .irom0.literal
                0x4025a4f8       0x24 ../lib/libairkiss.a(airlink.o)
                                 0x38 (size before relaxing)
 .irom0.text    0x4025a51c      0x279 ../lib/libairkiss.a(airlink.o)
                0x4025a530                airkiss_lan_recv
                0x4025a600                airkiss_lan_pack
 *fill*         0x4025a795        0x3 
 .irom0.text    0x4025a798      0x18b ../lib/libnet80211.a(ieee80211_crypto_tkip.o)
                                0x197 (size before relaxing)
 *fill*         0x4025a923        0x1 
 .irom0.text    0x4025a924       0x78 ../lib/libnet80211.a(ieee80211_crypto_wep.o)
                                 0x7c (size before relaxing)
 .irom0.text    0x4025a99c      0x308 ../lib/libwpa.a(wpabuf.o)
                                0x350 (size before relaxing)
                0x4025a9c0                wpabuf_resize
                0x4025aa58                wpabuf_alloc
                0x4025aa84                wpabuf_alloc_ext_data
                0x4025aab8                wpabuf_alloc_copy
                0x4025aae8                wpabuf_dup
                0x4025ab18                wpabuf_free
                0x4025ab4c                wpabuf_put
                0x4025ab8c                wpabuf_concat
                0x4025abe4                wpabuf_zeropad
                0x4025ac40                wpabuf_printf
 .irom0.text    0x4025aca4      0x12c ../lib/libcrypto.a(aes-cbc.o)
                                0x160 (size before relaxing)
                0x4025aca4                aes_128_cbc_encrypt
                0x4025ad34                aes_128_cbc_decrypt
 .irom0.text    0x4025add0      0x57f ../lib/libcrypto.a(aes-internal-dec.o)
                                0x5a3 (size before relaxing)
                0x4025aeb0                aes_decrypt_init
                0x4025b30c                aes_decrypt
                0x4025b324                aes_decrypt_deinit
 *fill*         0x4025b34f        0x1 
 .irom0.text    0x4025b350       0x4e ../lib/libcrypto.a(dh_group5.o)
                                 0x66 (size before relaxing)
                0x4025b350                dh5_init
                0x4025b37c                dh5_derive_shared
                0x4025b39c                dh5_free
 *fill*         0x4025b39e        0x2 
 .irom0.text    0x4025b3a0      0x152 ../lib/libcrypto.a(dh_groups.o)
                                0x1b2 (size before relaxing)
                0x4025b3a4                dh_groups_get
                0x4025b3b8                dh_init
                0x4025b470                dh_derive_shared
 *fill*         0x4025b4f2        0x2 
 .irom0.text    0x4025b4f4      0x20e ../lib/libcrypto.a(sha256.o)
                                0x232 (size before relaxing)
                0x4025b4f4                hmac_sha256_vector
                0x4025b620                hmac_sha256
                0x4025b640                sha256_prf
 *fill*         0x4025b702        0x2 
 .irom0.text    0x4025b704      0x3a7 ../lib/libcrypto.a(sha256-internal.o)
                                0x3cb (size before relaxing)
                0x4025b704                sha256_vector
 *fill*         0x4025baab        0x1 
 .irom0.text    0x4025baac       0xa5 ../lib/libcrypto.a(crypto_internal-modexp.o)
                                 0xfd (size before relaxing)
                0x4025baac                crypto_mod_exp
 *fill*         0x4025bb51        0x3 
 .irom0.text    0x4025bb54     0x1968 ../lib/libcrypto.a(bignum.o)
                               0x1a04 (size before relaxing)
                0x4025d358                bignum_init
                0x4025d394                bignum_deinit
                0x4025d3b8                bignum_get_unsigned_bin_len
                0x4025d3c8                bignum_get_unsigned_bin
                0x4025d40c                bignum_set_unsigned_bin
                0x4025d424                bignum_cmp
                0x4025d434                bignum_cmp_d
                0x4025d444                bignum_add
                0x4025d45c                bignum_sub
                0x4025d474                bignum_mul
                0x4025d48c                bignum_mulmod
                0x4025d4a4                bignum_exptmod
 .irom0.literal
                0x4025d4bc        0x0 ../lib/libmain.a(app_main.o)
 *fill*         0x4025d4bc        0x4 
 .irom.text     0x4025d4c0      0x4c0 ../lib/libmain.a(app_main.o)
 .irom0.literal
                0x4025d980        0x0 ../lib/libmain.a(ets_timer.o)
 *fill*         0x4025d980        0x0 
 .irom.text     0x4025d980      0x14c ../lib/libmain.a(ets_timer.o)
 .irom0.literal
                0x4025dacc        0x0 ../lib/libmain.a(mem_manager.o)
 *fill*         0x4025dacc        0x4 
 .irom.text     0x4025dad0       0x11 ../lib/libmain.a(mem_manager.o)
 *fill*         0x4025dae1        0x3 
 .irom0.literal
                0x4025dae4        0x0 ../lib/libmain.a(spi_flash.o)
 *fill*         0x4025dae4        0xc 
 .irom.text     0x4025daf0       0x5b ../lib/libmain.a(spi_flash.o)
 *fill*         0x4025db4b        0x1 
 .irom0.literal
                0x4025db4c        0x0 ../lib/libmain.a(user_interface.o)
 *fill*         0x4025db4c        0x4 
 .irom.text     0x4025db50      0x2d5 ../lib/libmain.a(user_interface.o)
                0x4025db70                default_ssid
 *fill*         0x4025de25        0x3 
 .irom0.literal
                0x4025de28        0x0 ../lib/libmain.a(eagle_lib.o)
 .irom0.literal
                0x4025de28        0x0 ../lib/libmain.a(eagle_lwip_if.o)
 *fill*         0x4025de28        0x8 
 .irom.text     0x4025de30       0x63 ../lib/libmain.a(eagle_lwip_if.o)
 *fill*         0x4025de93        0x1 
 .irom0.literal
                0x4025de94        0x0 user/.output/eagle/debug/lib/libuser.a(AtCmd_Drv.o)
 *fill*         0x4025de94        0x0 
 .irom0.literal
                0x4025de94        0x0 user/.output/eagle/debug/lib/libuser.a(AirKiss_Drv.o)
 *fill*         0x4025de94        0x0 
 .irom0.literal
                0x4025de94        0x0 user/.output/eagle/debug/lib/libuser.a(user_tcpclient.o)
 *fill*         0x4025de94        0x0 
 .irom0.literal
                0x4025de94        0x0 user/.output/eagle/debug/lib/libuser.a(WildDog_Drv.o)
 *fill*         0x4025de94        0x0 
 .irom0.literal
                0x4025de94        0x0 user/.output/eagle/debug/lib/libuser.a(GlobalFunc.o)
 .irom0.literal
                0x4025de94        0x0 user/.output/eagle/debug/lib/libuser.a(GizCmdTest.o)
 *fill*         0x4025de94        0x0 
 .irom0.literal
                0x4025de94        0x0 user/.output/eagle/debug/lib/libuser.a(WDJson_Drv.o)
 *fill*         0x4025de94        0x0 
 .irom0.literal
                0x4025de94        0x0 user/.output/eagle/debug/lib/libuser.a(Serial_Drv.o)
 .irom0.literal
                0x4025de94        0x0 user/.output/eagle/debug/lib/libuser.a(SensorInterface.o)
 *fill*         0x4025de94        0x0 
 .irom0.literal
                0x4025de94        0x0 user/.output/eagle/debug/lib/libuser.a(WifiInterface.o)
 .irom0.literal
                0x4025de94        0x0 ../lib/libat.a(at_baseCmd.o)
 *fill*         0x4025de94        0xc 
 .irom.text     0x4025dea0        0xd ../lib/libat.a(at_baseCmd.o)
 *fill*         0x4025dead        0x3 
 .irom0.literal
                0x4025deb0        0x0 ../lib/libat.a(at_cmd.o)
 *fill*         0x4025deb0        0x0 
 .irom.text     0x4025deb0      0x6a8 ../lib/libat.a(at_cmd.o)
                0x4025deb0                at_fun
 .irom0.literal
                0x4025e558        0x0 ../lib/libat.a(at_ipCmd.o)
 *fill*         0x4025e558        0x8 
 .irom.text     0x4025e560      0x1d9 ../lib/libat.a(at_ipCmd.o)
 *fill*         0x4025e739        0x3 
 .irom0.literal
                0x4025e73c        0x0 ../lib/libat.a(at_nv_data.o)
 *fill*         0x4025e73c        0x4 
 .irom.text     0x4025e740        0xd ../lib/libat.a(at_nv_data.o)
 *fill*         0x4025e74d        0x3 
 .irom0.literal
                0x4025e750        0x0 ../lib/libat.a(at_port.o)
 *fill*         0x4025e750        0x0 
 .irom.text     0x4025e750        0xa ../lib/libat.a(at_port.o)
 *fill*         0x4025e75a        0x2 
 .irom0.literal
                0x4025e75c        0x0 ../lib/libat.a(at_wifiCmd.o)
 *fill*         0x4025e75c        0x4 
 .irom.text     0x4025e760       0xc9 ../lib/libat.a(at_wifiCmd.o)
 *fill*         0x4025e829        0x3 
 .irom0.literal
                0x4025e82c        0x0 ../lib/libat.a(uart.o)
 *fill*         0x4025e82c        0x4 
 .irom.text     0x4025e830       0x83 ../lib/libat.a(uart.o)
 *fill*         0x4025e8b3        0x1 
 .irom0.literal
                0x4025e8b4        0x0 ../lib/libat.a(at_init_para.o)
 *fill*         0x4025e8b4        0xc 
 .irom.text     0x4025e8c0        0xf ../lib/libat.a(at_init_para.o)
 *fill*         0x4025e8cf        0x1 
 .irom0.literal
                0x4025e8d0        0x0 ../lib/libphy.a(phy.o)
 *fill*         0x4025e8d0        0x0 
 .irom0.literal
                0x4025e8d0        0x0 ../lib/libphy.a(phy_chip_v6_ana.o)
 *fill*         0x4025e8d0        0x0 
 .irom.text     0x4025e8d0       0x65 ../lib/libphy.a(phy_chip_v6_ana.o)
 *fill*         0x4025e935        0x3 
 .irom0.literal
                0x4025e938        0x0 ../lib/libphy.a(phy_chip_v6.o)
 *fill*         0x4025e938        0x8 
 .irom.text     0x4025e940      0x14c ../lib/libphy.a(phy_chip_v6.o)
 .irom0.literal
                0x4025ea8c        0x0 ../lib/libphy.a(phy_chip_v6_cal.o)
 *fill*         0x4025ea8c        0x4 
 .irom.text     0x4025ea90      0x1f4 ../lib/libphy.a(phy_chip_v6_cal.o)
 .irom0.literal
                0x4025ec84        0x0 ../lib/libphy.a(phy_chip_v6_unused.o)
 .irom0.text    0x4025ec84        0xc ../lib/libphy.a(phy_chip_v6_unused.o)
                0x4025ec84                chip_v6_set_sense
                0x4025ec88                chip_v6_get_sense
                0x4025ec8c                chip_v6_unset_chanfreq
 .irom0.literal
                0x4025ec90        0x0 ../lib/libphy.a(phy_sleep.o)
 *fill*         0x4025ec90        0x0 
 .irom0.literal
                0x4025ec90        0x0 ../lib/libpp.a(if_hwctrl.o)
 *fill*         0x4025ec90        0x0 
 .irom.text     0x4025ec90       0x50 ../lib/libpp.a(if_hwctrl.o)
 .irom0.literal
                0x4025ece0        0x0 ../lib/libpp.a(lmac.o)
 *fill*         0x4025ece0        0x0 
 .irom.text     0x4025ece0       0x2f ../lib/libpp.a(lmac.o)
 *fill*         0x4025ed0f        0x1 
 .irom0.literal
                0x4025ed10        0x0 ../lib/libpp.a(pm.o)
 *fill*         0x4025ed10        0x0 
 .irom.text     0x4025ed10      0x10d ../lib/libpp.a(pm.o)
 *fill*         0x4025ee1d        0x3 
 .irom0.literal
                0x4025ee20        0x0 ../lib/libpp.a(pm_for_bcn_only_mode.o)
 *fill*         0x4025ee20        0x0 
 .irom.text     0x4025ee20       0xf8 ../lib/libpp.a(pm_for_bcn_only_mode.o)
 .irom0.literal
                0x4025ef18        0x0 ../lib/libpp.a(pp.o)
 *fill*         0x4025ef18        0x8 
 .irom.text     0x4025ef20       0x5b ../lib/libpp.a(pp.o)
 *fill*         0x4025ef7b        0x1 
 .irom0.literal
                0x4025ef7c        0x0 ../lib/libpp.a(rate_control.o)
 *fill*         0x4025ef7c        0x0 
 .irom0.literal
                0x4025ef7c        0x0 ../lib/libpp.a(trc.o)
 *fill*         0x4025ef7c        0x4 
 .irom.text     0x4025ef80       0x38 ../lib/libpp.a(trc.o)
 .irom0.literal
                0x4025efb8        0x0 ../lib/libpp.a(wdev.o)
 *fill*         0x4025efb8        0x0 
 .irom.text     0x4025efb8        0x7 ../lib/libpp.a(wdev.o)
 *fill*         0x4025efbf        0x1 
 .irom0.literal
                0x4025efc0        0x0 ../lib/libpp.a(esf_buf.o)
 *fill*         0x4025efc0        0x0 
 .irom.text     0x4025efc0        0xa ../lib/libpp.a(esf_buf.o)
 *fill*         0x4025efca        0x2 
 .irom0.literal
                0x4025efcc        0x0 ../lib/libnet80211.a(ieee80211.o)
 *fill*         0x4025efcc        0x4 
 .irom.text     0x4025efd0       0x82 ../lib/libnet80211.a(ieee80211.o)
                0x4025efe0                ieee80211_opcap
 *fill*         0x4025f052        0x2 
 .irom0.literal
                0x4025f054        0x0 ../lib/libnet80211.a(ieee80211_crypto.o)
 *fill*         0x4025f054        0x0 
 .irom0.literal
                0x4025f054        0x0 ../lib/libnet80211.a(ieee80211_ets.o)
 .irom0.literal
                0x4025f054        0x0 ../lib/libnet80211.a(ieee80211_hostap.o)
 *fill*         0x4025f054        0xc 
 .irom.text     0x4025f060       0x5b ../lib/libnet80211.a(ieee80211_hostap.o)
 *fill*         0x4025f0bb        0x1 
 .irom0.literal
                0x4025f0bc        0x0 ../lib/libnet80211.a(ieee80211_ht.o)
 *fill*         0x4025f0bc        0x4 
 .irom.text     0x4025f0c0       0x19 ../lib/libnet80211.a(ieee80211_ht.o)
 *fill*         0x4025f0d9        0x3 
 .irom0.literal
                0x4025f0dc        0x0 ../lib/libnet80211.a(ieee80211_input.o)
 *fill*         0x4025f0dc        0x4 
 .irom.text     0x4025f0e0       0x12 ../lib/libnet80211.a(ieee80211_input.o)
 *fill*         0x4025f0f2        0x2 
 .irom0.literal
                0x4025f0f4        0x0 ../lib/libnet80211.a(ieee80211_mesh_quick.o)
 *fill*         0x4025f0f4        0xc 
 .irom.text     0x4025f100       0x43 ../lib/libnet80211.a(ieee80211_mesh_quick.o)
 *fill*         0x4025f143        0x1 
 .irom0.literal
                0x4025f144        0x0 ../lib/libnet80211.a(ieee80211_output.o)
 *fill*         0x4025f144        0xc 
 .irom.text     0x4025f150       0x1d ../lib/libnet80211.a(ieee80211_output.o)
 *fill*         0x4025f16d        0x3 
 .irom0.literal
                0x4025f170        0x0 ../lib/libnet80211.a(ieee80211_phy.o)
 *fill*         0x4025f170        0x0 
 .irom.text     0x4025f170      0x1b8 ../lib/libnet80211.a(ieee80211_phy.o)
 .irom0.literal
                0x4025f328        0x0 ../lib/libnet80211.a(ieee80211_power.o)
 *fill*         0x4025f328        0x0 
 .irom0.literal
                0x4025f328        0x0 ../lib/libnet80211.a(ieee80211_proto.o)
 *fill*         0x4025f328        0x8 
 .irom.text     0x4025f330       0x1c ../lib/libnet80211.a(ieee80211_proto.o)
 .irom0.literal
                0x4025f34c        0x0 ../lib/libnet80211.a(ieee80211_rfid.o)
 *fill*         0x4025f34c        0x0 
 .irom0.literal
                0x4025f34c        0x0 ../lib/libnet80211.a(ieee80211_scan.o)
 *fill*         0x4025f34c        0x4 
 .irom.text     0x4025f350       0x99 ../lib/libnet80211.a(ieee80211_scan.o)
 *fill*         0x4025f3e9        0x3 
 .irom0.literal
                0x4025f3ec        0x0 ../lib/libnet80211.a(ieee80211_sta.o)
 *fill*         0x4025f3ec        0x4 
 .irom.text     0x4025f3f0       0x26 ../lib/libnet80211.a(ieee80211_sta.o)
 *fill*         0x4025f416        0x2 
 .irom0.literal
                0x4025f418        0x0 ../lib/libnet80211.a(wl_chm.o)
 *fill*         0x4025f418        0x0 
 .irom0.literal
                0x4025f418        0x0 ../lib/libnet80211.a(wl_cnx.o)
 *fill*         0x4025f418        0x8 
 .irom.text     0x4025f420      0x187 ../lib/libnet80211.a(wl_cnx.o)
 *fill*         0x4025f5a7        0x1 
 .irom0.literal
                0x4025f5a8        0x0 ../lib/libnet80211.a(ieee80211_action.o)
 *fill*         0x4025f5a8        0x0 
 .irom0.literal
                0x4025f5a8        0x0 ../lib/libnet80211.a(ieee80211_action_vendor.o)
 *fill*         0x4025f5a8        0x8 
 .irom.text     0x4025f5b0       0x83 ../lib/libnet80211.a(ieee80211_action_vendor.o)
 *fill*         0x4025f633        0x1 
 .irom0.literal
                0x4025f634        0x0 ../lib/libnet80211.a(ieee80211_crypto_ccmp.o)
 *fill*         0x4025f634        0x0 
 .irom.text     0x4025f634       0x18 ../lib/libnet80211.a(ieee80211_crypto_ccmp.o)
                0x4025f634                ccmp
 .irom0.literal
                0x4025f64c        0x0 ../lib/libnet80211.a(ieee80211_ie_vendor.o)
 *fill*         0x4025f64c        0x0 
 .irom0.literal
                0x4025f64c        0x0 ../lib/liblwip.a(dhcp.o)
 *fill*         0x4025f64c        0x4 
 .irom.text     0x4025f650       0x1e ../lib/liblwip.a(dhcp.o)
 *fill*         0x4025f66e        0x2 
 .irom0.literal
                0x4025f670        0x0 ../lib/liblwip.a(dhcpserver.o)
 *fill*         0x4025f670        0x0 
 .irom.text     0x4025f670       0x45 ../lib/liblwip.a(dhcpserver.o)
 *fill*         0x4025f6b5        0x3 
 .irom0.literal
                0x4025f6b8        0x0 ../lib/liblwip.a(dns.o)
 *fill*         0x4025f6b8        0x0 
 .irom.text     0x4025f6b8        0x6 ../lib/liblwip.a(dns.o)
 *fill*         0x4025f6be        0x2 
 .irom0.literal
                0x4025f6c0        0x0 ../lib/liblwip.a(espconn_mdns.o)
 *fill*         0x4025f6c0        0x0 
 .irom0.literal
                0x4025f6c0        0x0 ../lib/liblwip.a(espconn.o)
 *fill*         0x4025f6c0        0x0 
 .irom.text     0x4025f6c0        0xa ../lib/liblwip.a(espconn.o)
 *fill*         0x4025f6ca        0x2 
 .irom0.literal
                0x4025f6cc        0x0 ../lib/liblwip.a(espconn_tcp.o)
 *fill*         0x4025f6cc        0x4 
 .irom.text     0x4025f6d0       0xab ../lib/liblwip.a(espconn_tcp.o)
 *fill*         0x4025f77b        0x1 
 .irom0.literal
                0x4025f77c        0x0 ../lib/liblwip.a(espconn_udp.o)
 *fill*         0x4025f77c        0x4 
 .irom.text     0x4025f780        0xe ../lib/liblwip.a(espconn_udp.o)
 *fill*         0x4025f78e        0x2 
 .irom0.literal
                0x4025f790        0x0 ../lib/liblwip.a(etharp.o)
 *fill*         0x4025f790        0x0 
 .irom.text     0x4025f790        0x9 ../lib/liblwip.a(etharp.o)
 *fill*         0x4025f799        0x3 
 .irom0.literal
                0x4025f79c        0x0 ../lib/liblwip.a(igmp.o)
 *fill*         0x4025f79c        0x4 
 .irom.text     0x4025f7a0        0x7 ../lib/liblwip.a(igmp.o)
 *fill*         0x4025f7a7        0x1 
 .irom0.literal
                0x4025f7a8        0x0 ../lib/liblwip.a(inet_chksum.o)
 .irom0.text    0x4025f7a8      0x298 ../lib/liblwip.a(inet_chksum.o)
                0x4025f820                inet_chksum_pseudo
                0x4025f8e0                inet_chksum_pseudo_partial
                0x4025f9bc                inet_chksum
                0x4025f9d4                inet_chksum_pbuf
 .irom0.literal
                0x4025fa40        0x0 ../lib/liblwip.a(init.o)
 .irom0.literal
                0x4025fa40        0x0 ../lib/liblwip.a(ip_addr.o)
 *fill*         0x4025fa40        0x0 
 .irom.text     0x4025fa40        0x8 ../lib/liblwip.a(ip_addr.o)
                0x4025fa40                ip_addr_any
                0x4025fa44                ip_addr_broadcast
 .irom0.literal
                0x4025fa48        0x0 ../lib/liblwip.a(ip.o)
 *fill*         0x4025fa48        0x8 
 .irom.text     0x4025fa50       0x11 ../lib/liblwip.a(ip.o)
 *fill*         0x4025fa61        0x3 
 .irom0.literal
                0x4025fa64        0x0 ../lib/liblwip.a(mdns.o)
 *fill*         0x4025fa64        0xc 
 .irom.text     0x4025fa70      0x1e2 ../lib/liblwip.a(mdns.o)
 *fill*         0x4025fc52        0xe 
 .irom.text     0x4025fc60       0x28 ../lib/liblwip.a(memp.o)
                0x4025fc60                memp_sizes
 .irom0.literal
                0x4025fc88        0x0 ../lib/liblwip.a(netif.o)
 *fill*         0x4025fc88        0x0 
 .irom0.literal
                0x4025fc88        0x0 ../lib/liblwip.a(pbuf.o)
 *fill*         0x4025fc88        0x0 
 .irom.text     0x4025fc88        0x7 ../lib/liblwip.a(pbuf.o)
 *fill*         0x4025fc8f        0x1 
 .irom0.literal
                0x4025fc90        0x0 ../lib/liblwip.a(ping.o)
 .irom.text     0x4025fc90       0x84 ../lib/liblwip.a(ping.o)
 .irom0.literal
                0x4025fd14        0x0 ../lib/liblwip.a(raw.o)
 *fill*         0x4025fd14        0x4 
 .irom.text     0x4025fd18        0x6 ../lib/liblwip.a(raw.o)
 *fill*         0x4025fd1e        0x2 
 .irom0.literal
                0x4025fd20        0x0 ../lib/liblwip.a(tcp_in.o)
 *fill*         0x4025fd20        0x0 
 .irom.text     0x4025fd20        0x9 ../lib/liblwip.a(tcp_in.o)
 *fill*         0x4025fd29        0x3 
 .irom0.literal
                0x4025fd2c        0x0 ../lib/liblwip.a(tcp.o)
 *fill*         0x4025fd2c        0x4 
 .irom.text     0x4025fd30       0x3d ../lib/liblwip.a(tcp.o)
                0x4025fd40                tcp_pcb_lists
                0x4025fd50                tcp_persist_backoff
                0x4025fd60                tcp_backoff
 *fill*         0x4025fd6d        0x3 
 .irom0.literal
                0x4025fd70        0x0 ../lib/liblwip.a(tcp_out.o)
 *fill*         0x4025fd70        0x0 
 .irom.text     0x4025fd70        0xa ../lib/liblwip.a(tcp_out.o)
 *fill*         0x4025fd7a        0x2 
 .irom0.literal
                0x4025fd7c        0x0 ../lib/liblwip.a(timers.o)
 *fill*         0x4025fd7c        0x4 
 .irom.text     0x4025fd80        0x9 ../lib/liblwip.a(timers.o)
 *fill*         0x4025fd89        0x3 
 .irom0.literal
                0x4025fd8c        0x0 ../lib/liblwip.a(udp.o)
 *fill*         0x4025fd8c        0x4 
 .irom.text     0x4025fd90        0x6 ../lib/liblwip.a(udp.o)
 *fill*         0x4025fd96        0x2 
 .irom0.literal
                0x4025fd98        0x0 ../lib/liblwip.a(icmp.o)
 *fill*         0x4025fd98        0x0 
 .irom0.literal
                0x4025fd98        0x0 ../lib/libwpa.a(ap_config.o)
 *fill*         0x4025fd98        0x8 
 .irom.text     0x4025fda0        0xc ../lib/libwpa.a(ap_config.o)
 .irom0.literal
                0x4025fdac        0x0 ../lib/libwpa.a(common.o)
 *fill*         0x4025fdac        0x4 
 .irom.text     0x4025fdb0        0x9 ../lib/libwpa.a(common.o)
 *fill*         0x4025fdb9        0x3 
 .irom0.literal
                0x4025fdbc        0x0 ../lib/libwpa.a(os_xtensa.o)
 *fill*         0x4025fdbc        0x4 
 .irom.text     0x4025fdc0        0xc ../lib/libwpa.a(os_xtensa.o)
 .irom0.literal
                0x4025fdcc        0x0 ../lib/libwpa.a(wpa_auth.o)
 *fill*         0x4025fdcc        0x4 
 .irom.text     0x4025fdd0       0x74 ../lib/libwpa.a(wpa_auth.o)
 .irom0.literal
                0x4025fe44        0x0 ../lib/libwpa.a(wpa_auth_ie.o)
 *fill*         0x4025fe44        0xc 
 .irom.text     0x4025fe50        0xe ../lib/libwpa.a(wpa_auth_ie.o)
 *fill*         0x4025fe5e        0x2 
 .irom0.literal
                0x4025fe60        0x0 ../lib/libwpa.a(wpa.o)
 *fill*         0x4025fe60        0x0 
 .irom.text     0x4025fe60       0x17 ../lib/libwpa.a(wpa.o)
 *fill*         0x4025fe77        0x1 
 .irom0.literal
                0x4025fe78        0x0 ../lib/libwpa.a(wpa_common.o)
 *fill*         0x4025fe78        0x8 
 .irom.text     0x4025fe80       0x1c ../lib/libwpa.a(wpa_common.o)
 .irom0.literal
                0x4025fe9c        0x0 ../lib/libwpa.a(wpa_debug.o)
 .irom0.literal
                0x4025fe9c        0x0 ../lib/libwpa.a(wpa_ie.o)
 *fill*         0x4025fe9c        0x0 
 .irom0.literal
                0x4025fe9c        0x0 ../lib/libwpa.a(wpa_main.o)
 *fill*         0x4025fe9c        0x4 
 .irom.text     0x4025fea0       0x67 ../lib/libwpa.a(wpa_main.o)
 *fill*         0x4025ff07        0x1 
 .irom0.literal
                0x4025ff08        0x0 ../lib/libwpa.a(wpas_glue.o)
 *fill*         0x4025ff08        0x0 
 .irom0.literal
                0x4025ff08        0x0 ../lib/libcrypto.a(aes-wrap.o)
 *fill*         0x4025ff08        0x0 
 .irom0.literal
                0x4025ff08        0x0 ../lib/libcrypto.a(aes-internal-enc.o)
 *fill*         0x4025ff08        0x8 
 .irom.text     0x4025ff10       0x13 ../lib/libcrypto.a(aes-internal-enc.o)
 *fill*         0x4025ff23        0x1 
 .irom0.literal
                0x4025ff24        0x0 ../lib/libcrypto.a(aes-internal.o)
 .irom0.literal
                0x4025ff24        0x0 ../lib/libssl.a(espconn_secure.o)
 *fill*         0x4025ff24        0xc 
 .irom.text     0x4025ff30       0x11 ../lib/libssl.a(espconn_secure.o)
 *fill*         0x4025ff41        0x3 
 .irom0.literal
                0x4025ff44        0x0 ../lib/libssl.a(espconn_ssl.o)
 *fill*         0x4025ff44        0xc 
 .irom.text     0x4025ff50      0x1b9 ../lib/libssl.a(espconn_ssl.o)
 *fill*         0x40260109        0x3 
 .irom0.literal
                0x4026010c        0x0 ../lib/libssl.a(ssl_loader.o)
 *fill*         0x4026010c        0x4 
 .irom.text     0x40260110       0x29 ../lib/libssl.a(ssl_loader.o)
 *fill*         0x40260139        0x3 
 .irom0.literal
                0x4026013c        0x0 ../lib/libssl.a(ssl_md5.o)
 *fill*         0x4026013c        0x0 
 .irom0.literal
                0x4026013c        0x0 ../lib/libssl.a(ssl_tls1_clnt.o)
 *fill*         0x4026013c        0x0 
 .irom0.literal
                0x4026013c        0x0 ../lib/libssl.a(ssl_tls1.o)
 *fill*         0x4026013c        0x4 
 .irom.text     0x40260140      0x2c2 ../lib/libssl.a(ssl_tls1.o)
 *fill*         0x40260402        0x2 
 .irom0.literal
                0x40260404        0x0 ../lib/libssl.a(ssl_tls1_svr.o)
 .irom0.literal
                0x40260404        0x0 ../lib/libssl.a(ssl_x509.o)
 *fill*         0x40260404        0xc 
 .irom.text     0x40260410       0xe8 ../lib/libssl.a(ssl_x509.o)
 .irom0.literal
                0x402604f8        0x0 ../lib/libssl.a(sha256.o)
 *fill*         0x402604f8        0x0 
 .irom0.literal
                0x402604f8        0x0 ../lib/libssl.a(sha384.o)
 *fill*         0x402604f8        0x0 
 .irom0.literal
                0x402604f8        0x0 ../lib/libssl.a(sha512.o)
 *fill*         0x402604f8        0x0 
 .irom0.literal
                0x402604f8        0x0 ../lib/libssl.a(ssl_aes.o)
 *fill*         0x402604f8        0x0 
 .irom0.literal
                0x402604f8        0x0 ../lib/libssl.a(ssl_asn1.o)
 *fill*         0x402604f8        0x8 
 .irom.text     0x40260500       0x6a ../lib/libssl.a(ssl_asn1.o)
 *fill*         0x4026056a        0x2 
 .irom0.literal
                0x4026056c        0x0 ../lib/libssl.a(ssl_bigint.o)
 *fill*         0x4026056c        0x4 
 .irom.text     0x40260570        0xd ../lib/libssl.a(ssl_bigint.o)
 *fill*         0x4026057d        0x3 
 .irom0.literal
                0x40260580        0x0 ../lib/libssl.a(ssl_crypto_misc.o)
 *fill*         0x40260580        0x0 
 .irom.text     0x40260580       0x12 ../lib/libssl.a(ssl_crypto_misc.o)
 *fill*         0x40260592        0x2 
 .irom0.literal
                0x40260594        0x0 ../lib/libssl.a(ssl_hmac.o)
 *fill*         0x40260594        0x0 
 .irom0.literal
                0x40260594        0x0 ../lib/libssl.a(ssl_rc4.o)
 .irom0.text    0x40260594       0x9d ../lib/libssl.a(ssl_rc4.o)
                0x40260594                RC4_setup
                0x402605ec                RC4_crypt
 *fill*         0x40260631        0x3 
 .irom0.literal
                0x40260634        0x0 ../lib/libssl.a(ssl_rsa.o)
 *fill*         0x40260634        0xc 
 .irom.text     0x40260640        0xa ../lib/libssl.a(ssl_rsa.o)
 *fill*         0x4026064a        0x2 
 .irom0.literal
                0x4026064c        0x0 ../lib/libssl.a(ssl_sha1.o)
 .irom0.literal
                0x4026064c        0x0 ../lib/libwps.a(wps.o)
 *fill*         0x4026064c        0x4 
 .irom.text     0x40260650      0x13a ../lib/libwps.a(wps.o)
 *fill*         0x4026078a        0x2 
 .irom0.literal
                0x4026078c        0x0 ../lib/libwps.a(wps_common.o)
 .irom0.literal
                0x4026078c        0x0 ../lib/libwps.a(wps_dev_attr.o)
 *fill*         0x4026078c        0x4 
 .irom.text     0x40260790        0xf ../lib/libwps.a(wps_dev_attr.o)
 *fill*         0x4026079f        0x1 
 .irom0.literal
                0x402607a0        0x0 ../lib/libwps.a(wps_enrollee.o)
 *fill*         0x402607a0        0x0 
 .irom.text     0x402607a0       0x37 ../lib/libwps.a(wps_enrollee.o)
 *fill*         0x402607d7        0x1 
 .irom0.literal
                0x402607d8        0x0 ../lib/libwps.a(wps_registrar.o)
 *fill*         0x402607d8        0x8 
 .irom.text     0x402607e0       0x10 ../lib/libwps.a(wps_registrar.o)
 .irom0.literal
                0x402607f0        0x0 ../lib/libwps.a(wps_validate.o)
 *fill*         0x402607f0        0x0 
 .irom0.literal
                0x402607f0        0x0 ../lib/libwps.a(eap_common.o)
 *fill*         0x402607f0        0x0 
 .irom0.literal
                0x402607f0        0x0 ../lib/libwps.a(uuid.o)
 *fill*         0x402607f0        0x0 
 .irom0.literal
                0x402607f0        0x0 ../lib/libwps.a(wps_attr_build.o)
 *fill*         0x402607f0        0x0 
 .irom.text     0x402607f0       0x39 ../lib/libwps.a(wps_attr_build.o)
 *fill*         0x40260829        0x3 
 .irom0.literal
                0x4026082c        0x0 ../lib/libwps.a(wps_attr_parse.o)
 *fill*         0x4026082c        0x0 
 .irom0.literal
                0x4026082c        0x0 ../lib/libwps.a(wps_attr_process.o)
 *fill*         0x4026082c        0x0 
 .irom0.literal
                0x4026082c        0x0 ../lib/libsmartconfig.a(sc_sniffer.o)
 *fill*         0x4026082c        0x4 
 .irom.text     0x40260830      0x20d ../lib/libsmartconfig.a(sc_sniffer.o)
 *fill*         0x40260a3d        0x3 
 .irom0.literal
                0x40260a40        0x0 ../lib/libsmartconfig.a(sc_airkiss.o)
 *fill*         0x40260a40        0x0 
 .irom.text     0x40260a40      0x50c ../lib/libsmartconfig.a(sc_airkiss.o)
 .irom0.literal
                0x40260f4c        0x0 ../lib/libsmartconfig.a(sc_esptouch.o)
 *fill*         0x40260f4c        0x4 
 .irom.text     0x40260f50      0x64f ../lib/libsmartconfig.a(sc_esptouch.o)
 *fill*         0x4026159f        0x1 
 .irom0.literal
                0x402615a0        0x0 ../lib/libwilddog.a(wilddog_common.o)
 *fill*         0x402615a0        0x0 
 .irom0.literal
                0x402615a0        0x0 ../lib/libwilddog.a(wilddog_ct.o)
 *fill*         0x402615a0        0x0 
 .irom0.literal
                0x402615a0        0x0 ../lib/libwilddog.a(wilddog_espressif.o)
 *fill*         0x402615a0        0x0 
 .irom0.literal
                0x402615a0        0x0 ../lib/libwilddog.a(wilddog_node.o)
 *fill*         0x402615a0        0x0 
 .irom0.literal
                0x402615a0        0x0 ../lib/libwilddog.a(wilddog_store.o)
 *fill*         0x402615a0        0x0 
 .irom0.literal
                0x402615a0        0x0 ../lib/libwilddog.a(wilddog_url_parser.o)
 *fill*         0x402615a0        0x0 
 .irom0.literal
                0x402615a0        0x0 ../lib/libwilddog.a(wilddog_conn.o)
 *fill*         0x402615a0        0x0 
 .irom0.literal
                0x402615a0        0x0 ../lib/libwilddog.a(wilddog_conn_coap.o)
 .irom0.literal
                0x402615a0        0x0 ../lib/libwilddog.a(wilddog_conn_manage.o)
 *fill*         0x402615a0        0x0 
 .irom0.literal
                0x402615a0        0x0 ../lib/libwilddog.a(wilddog_event.o)
 *fill*         0x402615a0        0x0 
 .irom0.literal
                0x402615a0        0x0 ../lib/libwilddog.a(wilddog_nosec.o)
 *fill*         0x402615a0        0x0 
 .irom0.literal
                0x402615a0        0x0 ../lib/libwilddog.a(wilddog_sec_host.o)
 .irom0.literal
                0x402615a0        0x0 ../lib/libwilddog.a(option.o)
 *fill*         0x402615a0        0x0 
 .irom0.literal
                0x402615a0        0x0 ../lib/libwilddog.a(pdu.o)
 *fill*         0x402615a0        0x0 
 .irom0.literal
                0x402615a0        0x0 ../lib/libwilddog.a(wilddog_cbor.o)
 *fill*         0x402615a0        0x0 
 *fill*         0x402615a0        0x0 
 .irom0.literal
                0x402615a0        0x0 ../lib/libnet80211.a(ieee80211_crypto_tkip.o)
 *fill*         0x402615a0        0x0 
 .irom.text     0x402615a0       0x18 ../lib/libnet80211.a(ieee80211_crypto_tkip.o)
                0x402615a0                tkip
 .irom0.literal
                0x402615b8        0x0 ../lib/libnet80211.a(ieee80211_crypto_wep.o)
 .irom.text     0x402615b8       0x18 ../lib/libnet80211.a(ieee80211_crypto_wep.o)
                0x402615b8                wep
 .irom0.literal
                0x402615d0        0x0 ../lib/libwpa.a(wpabuf.o)
 .irom.text     0x402615d0        0x9 ../lib/libwpa.a(wpabuf.o)
 *fill*         0x402615d9        0x3 
 .irom0.literal
                0x402615dc        0x0 ../lib/libcrypto.a(aes-cbc.o)
 .irom0.literal
                0x402615dc        0x0 ../lib/libcrypto.a(aes-internal-dec.o)
 *fill*         0x402615dc        0x4 
 .irom.text     0x402615e0       0x13 ../lib/libcrypto.a(aes-internal-dec.o)
 *fill*         0x402615f3        0x1 
 .irom0.literal
                0x402615f4        0x0 ../lib/libcrypto.a(dh_group5.o)
 *fill*         0x402615f4        0x0 
 .irom0.literal
                0x402615f4        0x0 ../lib/libcrypto.a(dh_groups.o)
 *fill*         0x402615f4        0x0 
 .irom0.literal
                0x402615f4        0x0 ../lib/libcrypto.a(sha256.o)
 *fill*         0x402615f4        0x0 
 .irom0.literal
                0x402615f4        0x0 ../lib/libcrypto.a(sha256-internal.o)
 *fill*         0x402615f4        0x0 
 .irom0.literal
                0x402615f4        0x0 ../lib/libcrypto.a(crypto_internal-modexp.o)
 *fill*         0x402615f4        0x0 
 .irom0.literal
                0x402615f4        0x0 ../lib/libcrypto.a(bignum.o)
 *fill*         0x402615f4        0xc 
 .irom.text     0x40261600        0xd ../lib/libcrypto.a(bignum.o)
                0x4026160d                _irom0_text_end = ABSOLUTE (.)
                0x400047f0                PROVIDE (Cache_Read_Disable, 0x400047f0)
                0x40004678                PROVIDE (Cache_Read_Enable, 0x40004678)
                0x400035a0                PROVIDE (FilePacketSendReqMsgProc, 0x400035a0)
                0x4000368c                PROVIDE (FlashDwnLdParamCfgMsgProc, 0x4000368c)
                0x40003538                PROVIDE (FlashDwnLdStartMsgProc, 0x40003538)
                0x40003658                PROVIDE (FlashDwnLdStopReqMsgProc, 0x40003658)
                0x40003f4c                PROVIDE (GetUartDevice, 0x40003f4c)
                0x40009900                PROVIDE (MD5Final, 0x40009900)
                0x40009818                PROVIDE (MD5Init, 0x40009818)
                0x40009834                PROVIDE (MD5Update, 0x40009834)
                0x400036c4                PROVIDE (MemDwnLdStartMsgProc, 0x400036c4)
                0x4000377c                PROVIDE (MemDwnLdStopReqMsgProc, 0x4000377c)
                0x400036f0                PROVIDE (MemPacketSendReqMsgProc, 0x400036f0)
                0x40003eac                PROVIDE (RcvMsg, 0x40003eac)
                0x4000b648                PROVIDE (SHA1Final, 0x4000b648)
                0x4000b584                PROVIDE (SHA1Init, 0x4000b584)
                0x4000a364                PROVIDE (SHA1Transform, 0x4000a364)
                0x4000b5a8                PROVIDE (SHA1Update, 0x4000b5a8)
                0x400043c8                PROVIDE (SPI_read_status, 0x400043c8)
                0x40004400                PROVIDE (SPI_write_status, 0x40004400)
                0x4000443c                PROVIDE (SPI_write_enable, 0x4000443c)
                0x4000448c                PROVIDE (Wait_SPI_Idle, 0x4000448c)
                0x40004b44                PROVIDE (SPIEraseArea, 0x40004b44)
                0x400049b4                PROVIDE (SPIEraseBlock, 0x400049b4)
                0x40004984                PROVIDE (SPIEraseChip, 0x40004984)
                0x40004a00                PROVIDE (SPIEraseSector, 0x40004a00)
                0x400048a8                PROVIDE (SPILock, 0x400048a8)
                0x40004c2c                PROVIDE (SPIParamCfg, 0x40004c2c)
                0x40004b1c                PROVIDE (SPIRead, 0x40004b1c)
                0x400048ec                PROVIDE (SPIReadModeCnfig, 0x400048ec)
                0x40004878                PROVIDE (SPIUnlock, 0x40004878)
                0x40004a4c                PROVIDE (SPIWrite, 0x40004a4c)
                0x40003f58                PROVIDE (SelectSpiFunction, 0x40003f58)
                0x40003cf4                PROVIDE (SendMsg, 0x40003cf4)
                0x40003230                PROVIDE (UartConnCheck, 0x40003230)
                0x400037a0                PROVIDE (UartConnectProc, 0x400037a0)
                0x40003368                PROVIDE (UartDwnLdProc, 0x40003368)
                0x40003ef4                PROVIDE (UartGetCmdLn, 0x40003ef4)
                0x4000381c                PROVIDE (UartRegReadProc, 0x4000381c)
                0x400037ac                PROVIDE (UartRegWriteProc, 0x400037ac)
                0x40003c30                PROVIDE (UartRxString, 0x40003c30)
                0x40003a14                PROVIDE (Uart_Init, 0x40003a14)
                0x40000010                PROVIDE (_DebugExceptionVector, 0x40000010)
                0x40000070                PROVIDE (_DoubleExceptionVector, 0x40000070)
                0x40000030                PROVIDE (_KernelExceptionVector, 0x40000030)
                0x40000020                PROVIDE (_NMIExceptionVector, 0x40000020)
                0x400000a4                PROVIDE (_ResetHandler, 0x400000a4)
                0x40000080                PROVIDE (_ResetVector, 0x40000080)
                0x40000050                PROVIDE (_UserExceptionVector, 0x40000050)
                0x4000c538                PROVIDE (__adddf3, 0x4000c538)
                0x4000c180                PROVIDE (__addsf3, 0x4000c180)
                0x4000cb94                PROVIDE (__divdf3, 0x4000cb94)
                0x4000ce60                PROVIDE (__divdi3, 0x4000ce60)
                0x4000dc88                PROVIDE (__divsi3, 0x4000dc88)
                0x4000cdfc                PROVIDE (__extendsfdf2, 0x4000cdfc)
                0x4000ccb8                PROVIDE (__fixdfsi, 0x4000ccb8)
                0x4000cd00                PROVIDE (__fixunsdfsi, 0x4000cd00)
                0x4000c4c4                PROVIDE (__fixunssfsi, 0x4000c4c4)
                0x4000e2f0                PROVIDE (__floatsidf, 0x4000e2f0)
                0x4000e2ac                PROVIDE (__floatsisf, 0x4000e2ac)
                0x4000e2e8                PROVIDE (__floatunsidf, 0x4000e2e8)
                0x4000e2a4                PROVIDE (__floatunsisf, 0x4000e2a4)
                0x4000c8f0                PROVIDE (__muldf3, 0x4000c8f0)
                0x40000650                PROVIDE (__muldi3, 0x40000650)
                0x4000c3dc                PROVIDE (__mulsf3, 0x4000c3dc)
                0x4000c688                PROVIDE (__subdf3, 0x4000c688)
                0x4000c268                PROVIDE (__subsf3, 0x4000c268)
                0x4000cd5c                PROVIDE (__truncdfsf2, 0x4000cd5c)
                0x4000d310                PROVIDE (__udivdi3, 0x4000d310)
                0x4000e21c                PROVIDE (__udivsi3, 0x4000e21c)
                0x4000d770                PROVIDE (__umoddi3, 0x4000d770)
                0x4000e268                PROVIDE (__umodsi3, 0x4000e268)
                0x4000dcf0                PROVIDE (__umulsidi3, 0x4000dcf0)
                0x4000e388                PROVIDE (_rom_store, 0x4000e388)
                0x4000e328                PROVIDE (_rom_store_table, 0x4000e328)
                0x4000042c                PROVIDE (_start, 0x4000042c)
                0x4000dbe0                PROVIDE (_xtos_alloca_handler, 0x4000dbe0)
                0x40000598                PROVIDE (_xtos_c_wrapper_handler, 0x40000598)
                0x40000590                PROVIDE (_xtos_cause3_handler, 0x40000590)
                0x4000bda4                PROVIDE (_xtos_ints_off, 0x4000bda4)
                0x4000bd84                PROVIDE (_xtos_ints_on, 0x4000bd84)
                0x4000048c                PROVIDE (_xtos_l1int_handler, 0x4000048c)
                0x4000dbf8                PROVIDE (_xtos_p_none, 0x4000dbf8)
                0x4000056c                PROVIDE (_xtos_restore_intlevel, 0x4000056c)
                0x4000dc54                PROVIDE (_xtos_return_from_exc, 0x4000dc54)
                0x40000454                PROVIDE (_xtos_set_exception_handler, 0x40000454)
                0x4000bd70                PROVIDE (_xtos_set_interrupt_handler, 0x4000bd70)
                0x4000bd28                PROVIDE (_xtos_set_interrupt_handler_arg, 0x4000bd28)
                0x4000dbfc                PROVIDE (_xtos_set_intlevel, 0x4000dbfc)
                0x4000dc18                PROVIDE (_xtos_set_min_intlevel, 0x4000dc18)
                0x40000574                PROVIDE (_xtos_set_vpri, 0x40000574)
                0x4000dbe4                PROVIDE (_xtos_syscall_handler, 0x4000dbe4)
                0x4000dc44                PROVIDE (_xtos_unhandled_exception, 0x4000dc44)
                0x4000dc3c                PROVIDE (_xtos_unhandled_interrupt, 0x4000dc3c)
                0x400092d4                PROVIDE (aes_decrypt, 0x400092d4)
                0x400092e4                PROVIDE (aes_decrypt_deinit, 0x400092e4)
                0x40008ea4                PROVIDE (aes_decrypt_init, 0x40008ea4)
                0x40009410                PROVIDE (aes_unwrap, 0x40009410)
                0x40009648                PROVIDE (base64_decode, 0x40009648)
                0x400094fc                PROVIDE (base64_encode, 0x400094fc)
                0x4000de84                PROVIDE (bzero, 0x4000de84)
                0x40000814                PROVIDE (cmd_parse, 0x40000814)
                0x40000b24                PROVIDE (conv_str_decimal, 0x40000b24)
                0x40000cb8                PROVIDE (conv_str_hex, 0x40000cb8)
                0x40000a60                PROVIDE (convert_para_str, 0x40000a60)
                0x400026d0                PROVIDE (dtm_get_intr_mask, 0x400026d0)
                0x4000269c                PROVIDE (dtm_params_init, 0x4000269c)
                0x400026c8                PROVIDE (dtm_set_intr_mask, 0x400026c8)
                0x400026dc                PROVIDE (dtm_set_params, 0x400026dc)
                0x40001d14                PROVIDE (eprintf, 0x40001d14)
                0x40001cb8                PROVIDE (eprintf_init_buf, 0x40001cb8)
                0x40001d48                PROVIDE (eprintf_to_host, 0x40001d48)
                0x40002494                PROVIDE (est_get_printf_buf_remain_len, 0x40002494)
                0x4000249c                PROVIDE (est_reset_printf_buf_len, 0x4000249c)
                0x40002ae8                PROVIDE (ets_bzero, 0x40002ae8)
                0x40002b74                PROVIDE (ets_char2xdigit, 0x40002b74)
                0x40002ecc                PROVIDE (ets_delay_us, 0x40002ecc)
                0x400027b8                PROVIDE (ets_enter_sleep, 0x400027b8)
                0x40002578                PROVIDE (ets_external_printf, 0x40002578)
                0x40002f0c                PROVIDE (ets_get_cpu_frequency, 0x40002f0c)
                0x40002bcc                PROVIDE (ets_getc, 0x40002bcc)
                0x40002450                PROVIDE (ets_install_external_printf, 0x40002450)
                0x4000242c                PROVIDE (ets_install_putc1, 0x4000242c)
                0x4000248c                PROVIDE (ets_install_putc2, 0x4000248c)
                0x40002438                PROVIDE (ets_install_uart_printf, 0x40002438)
                0x40000f74                PROVIDE (ets_intr_lock, 0x40000f74)
                0x40000f80                PROVIDE (ets_intr_unlock, 0x40000f80)
                0x40000f88                PROVIDE (ets_isr_attach, 0x40000f88)
                0x40000f98                PROVIDE (ets_isr_mask, 0x40000f98)
                0x40000fa8                PROVIDE (ets_isr_unmask, 0x40000fa8)
                0x400018d4                PROVIDE (ets_memcmp, 0x400018d4)
                0x400018b4                PROVIDE (ets_memcpy, 0x400018b4)
                0x400018c4                PROVIDE (ets_memmove, 0x400018c4)
                0x400018a4                PROVIDE (ets_memset, 0x400018a4)
                0x40000e24                PROVIDE (ets_post, 0x40000e24)
                0x400024cc                PROVIDE (ets_printf, 0x400024cc)
                0x40002be8                PROVIDE (ets_putc, 0x40002be8)
                0x40002a40                PROVIDE (ets_rtc_int_register, 0x40002a40)
                0x40000e04                PROVIDE (ets_run, 0x40000e04)
                0x40000dc0                PROVIDE (ets_set_idle_cb, 0x40000dc0)
                0x40000fbc                PROVIDE (ets_set_user_start, 0x40000fbc)
                0x40002af8                PROVIDE (ets_str2macaddr, 0x40002af8)
                0x40002aa8                PROVIDE (ets_strcmp, 0x40002aa8)
                0x40002a88                PROVIDE (ets_strcpy, 0x40002a88)
                0x40002ac8                PROVIDE (ets_strlen, 0x40002ac8)
                0x40002ab8                PROVIDE (ets_strncmp, 0x40002ab8)
                0x40002a98                PROVIDE (ets_strncpy, 0x40002a98)
                0x40002ad8                PROVIDE (ets_strstr, 0x40002ad8)
                0x40000dd0                PROVIDE (ets_task, 0x40000dd0)
                0x40002cc4                PROVIDE (ets_timer_arm, 0x40002cc4)
                0x40002d40                PROVIDE (ets_timer_disarm, 0x40002d40)
                0x40002d80                PROVIDE (ets_timer_done, 0x40002d80)
                0x40002da8                PROVIDE (ets_timer_handler_isr, 0x40002da8)
                0x40002e68                PROVIDE (ets_timer_init, 0x40002e68)
                0x40002c48                PROVIDE (ets_timer_setfn, 0x40002c48)
                0x40002544                PROVIDE (ets_uart_printf, 0x40002544)
                0x40002f04                PROVIDE (ets_update_cpu_frequency, 0x40002f04)
                0x40001f00                PROVIDE (ets_vprintf, 0x40001f00)
                0x400030f0                PROVIDE (ets_wdt_disable, 0x400030f0)
                0x40002fa0                PROVIDE (ets_wdt_enable, 0x40002fa0)
                0x40002f34                PROVIDE (ets_wdt_get_mode, 0x40002f34)
                0x40003170                PROVIDE (ets_wdt_init, 0x40003170)
                0x40003158                PROVIDE (ets_wdt_restore, 0x40003158)
                0x40001da0                PROVIDE (ets_write_char, 0x40001da0)
                0x4000091c                PROVIDE (get_first_seg, 0x4000091c)
                0x40004c50                PROVIDE (gpio_init, 0x40004c50)
                0x40004cf0                PROVIDE (gpio_input_get, 0x40004cf0)
                0x40004dcc                PROVIDE (gpio_intr_ack, 0x40004dcc)
                0x40004e28                PROVIDE (gpio_intr_handler_register, 0x40004e28)
                0x40004d88                PROVIDE (gpio_intr_pending, 0x40004d88)
                0x40004efc                PROVIDE (gpio_intr_test, 0x40004efc)
                0x40004cd0                PROVIDE (gpio_output_set, 0x40004cd0)
                0x40004d90                PROVIDE (gpio_pin_intr_state_set, 0x40004d90)
                0x40004ed4                PROVIDE (gpio_pin_wakeup_disable, 0x40004ed4)
                0x40004e90                PROVIDE (gpio_pin_wakeup_enable, 0x40004e90)
                0x40004d5c                PROVIDE (gpio_register_get, 0x40004d5c)
                0x40004d04                PROVIDE (gpio_register_set, 0x40004d04)
                0x4000a2cc                PROVIDE (hmac_md5, 0x4000a2cc)
                0x4000a160                PROVIDE (hmac_md5_vector, 0x4000a160)
                0x4000ba28                PROVIDE (hmac_sha1, 0x4000ba28)
                0x4000b8b4                PROVIDE (hmac_sha1_vector, 0x4000b8b4)
                0x40004f40                PROVIDE (lldesc_build_chain, 0x40004f40)
                0x40005050                PROVIDE (lldesc_num2link, 0x40005050)
                0x4000507c                PROVIDE (lldesc_set_owner, 0x4000507c)
                0x40000fec                PROVIDE (main, 0x40000fec)
                0x400097ac                PROVIDE (md5_vector, 0x400097ac)
                0x40001c2c                PROVIDE (mem_calloc, 0x40001c2c)
                0x400019e0                PROVIDE (mem_free, 0x400019e0)
                0x40001998                PROVIDE (mem_init, 0x40001998)
                0x40001b40                PROVIDE (mem_malloc, 0x40001b40)
                0x40001c6c                PROVIDE (mem_realloc, 0x40001c6c)
                0x40001a14                PROVIDE (mem_trim, 0x40001a14)
                0x40001c58                PROVIDE (mem_zalloc, 0x40001c58)
                0x4000dea8                PROVIDE (memcmp, 0x4000dea8)
                0x4000df48                PROVIDE (memcpy, 0x4000df48)
                0x4000e04c                PROVIDE (memmove, 0x4000e04c)
                0x4000e190                PROVIDE (memset, 0x4000e190)
                0x400031c0                PROVIDE (multofup, 0x400031c0)
                0x4000b840                PROVIDE (pbkdf2_sha1, 0x4000b840)
                0x40006b08                PROVIDE (phy_get_romfuncs, 0x40006b08)
                0x40000600                PROVIDE (rand, 0x40000600)
                0x4000dd68                PROVIDE (rc4_skip, 0x4000dd68)
                0x40003d08                PROVIDE (recv_packet, 0x40003d08)
                0x40000a04                PROVIDE (remove_head_space, 0x40000a04)
                0x40008dd0                PROVIDE (rijndaelKeySetupDec, 0x40008dd0)
                0x40009300                PROVIDE (rijndaelKeySetupEnc, 0x40009300)
                0x400060c0                PROVIDE (rom_abs_temp, 0x400060c0)
                0x40006b10                PROVIDE (rom_ana_inf_gating_en, 0x40006b10)
                0x40007a28                PROVIDE (rom_cal_tos_v50, 0x40007a28)
                0x40006f84                PROVIDE (rom_chip_50_set_channel, 0x40006f84)
                0x400060d0                PROVIDE (rom_chip_v5_disable_cca, 0x400060d0)
                0x400060ec                PROVIDE (rom_chip_v5_enable_cca, 0x400060ec)
                0x4000711c                PROVIDE (rom_chip_v5_rx_init, 0x4000711c)
                0x4000610c                PROVIDE (rom_chip_v5_sense_backoff, 0x4000610c)
                0x4000718c                PROVIDE (rom_chip_v5_tx_init, 0x4000718c)
                0x4000615c                PROVIDE (rom_dc_iq_est, 0x4000615c)
                0x400061b8                PROVIDE (rom_en_pwdet, 0x400061b8)
                0x40006238                PROVIDE (rom_get_bb_atten, 0x40006238)
                0x40006260                PROVIDE (rom_get_corr_power, 0x40006260)
                0x400062dc                PROVIDE (rom_get_fm_sar_dout, 0x400062dc)
                0x40006394                PROVIDE (rom_get_noisefloor, 0x40006394)
                0x400063b0                PROVIDE (rom_get_power_db, 0x400063b0)
                0x40007268                PROVIDE (rom_i2c_readReg, 0x40007268)
                0x4000729c                PROVIDE (rom_i2c_readReg_Mask, 0x4000729c)
                0x400072d8                PROVIDE (rom_i2c_writeReg, 0x400072d8)
                0x4000730c                PROVIDE (rom_i2c_writeReg_Mask, 0x4000730c)
                0x40006400                PROVIDE (rom_iq_est_disable, 0x40006400)
                0x40006430                PROVIDE (rom_iq_est_enable, 0x40006430)
                0x40006484                PROVIDE (rom_linear_to_db, 0x40006484)
                0x400065a4                PROVIDE (rom_mhz2ieee, 0x400065a4)
                0x40007bf0                PROVIDE (rom_pbus_dco___SA2, 0x40007bf0)
                0x4000737c                PROVIDE (rom_pbus_debugmode, 0x4000737c)
                0x40007410                PROVIDE (rom_pbus_enter_debugmode, 0x40007410)
                0x40007448                PROVIDE (rom_pbus_exit_debugmode, 0x40007448)
                0x4000747c                PROVIDE (rom_pbus_force_test, 0x4000747c)
                0x400074d8                PROVIDE (rom_pbus_rd, 0x400074d8)
                0x4000754c                PROVIDE (rom_pbus_set_rxgain, 0x4000754c)
                0x40007610                PROVIDE (rom_pbus_set_txgain, 0x40007610)
                0x40007648                PROVIDE (rom_pbus_workmode, 0x40007648)
                0x40007688                PROVIDE (rom_pbus_xpd_rx_off, 0x40007688)
                0x400076cc                PROVIDE (rom_pbus_xpd_rx_on, 0x400076cc)
                0x400076fc                PROVIDE (rom_pbus_xpd_tx_off, 0x400076fc)
                0x40007740                PROVIDE (rom_pbus_xpd_tx_on, 0x40007740)
                0x400077a0                PROVIDE (rom_pbus_xpd_tx_on__low_gain, 0x400077a0)
                0x40007804                PROVIDE (rom_phy_reset_req, 0x40007804)
                0x4000781c                PROVIDE (rom_restart_cal, 0x4000781c)
                0x40007eb4                PROVIDE (rom_rfcal_pwrctrl, 0x40007eb4)
                0x4000804c                PROVIDE (rom_rfcal_rxiq, 0x4000804c)
                0x40008264                PROVIDE (rom_rfcal_rxiq_set_reg, 0x40008264)
                0x40008388                PROVIDE (rom_rfcal_txcap, 0x40008388)
                0x40008610                PROVIDE (rom_rfcal_txiq, 0x40008610)
                0x400088b8                PROVIDE (rom_rfcal_txiq_cover, 0x400088b8)
                0x40008a70                PROVIDE (rom_rfcal_txiq_set_reg, 0x40008a70)
                0x40007868                PROVIDE (rom_rfpll_reset, 0x40007868)
                0x40007968                PROVIDE (rom_rfpll_set_freq, 0x40007968)
                0x40008b6c                PROVIDE (rom_rxiq_cover_mg_mp, 0x40008b6c)
                0x40006628                PROVIDE (rom_rxiq_get_mis, 0x40006628)
                0x40006738                PROVIDE (rom_sar_init, 0x40006738)
                0x4000678c                PROVIDE (rom_set_ana_inf_tx_scale, 0x4000678c)
                0x40006c50                PROVIDE (rom_set_channel_freq, 0x40006c50)
                0x400067c8                PROVIDE (rom_set_loopback_gain, 0x400067c8)
                0x40006830                PROVIDE (rom_set_noise_floor, 0x40006830)
                0x40006550                PROVIDE (rom_set_rxclk_en, 0x40006550)
                0x40008c6c                PROVIDE (rom_set_txbb_atten, 0x40008c6c)
                0x4000650c                PROVIDE (rom_set_txclk_en, 0x4000650c)
                0x40008d34                PROVIDE (rom_set_txiq_cal, 0x40008d34)
                0x40006874                PROVIDE (rom_start_noisefloor, 0x40006874)
                0x400068b4                PROVIDE (rom_start_tx_tone, 0x400068b4)
                0x4000698c                PROVIDE (rom_stop_tx_tone, 0x4000698c)
                0x40006a98                PROVIDE (rom_tx_mac_disable, 0x40006a98)
                0x40006ad4                PROVIDE (rom_tx_mac_enable, 0x40006ad4)
                0x40006a1c                PROVIDE (rom_txtone_linear_pwr, 0x40006a1c)
                0x400078dc                PROVIDE (rom_write_rfpll_sdm, 0x400078dc)
                0x400031b4                PROVIDE (roundup2, 0x400031b4)
                0x40002870                PROVIDE (rtc_enter_sleep, 0x40002870)
                0x400025e0                PROVIDE (rtc_get_reset_reason, 0x400025e0)
                0x400029ec                PROVIDE (rtc_intr_handler, 0x400029ec)
                0x40002668                PROVIDE (rtc_set_sleep_mode, 0x40002668)
                0x400027a4                PROVIDE (save_rxbcn_mactime, 0x400027a4)
                0x400027ac                PROVIDE (save_tsf_us, 0x400027ac)
                0x40003c80                PROVIDE (send_packet, 0x40003c80)
                0x4000ba48                PROVIDE (sha1_prf, 0x4000ba48)
                0x4000a2ec                PROVIDE (sha1_vector, 0x4000a2ec)
                0x40005180                PROVIDE (sip_alloc_to_host_evt, 0x40005180)
                0x400058a8                PROVIDE (sip_get_ptr, 0x400058a8)
                0x40005668                PROVIDE (sip_get_state, 0x40005668)
                0x4000567c                PROVIDE (sip_init_attach, 0x4000567c)
                0x4000544c                PROVIDE (sip_install_rx_ctrl_cb, 0x4000544c)
                0x4000545c                PROVIDE (sip_install_rx_data_cb, 0x4000545c)
                0x400050fc                PROVIDE (sip_post, 0x400050fc)
                0x400056c4                PROVIDE (sip_post_init, 0x400056c4)
                0x4000534c                PROVIDE (sip_reclaim_from_host_cmd, 0x4000534c)
                0x400052c0                PROVIDE (sip_reclaim_tx_data_pkt, 0x400052c0)
                0x40005808                PROVIDE (sip_send, 0x40005808)
                0x40005864                PROVIDE (sip_to_host_chain_append, 0x40005864)
                0x40005234                PROVIDE (sip_to_host_evt_send_done, 0x40005234)
                0x400060ac                PROVIDE (slc_add_credits, 0x400060ac)
                0x40005d90                PROVIDE (slc_enable, 0x40005d90)
                0x40005f24                PROVIDE (slc_from_host_chain_fetch, 0x40005f24)
                0x40005e94                PROVIDE (slc_from_host_chain_recycle, 0x40005e94)
                0x40005c50                PROVIDE (slc_init_attach, 0x40005c50)
                0x4000608c                PROVIDE (slc_init_credit, 0x4000608c)
                0x40006014                PROVIDE (slc_pause_from_host, 0x40006014)
                0x40005c1c                PROVIDE (slc_reattach, 0x40005c1c)
                0x4000603c                PROVIDE (slc_resume_from_host, 0x4000603c)
                0x40005dc0                PROVIDE (slc_select_tohost_gpio, 0x40005dc0)
                0x40005db8                PROVIDE (slc_select_tohost_gpio_mode, 0x40005db8)
                0x40005de4                PROVIDE (slc_send_to_host_chain, 0x40005de4)
                0x40006068                PROVIDE (slc_set_host_io_max_window, 0x40006068)
                0x40005f10                PROVIDE (slc_to_host_chain_recycle, 0x40005f10)
                0x4000264c                PROVIDE (software_reset, 0x4000264c)
                0x40004644                PROVIDE (spi_flash_attach, 0x40004644)
                0x400005f0                PROVIDE (srand, 0x400005f0)
                0x4000bdc8                PROVIDE (strcmp, 0x4000bdc8)
                0x4000bec8                PROVIDE (strcpy, 0x4000bec8)
                0x4000bf4c                PROVIDE (strlen, 0x4000bf4c)
                0x4000bfa8                PROVIDE (strncmp, 0x4000bfa8)
                0x4000c0a0                PROVIDE (strncpy, 0x4000c0a0)
                0x4000e1e0                PROVIDE (strstr, 0x4000e1e0)
                0x40002c64                PROVIDE (timer_insert, 0x40002c64)
                0x4000383c                PROVIDE (uartAttach, 0x4000383c)
                0x40003924                PROVIDE (uart_baudrate_detect, 0x40003924)
                0x400038a4                PROVIDE (uart_buff_switch, 0x400038a4)
                0x400039d8                PROVIDE (uart_div_modify, 0x400039d8)
                0x40003bbc                PROVIDE (uart_rx_intr_handler, 0x40003bbc)
                0x40003b8c                PROVIDE (uart_rx_one_char, 0x40003b8c)
                0x40003b64                PROVIDE (uart_rx_one_char_block, 0x40003b64)
                0x40003ec8                PROVIDE (uart_rx_readbuff, 0x40003ec8)
                0x40003b30                PROVIDE (uart_tx_one_char, 0x40003b30)
                0x4000bc40                PROVIDE (wepkey_128, 0x4000bc40)
                0x4000bb3c                PROVIDE (wepkey_64, 0x4000bb3c)
                0x40000688                PROVIDE (xthal_bcopy, 0x40000688)
                0x4000074c                PROVIDE (xthal_copy123, 0x4000074c)
                0x4000dd4c                PROVIDE (xthal_get_ccompare, 0x4000dd4c)
                0x4000dd38                PROVIDE (xthal_get_ccount, 0x4000dd38)
                0x4000dd58                PROVIDE (xthal_get_interrupt, 0x4000dd58)
                0x4000dd58                PROVIDE (xthal_get_intread, 0x4000dd58)
                0x400006c4                PROVIDE (xthal_memcpy, 0x400006c4)
                0x4000dd40                PROVIDE (xthal_set_ccompare, 0x4000dd40)
                0x4000dd60                PROVIDE (xthal_set_intclear, 0x4000dd60)
                0x4000e320                PROVIDE (xthal_spill_registers_into_stack_nw, 0x4000e320)
                0x4000e324                PROVIDE (xthal_window_spill, 0x4000e324)
                0x4000e320                PROVIDE (xthal_window_spill_nw, 0x4000e320)
                0x3fffccf0                PROVIDE (Te0, 0x3fffccf0)
                0x3fffd100                PROVIDE (Td0, 0x3fffd100)
                0x3fffd500                PROVIDE (Td4s, 0x3fffd500)
                0x3fffd0f0                PROVIDE (rcons, 0x3fffd0f0)
                0x3fffde10                PROVIDE (UartDev, 0x3fffde10)
                0x3fffc714                PROVIDE (flashchip, 0x3fffc714)
OUTPUT(.output/eagle/debug/image/eagle.app.v6.out elf32-xtensa-le)

.xtensa.info    0x00000000       0x38
 .xtensa.info   0x00000000       0x38 ../lib/libmain.a(debug-vector.o)
 .xtensa.info   0x00000000        0x0 ../lib/libmain.a(double-vector.o)
 .xtensa.info   0x00000000        0x0 ../lib/libmain.a(kernel-vector.o)
 .xtensa.info   0x00000000        0x0 ../lib/libmain.a(nmi-vector.o)
 .xtensa.info   0x00000000        0x0 ../lib/libmain.a(user-vector.o)
 .xtensa.info   0x00000000        0x0 ../lib/libmain.a(vector.o)
 .xtensa.info   0x00000000        0x0 ../lib/libmain.a(app_main.o)
 .xtensa.info   0x00000000        0x0 ../lib/libmain.a(ets_timer.o)
 .xtensa.info   0x00000000        0x0 ../lib/libmain.a(mem_manager.o)
 .xtensa.info   0x00000000        0x0 ../lib/libmain.a(spi_flash.o)
 .xtensa.info   0x00000000        0x0 ../lib/libmain.a(user_interface.o)
 .xtensa.info   0x00000000        0x0 ../lib/libmain.a(eagle_lib.o)
 .xtensa.info   0x00000000        0x0 ../lib/libmain.a(eagle_lwip_if.o)
 .xtensa.info   0x00000000        0x0 user/.output/eagle/debug/lib/libuser.a(user_main.o)
 .xtensa.info   0x00000000        0x0 user/.output/eagle/debug/lib/libuser.a(AtCmd_Drv.o)
 .xtensa.info   0x00000000        0x0 user/.output/eagle/debug/lib/libuser.a(AirKiss_Drv.o)
 .xtensa.info   0x00000000        0x0 user/.output/eagle/debug/lib/libuser.a(user_tcpclient.o)
 .xtensa.info   0x00000000        0x0 user/.output/eagle/debug/lib/libuser.a(WildDog_Drv.o)
 .xtensa.info   0x00000000        0x0 user/.output/eagle/debug/lib/libuser.a(GlobalFunc.o)
 .xtensa.info   0x00000000        0x0 user/.output/eagle/debug/lib/libuser.a(GizCmdTest.o)
 .xtensa.info   0x00000000        0x0 user/.output/eagle/debug/lib/libuser.a(WDJson_Drv.o)
 .xtensa.info   0x00000000        0x0 user/.output/eagle/debug/lib/libuser.a(Serial_Drv.o)
 .xtensa.info   0x00000000        0x0 user/.output/eagle/debug/lib/libuser.a(SensorInterface.o)
 .xtensa.info   0x00000000        0x0 user/.output/eagle/debug/lib/libuser.a(WifiInterface.o)
 .xtensa.info   0x00000000        0x0 ../lib/libat.a(at_baseCmd.o)
 .xtensa.info   0x00000000        0x0 ../lib/libat.a(at_cmd.o)
 .xtensa.info   0x00000000        0x0 ../lib/libat.a(at_ipCmd.o)
 .xtensa.info   0x00000000        0x0 ../lib/libat.a(at_nv_data.o)
 .xtensa.info   0x00000000        0x0 ../lib/libat.a(at_port.o)
 .xtensa.info   0x00000000        0x0 ../lib/libat.a(at_wifiCmd.o)
 .xtensa.info   0x00000000        0x0 ../lib/libat.a(uart.o)
 .xtensa.info   0x00000000        0x0 ../lib/libat.a(at_init_para.o)
 .xtensa.info   0x00000000        0x0 /opt/xtensa-lx106-elf/bin/../lib/gcc/xtensa-lx106-elf/4.8.2/libc.a(islower.o)
 .xtensa.info   0x00000000        0x0 /opt/xtensa-lx106-elf/bin/../lib/gcc/xtensa-lx106-elf/4.8.2/libc.a(memcmp.o)
 .xtensa.info   0x00000000        0x0 /opt/xtensa-lx106-elf/bin/../lib/gcc/xtensa-lx106-elf/4.8.2/libc.a(memcpy.o)
 .xtensa.info   0x00000000        0x0 /opt/xtensa-lx106-elf/bin/../lib/gcc/xtensa-lx106-elf/4.8.2/libc.a(memset.o)
 .xtensa.info   0x00000000        0x0 /opt/xtensa-lx106-elf/bin/../lib/gcc/xtensa-lx106-elf/4.8.2/libc.a(ctype_.o)
 .xtensa.info   0x00000000        0x0 ../lib/libgcc.a(_modsi3.o)
 .xtensa.info   0x00000000        0x0 /opt/xtensa-lx106-elf/bin/../lib/gcc/xtensa-lx106-elf/4.8.2/libhal.a(int_asm--set_intclear.o)
 .xtensa.info   0x00000000        0x0 ../lib/libphy.a(phy.o)
 .xtensa.info   0x00000000        0x0 ../lib/libphy.a(phy_chip_v6_ana.o)
 .xtensa.info   0x00000000        0x0 ../lib/libphy.a(phy_chip_v6.o)
 .xtensa.info   0x00000000        0x0 ../lib/libphy.a(phy_chip_v6_cal.o)
 .xtensa.info   0x00000000        0x0 ../lib/libphy.a(phy_chip_v6_unused.o)
 .xtensa.info   0x00000000        0x0 ../lib/libphy.a(phy_sleep.o)
 .xtensa.info   0x00000000        0x0 ../lib/libpp.a(if_hwctrl.o)
 .xtensa.info   0x00000000        0x0 ../lib/libpp.a(lmac.o)
 .xtensa.info   0x00000000        0x0 ../lib/libpp.a(pm.o)
 .xtensa.info   0x00000000        0x0 ../lib/libpp.a(pm_for_bcn_only_mode.o)
 .xtensa.info   0x00000000        0x0 ../lib/libpp.a(pp.o)
 .xtensa.info   0x00000000        0x0 ../lib/libpp.a(rate_control.o)
 .xtensa.info   0x00000000        0x0 ../lib/libpp.a(trc.o)
 .xtensa.info   0x00000000        0x0 ../lib/libpp.a(wdev.o)
 .xtensa.info   0x00000000        0x0 ../lib/libpp.a(esf_buf.o)
 .xtensa.info   0x00000000        0x0 ../lib/libnet80211.a(ieee80211.o)
 .xtensa.info   0x00000000        0x0 ../lib/libnet80211.a(ieee80211_crypto.o)
 .xtensa.info   0x00000000        0x0 ../lib/libnet80211.a(ieee80211_ets.o)
 .xtensa.info   0x00000000        0x0 ../lib/libnet80211.a(ieee80211_hostap.o)
 .xtensa.info   0x00000000        0x0 ../lib/libnet80211.a(ieee80211_ht.o)
 .xtensa.info   0x00000000        0x0 ../lib/libnet80211.a(ieee80211_input.o)
 .xtensa.info   0x00000000        0x0 ../lib/libnet80211.a(ieee80211_mesh_quick.o)
 .xtensa.info   0x00000000        0x0 ../lib/libnet80211.a(ieee80211_output.o)
 .xtensa.info   0x00000000        0x0 ../lib/libnet80211.a(ieee80211_phy.o)
 .xtensa.info   0x00000000        0x0 ../lib/libnet80211.a(ieee80211_power.o)
 .xtensa.info   0x00000000        0x0 ../lib/libnet80211.a(ieee80211_proto.o)
 .xtensa.info   0x00000000        0x0 ../lib/libnet80211.a(ieee80211_rfid.o)
 .xtensa.info   0x00000000        0x0 ../lib/libnet80211.a(ieee80211_scan.o)
 .xtensa.info   0x00000000        0x0 ../lib/libnet80211.a(ieee80211_sta.o)
 .xtensa.info   0x00000000        0x0 ../lib/libnet80211.a(wl_chm.o)
 .xtensa.info   0x00000000        0x0 ../lib/libnet80211.a(wl_cnx.o)
 .xtensa.info   0x00000000        0x0 ../lib/libnet80211.a(ieee80211_action.o)
 .xtensa.info   0x00000000        0x0 ../lib/libnet80211.a(ieee80211_action_vendor.o)
 .xtensa.info   0x00000000        0x0 ../lib/libnet80211.a(ieee80211_crypto_ccmp.o)
 .xtensa.info   0x00000000        0x0 ../lib/libnet80211.a(ieee80211_ie_vendor.o)
 .xtensa.info   0x00000000        0x0 ../lib/liblwip.a(dhcp.o)
 .xtensa.info   0x00000000        0x0 ../lib/liblwip.a(dhcpserver.o)
 .xtensa.info   0x00000000        0x0 ../lib/liblwip.a(dns.o)
 .xtensa.info   0x00000000        0x0 ../lib/liblwip.a(espconn_mdns.o)
 .xtensa.info   0x00000000        0x0 ../lib/liblwip.a(espconn.o)
 .xtensa.info   0x00000000        0x0 ../lib/liblwip.a(espconn_tcp.o)
 .xtensa.info   0x00000000        0x0 ../lib/liblwip.a(espconn_udp.o)
 .xtensa.info   0x00000000        0x0 ../lib/liblwip.a(etharp.o)
 .xtensa.info   0x00000000        0x0 ../lib/liblwip.a(igmp.o)
 .xtensa.info   0x00000000        0x0 ../lib/liblwip.a(inet_chksum.o)
 .xtensa.info   0x00000000        0x0 ../lib/liblwip.a(init.o)
 .xtensa.info   0x00000000        0x0 ../lib/liblwip.a(ip_addr.o)
 .xtensa.info   0x00000000        0x0 ../lib/liblwip.a(ip.o)
 .xtensa.info   0x00000000        0x0 ../lib/liblwip.a(mdns.o)
 .xtensa.info   0x00000000        0x0 ../lib/liblwip.a(memp.o)
 .xtensa.info   0x00000000        0x0 ../lib/liblwip.a(netif.o)
 .xtensa.info   0x00000000        0x0 ../lib/liblwip.a(pbuf.o)
 .xtensa.info   0x00000000        0x0 ../lib/liblwip.a(ping.o)
 .xtensa.info   0x00000000        0x0 ../lib/liblwip.a(raw.o)
 .xtensa.info   0x00000000        0x0 ../lib/liblwip.a(tcp_in.o)
 .xtensa.info   0x00000000        0x0 ../lib/liblwip.a(tcp.o)
 .xtensa.info   0x00000000        0x0 ../lib/liblwip.a(tcp_out.o)
 .xtensa.info   0x00000000        0x0 ../lib/liblwip.a(timers.o)
 .xtensa.info   0x00000000        0x0 ../lib/liblwip.a(udp.o)
 .xtensa.info   0x00000000        0x0 ../lib/liblwip.a(icmp.o)
 .xtensa.info   0x00000000        0x0 ../lib/libwpa.a(ap_config.o)
 .xtensa.info   0x00000000        0x0 ../lib/libwpa.a(common.o)
 .xtensa.info   0x00000000        0x0 ../lib/libwpa.a(os_xtensa.o)
 .xtensa.info   0x00000000        0x0 ../lib/libwpa.a(wpa_auth.o)
 .xtensa.info   0x00000000        0x0 ../lib/libwpa.a(wpa_auth_ie.o)
 .xtensa.info   0x00000000        0x0 ../lib/libwpa.a(wpa.o)
 .xtensa.info   0x00000000        0x0 ../lib/libwpa.a(wpa_common.o)
 .xtensa.info   0x00000000        0x0 ../lib/libwpa.a(wpa_debug.o)
 .xtensa.info   0x00000000        0x0 ../lib/libwpa.a(wpa_ie.o)
 .xtensa.info   0x00000000        0x0 ../lib/libwpa.a(wpa_main.o)
 .xtensa.info   0x00000000        0x0 ../lib/libwpa.a(wpas_glue.o)
 .xtensa.info   0x00000000        0x0 ../lib/libcrypto.a(aes-wrap.o)
 .xtensa.info   0x00000000        0x0 ../lib/libcrypto.a(aes-internal-enc.o)
 .xtensa.info   0x00000000        0x0 ../lib/libcrypto.a(aes-internal.o)
 .xtensa.info   0x00000000        0x0 ../lib/libssl.a(espconn_secure.o)
 .xtensa.info   0x00000000        0x0 ../lib/libssl.a(espconn_ssl.o)
 .xtensa.info   0x00000000        0x0 ../lib/libssl.a(ssl_loader.o)
 .xtensa.info   0x00000000        0x0 ../lib/libssl.a(ssl_md5.o)
 .xtensa.info   0x00000000        0x0 ../lib/libssl.a(ssl_tls1_clnt.o)
 .xtensa.info   0x00000000        0x0 ../lib/libssl.a(ssl_tls1.o)
 .xtensa.info   0x00000000        0x0 ../lib/libssl.a(ssl_tls1_svr.o)
 .xtensa.info   0x00000000        0x0 ../lib/libssl.a(ssl_x509.o)
 .xtensa.info   0x00000000        0x0 ../lib/libssl.a(sha256.o)
 .xtensa.info   0x00000000        0x0 ../lib/libssl.a(sha384.o)
 .xtensa.info   0x00000000        0x0 ../lib/libssl.a(sha512.o)
 .xtensa.info   0x00000000        0x0 ../lib/libssl.a(ssl_aes.o)
 .xtensa.info   0x00000000        0x0 ../lib/libssl.a(ssl_asn1.o)
 .xtensa.info   0x00000000        0x0 ../lib/libssl.a(ssl_bigint.o)
 .xtensa.info   0x00000000        0x0 ../lib/libssl.a(ssl_crypto_misc.o)
 .xtensa.info   0x00000000        0x0 ../lib/libssl.a(ssl_hmac.o)
 .xtensa.info   0x00000000        0x0 ../lib/libssl.a(ssl_os_port.o)
 .xtensa.info   0x00000000        0x0 ../lib/libssl.a(ssl_rc4.o)
 .xtensa.info   0x00000000        0x0 ../lib/libssl.a(ssl_rsa.o)
 .xtensa.info   0x00000000        0x0 ../lib/libssl.a(ssl_sha1.o)
 .xtensa.info   0x00000000        0x0 ../lib/libwps.a(wps.o)
 .xtensa.info   0x00000000        0x0 ../lib/libwps.a(wps_common.o)
 .xtensa.info   0x00000000        0x0 ../lib/libwps.a(wps_dev_attr.o)
 .xtensa.info   0x00000000        0x0 ../lib/libwps.a(wps_enrollee.o)
 .xtensa.info   0x00000000        0x0 ../lib/libwps.a(wps_registrar.o)
 .xtensa.info   0x00000000        0x0 ../lib/libwps.a(wps_validate.o)
 .xtensa.info   0x00000000        0x0 ../lib/libwps.a(eap_common.o)
 .xtensa.info   0x00000000        0x0 ../lib/libwps.a(uuid.o)
 .xtensa.info   0x00000000        0x0 ../lib/libwps.a(wps_attr_build.o)
 .xtensa.info   0x00000000        0x0 ../lib/libwps.a(wps_attr_parse.o)
 .xtensa.info   0x00000000        0x0 ../lib/libwps.a(wps_attr_process.o)
 .xtensa.info   0x00000000        0x0 ../lib/libsmartconfig.a(sc_sniffer.o)
 .xtensa.info   0x00000000        0x0 ../lib/libsmartconfig.a(sc_airkiss.o)
 .xtensa.info   0x00000000        0x0 ../lib/libsmartconfig.a(sc_esptouch.o)
 .xtensa.info   0x00000000        0x0 ../lib/libwilddog.a(wilddog_api.o)
 .xtensa.info   0x00000000        0x0 ../lib/libwilddog.a(wilddog_common.o)
 .xtensa.info   0x00000000        0x0 ../lib/libwilddog.a(wilddog_ct.o)
 .xtensa.info   0x00000000        0x0 ../lib/libwilddog.a(wilddog_espressif.o)
 .xtensa.info   0x00000000        0x0 ../lib/libwilddog.a(wilddog_node.o)
 .xtensa.info   0x00000000        0x0 ../lib/libwilddog.a(wilddog_store.o)
 .xtensa.info   0x00000000        0x0 ../lib/libwilddog.a(wilddog_url_parser.o)
 .xtensa.info   0x00000000        0x0 ../lib/libwilddog.a(wilddog_conn.o)
 .xtensa.info   0x00000000        0x0 ../lib/libwilddog.a(wilddog_conn_coap.o)
 .xtensa.info   0x00000000        0x0 ../lib/libwilddog.a(wilddog_conn_manage.o)
 .xtensa.info   0x00000000        0x0 ../lib/libwilddog.a(wilddog_event.o)
 .xtensa.info   0x00000000        0x0 ../lib/libwilddog.a(wilddog_nosec.o)
 .xtensa.info   0x00000000        0x0 ../lib/libwilddog.a(wilddog_sec_host.o)
 .xtensa.info   0x00000000        0x0 ../lib/libwilddog.a(option.o)
 .xtensa.info   0x00000000        0x0 ../lib/libwilddog.a(pdu.o)
 .xtensa.info   0x00000000        0x0 ../lib/libwilddog.a(wilddog_cbor.o)
 .xtensa.info   0x00000000        0x0 ../lib/libairkiss.a(airlink.o)
 .xtensa.info   0x00000000        0x0 /opt/xtensa-lx106-elf/bin/../lib/gcc/xtensa-lx106-elf/4.8.2/libc.a(atoi.o)
 .xtensa.info   0x00000000        0x0 /opt/xtensa-lx106-elf/bin/../lib/gcc/xtensa-lx106-elf/4.8.2/libc.a(rand.o)
 .xtensa.info   0x00000000        0x0 /opt/xtensa-lx106-elf/bin/../lib/gcc/xtensa-lx106-elf/4.8.2/libc.a(strchr.o)
 .xtensa.info   0x00000000        0x0 /opt/xtensa-lx106-elf/bin/../lib/gcc/xtensa-lx106-elf/4.8.2/libc.a(strtol.o)
 .xtensa.info   0x00000000        0x0 /opt/xtensa-lx106-elf/bin/../lib/gcc/xtensa-lx106-elf/4.8.2/libc.a(impure.o)
 .xtensa.info   0x00000000        0x0 ../lib/libgcc.a(_ashrdi3.o)
 .xtensa.info   0x00000000        0x0 ../lib/libgcc.a(_mulsf3.o)
 .xtensa.info   0x00000000        0x0 ../lib/libgcc.a(_divsf3.o)
 .xtensa.info   0x00000000        0x0 ../lib/libgcc.a(_fixsfsi.o)
 .xtensa.info   0x00000000        0x0 ../lib/libgcc.a(_cmpdf2.o)
 .xtensa.info   0x00000000        0x0 ../lib/libnet80211.a(ieee80211_crypto_tkip.o)
 .xtensa.info   0x00000000        0x0 ../lib/libnet80211.a(ieee80211_crypto_wep.o)
 .xtensa.info   0x00000000        0x0 ../lib/libwpa.a(wpabuf.o)
 .xtensa.info   0x00000000        0x0 ../lib/libcrypto.a(aes-cbc.o)
 .xtensa.info   0x00000000        0x0 ../lib/libcrypto.a(aes-internal-dec.o)
 .xtensa.info   0x00000000        0x0 ../lib/libcrypto.a(dh_group5.o)
 .xtensa.info   0x00000000        0x0 ../lib/libcrypto.a(dh_groups.o)
 .xtensa.info   0x00000000        0x0 ../lib/libcrypto.a(sha256.o)
 .xtensa.info   0x00000000        0x0 ../lib/libcrypto.a(sha256-internal.o)
 .xtensa.info   0x00000000        0x0 ../lib/libcrypto.a(crypto_internal-modexp.o)
 .xtensa.info   0x00000000        0x0 ../lib/libcrypto.a(bignum.o)

.xt.prop        0x00000000    0x4b210
 .xt.prop       0x00000000       0x18 ../lib/libmain.a(debug-vector.o)
 .xt.prop       0x00000018       0x18 ../lib/libmain.a(double-vector.o)
 .xt.prop       0x00000030       0x18 ../lib/libmain.a(kernel-vector.o)
 .xt.prop       0x00000048       0x30 ../lib/libmain.a(nmi-vector.o)
                                 0x3c (size before relaxing)
 .xt.prop       0x00000078       0x30 ../lib/libmain.a(user-vector.o)
                                 0x3c (size before relaxing)
 .xt.prop       0x000000a8       0x18 ../lib/libmain.a(vector.o)
 .xt.prop       0x000000c0      0xd98 ../lib/libmain.a(app_main.o)
                                0xe28 (size before relaxing)
 .xt.prop       0x00000e58      0x5e8 ../lib/libmain.a(ets_timer.o)
                                0x630 (size before relaxing)
 .xt.prop       0x00001440      0x3e4 ../lib/libmain.a(mem_manager.o)
                                0x474 (size before relaxing)
 .xt.prop       0x00001824      0x384 ../lib/libmain.a(spi_flash.o)
                                0x39c (size before relaxing)
 .xt.prop       0x00001ba8     0x35dc ../lib/libmain.a(user_interface.o)
                               0x3768 (size before relaxing)
 .xt.prop       0x00005184      0x858 ../lib/libmain.a(eagle_lib.o)
 .xt.prop       0x000059dc      0x270 ../lib/libmain.a(eagle_lwip_if.o)
                                0x2a0 (size before relaxing)
 .xt.prop       0x00005c4c       0x48 user/.output/eagle/debug/lib/libuser.a(user_main.o)
 .xt.prop       0x00005c94      0xa20 user/.output/eagle/debug/lib/libuser.a(AtCmd_Drv.o)
 .xt.prop       0x000066b4      0x2b8 user/.output/eagle/debug/lib/libuser.a(AirKiss_Drv.o)
 .xt.prop       0x0000696c       0x90 user/.output/eagle/debug/lib/libuser.a(user_tcpclient.o)
 .xt.prop       0x000069fc       0xe4 user/.output/eagle/debug/lib/libuser.a(WildDog_Drv.o)
 .xt.prop       0x00006ae0      0x15c user/.output/eagle/debug/lib/libuser.a(GlobalFunc.o)
 .xt.prop       0x00006c3c      0x1c8 user/.output/eagle/debug/lib/libuser.a(GizCmdTest.o)
 .xt.prop       0x00006e04      0x3a8 user/.output/eagle/debug/lib/libuser.a(WDJson_Drv.o)
 .xt.prop       0x000071ac      0x114 user/.output/eagle/debug/lib/libuser.a(Serial_Drv.o)
 .xt.prop       0x000072c0       0xfc user/.output/eagle/debug/lib/libuser.a(SensorInterface.o)
 .xt.prop       0x000073bc       0x6c user/.output/eagle/debug/lib/libuser.a(WifiInterface.o)
 .xt.prop       0x00007428      0x414 ../lib/libat.a(at_baseCmd.o)
                                0x42c (size before relaxing)
 .xt.prop       0x0000783c      0x30c ../lib/libat.a(at_cmd.o)
                                0x318 (size before relaxing)
 .xt.prop       0x00007b48     0x3384 ../lib/libat.a(at_ipCmd.o)
                               0x34e0 (size before relaxing)
 .xt.prop       0x0000aecc       0x90 ../lib/libat.a(at_nv_data.o)
                                 0xa8 (size before relaxing)
 .xt.prop       0x0000af5c      0x60c ../lib/libat.a(at_port.o)
                                0x6fc (size before relaxing)
 .xt.prop       0x0000b568     0x2550 ../lib/libat.a(at_wifiCmd.o)
                               0x2628 (size before relaxing)
 .xt.prop       0x0000dab8      0xedc ../lib/libat.a(uart.o)
                                0xf30 (size before relaxing)
 .xt.prop       0x0000e994      0x15c ../lib/libat.a(at_init_para.o)
                                0x168 (size before relaxing)
 .xt.prop       0x0000eaf0       0x24 /opt/xtensa-lx106-elf/bin/../lib/gcc/xtensa-lx106-elf/4.8.2/libc.a(islower.o)
 .xt.prop       0x0000eb14       0x60 /opt/xtensa-lx106-elf/bin/../lib/gcc/xtensa-lx106-elf/4.8.2/libc.a(memcmp.o)
 .xt.prop       0x0000eb74      0x1bc /opt/xtensa-lx106-elf/bin/../lib/gcc/xtensa-lx106-elf/4.8.2/libc.a(memcpy.o)
 .xt.prop       0x0000ed30       0xd8 /opt/xtensa-lx106-elf/bin/../lib/gcc/xtensa-lx106-elf/4.8.2/libc.a(memset.o)
 .xt.prop       0x0000ee08        0x0 /opt/xtensa-lx106-elf/bin/../lib/gcc/xtensa-lx106-elf/4.8.2/libc.a(ctype_.o)
                                 0x18 (size before relaxing)
 .xt.prop       0x0000ee08       0x84 ../lib/libgcc.a(_modsi3.o)
 .xt.prop       0x0000ee8c       0x18 /opt/xtensa-lx106-elf/bin/../lib/gcc/xtensa-lx106-elf/4.8.2/libhal.a(int_asm--set_intclear.o)
 .xt.prop       0x0000eea4      0x1d4 ../lib/libphy.a(phy.o)
                                0x1e0 (size before relaxing)
 .xt.prop       0x0000f078      0xdb0 ../lib/libphy.a(phy_chip_v6_ana.o)
                                0xdc8 (size before relaxing)
 .xt.prop       0x0000fe28     0x20b8 ../lib/libphy.a(phy_chip_v6.o)
                               0x228c (size before relaxing)
 .xt.prop       0x00011ee0      0xfa8 ../lib/libphy.a(phy_chip_v6_cal.o)
                               0x1014 (size before relaxing)
 .xt.prop       0x00012e88       0x60 ../lib/libphy.a(phy_chip_v6_unused.o)
                                 0x6c (size before relaxing)
 .xt.prop       0x00012ee8      0x858 ../lib/libphy.a(phy_sleep.o)
                                0x8ac (size before relaxing)
 .xt.prop       0x00013740      0x4ec ../lib/libpp.a(if_hwctrl.o)
                                0x51c (size before relaxing)
 .xt.prop       0x00013c2c     0x14f4 ../lib/libpp.a(lmac.o)
                               0x1548 (size before relaxing)
 .xt.prop       0x00015120     0x15c0 ../lib/libpp.a(pm.o)
                               0x1698 (size before relaxing)
 .xt.prop       0x000166e0      0x954 ../lib/libpp.a(pm_for_bcn_only_mode.o)
                                0x978 (size before relaxing)
 .xt.prop       0x00017034     0x195c ../lib/libpp.a(pp.o)
                               0x1b0c (size before relaxing)
 .xt.prop       0x00018990      0x1bc ../lib/libpp.a(rate_control.o)
                                0x1d4 (size before relaxing)
 .xt.prop       0x00018b4c     0x1140 ../lib/libpp.a(trc.o)
                               0x11a0 (size before relaxing)
 .xt.prop       0x00019c8c     0x1284 ../lib/libpp.a(wdev.o)
                               0x135c (size before relaxing)
 .xt.prop       0x0001af10      0x264 ../lib/libpp.a(esf_buf.o)
                                0x2e8 (size before relaxing)
 .xt.prop       0x0001b174      0x4a4 ../lib/libnet80211.a(ieee80211.o)
                                0x4c8 (size before relaxing)
 .xt.prop       0x0001b618      0x15c ../lib/libnet80211.a(ieee80211_crypto.o)
 .xt.prop       0x0001b774       0x48 ../lib/libnet80211.a(ieee80211_ets.o)
 .xt.prop       0x0001b7bc      0xe7c ../lib/libnet80211.a(ieee80211_hostap.o)
                                0xf84 (size before relaxing)
 .xt.prop       0x0001c638      0x684 ../lib/libnet80211.a(ieee80211_ht.o)
                                0x690 (size before relaxing)
 .xt.prop       0x0001ccbc      0x8d0 ../lib/libnet80211.a(ieee80211_input.o)
                                0x8dc (size before relaxing)
 .xt.prop       0x0001d58c      0x468 ../lib/libnet80211.a(ieee80211_mesh_quick.o)
 .xt.prop       0x0001d9f4     0x11d0 ../lib/libnet80211.a(ieee80211_output.o)
                               0x11e8 (size before relaxing)
 .xt.prop       0x0001ebc4      0x108 ../lib/libnet80211.a(ieee80211_phy.o)
 .xt.prop       0x0001eccc      0x1bc ../lib/libnet80211.a(ieee80211_power.o)
 .xt.prop       0x0001ee88      0x114 ../lib/libnet80211.a(ieee80211_proto.o)
                                0x120 (size before relaxing)
 .xt.prop       0x0001ef9c      0x12c ../lib/libnet80211.a(ieee80211_rfid.o)
 .xt.prop       0x0001f0c8      0xc60 ../lib/libnet80211.a(ieee80211_scan.o)
                                0xcfc (size before relaxing)
 .xt.prop       0x0001fd28      0xa80 ../lib/libnet80211.a(ieee80211_sta.o)
                                0xaa4 (size before relaxing)
 .xt.prop       0x000207a8      0x2d0 ../lib/libnet80211.a(wl_chm.o)
                                0x2dc (size before relaxing)
 .xt.prop       0x00020a78     0x11ac ../lib/libnet80211.a(wl_cnx.o)
                               0x1218 (size before relaxing)
 .xt.prop       0x00021c24      0x33c ../lib/libnet80211.a(ieee80211_action.o)
 .xt.prop       0x00021f60      0x354 ../lib/libnet80211.a(ieee80211_action_vendor.o)
                                0x384 (size before relaxing)
 .xt.prop       0x000222b4       0xcc ../lib/libnet80211.a(ieee80211_crypto_ccmp.o)
                                 0xd8 (size before relaxing)
 .xt.prop       0x00022380      0x114 ../lib/libnet80211.a(ieee80211_ie_vendor.o)
 .xt.prop       0x00022494      0xd98 ../lib/liblwip.a(dhcp.o)
                                0xdbc (size before relaxing)
 .xt.prop       0x0002322c      0xae0 ../lib/liblwip.a(dhcpserver.o)
                                0xb40 (size before relaxing)
 .xt.prop       0x00023d0c      0x45c ../lib/liblwip.a(dns.o)
                                0x4c8 (size before relaxing)
 .xt.prop       0x00024168      0x168 ../lib/liblwip.a(espconn_mdns.o)
 .xt.prop       0x000242d0      0xf24 ../lib/liblwip.a(espconn.o)
                                0xf84 (size before relaxing)
 .xt.prop       0x000251f4      0xdb0 ../lib/liblwip.a(espconn_tcp.o)
                                0xdbc (size before relaxing)
 .xt.prop       0x00025fa4      0x330 ../lib/liblwip.a(espconn_udp.o)
                                0x33c (size before relaxing)
 .xt.prop       0x000262d4      0x708 ../lib/liblwip.a(etharp.o)
                                0x750 (size before relaxing)
 .xt.prop       0x000269dc      0x63c ../lib/liblwip.a(igmp.o)
                                0x66c (size before relaxing)
 .xt.prop       0x00027018      0x168 ../lib/liblwip.a(inet_chksum.o)
 .xt.prop       0x00027180       0x24 ../lib/liblwip.a(init.o)
 .xt.prop       0x000271a4      0x324 ../lib/liblwip.a(ip_addr.o)
                                0x330 (size before relaxing)
 .xt.prop       0x000274c8      0x438 ../lib/liblwip.a(ip.o)
                                0x480 (size before relaxing)
 .xt.prop       0x00027900      0xa20 ../lib/liblwip.a(mdns.o)
                                0xb40 (size before relaxing)
 .xt.prop       0x00028320        0x0 ../lib/liblwip.a(memp.o)
                                 0x18 (size before relaxing)
 .xt.prop       0x00028320      0x330 ../lib/liblwip.a(netif.o)
                                0x354 (size before relaxing)
 .xt.prop       0x00028650      0x7a4 ../lib/liblwip.a(pbuf.o)
                                0x7b0 (size before relaxing)
 .xt.prop       0x00028df4      0x2d0 ../lib/liblwip.a(ping.o)
                                0x300 (size before relaxing)
 .xt.prop       0x000290c4      0x294 ../lib/liblwip.a(raw.o)
                                0x2ac (size before relaxing)
 .xt.prop       0x00029358      0xc6c ../lib/liblwip.a(tcp_in.o)
                                0xcfc (size before relaxing)
 .xt.prop       0x00029fc4      0xcfc ../lib/liblwip.a(tcp.o)
                                0xd68 (size before relaxing)
 .xt.prop       0x0002acc0      0x8dc ../lib/liblwip.a(tcp_out.o)
                                0x8e8 (size before relaxing)
 .xt.prop       0x0002b59c      0x354 ../lib/liblwip.a(timers.o)
                                0x384 (size before relaxing)
 .xt.prop       0x0002b8f0      0x5a0 ../lib/liblwip.a(udp.o)
                                0x5b8 (size before relaxing)
 .xt.prop       0x0002be90      0x114 ../lib/liblwip.a(icmp.o)
 .xt.prop       0x0002bfa4      0x2e8 ../lib/libwpa.a(ap_config.o)
                                0x2f4 (size before relaxing)
 .xt.prop       0x0002c28c      0x21c ../lib/libwpa.a(common.o)
                                0x228 (size before relaxing)
 .xt.prop       0x0002c4a8       0xf0 ../lib/libwpa.a(os_xtensa.o)
                                 0xfc (size before relaxing)
 .xt.prop       0x0002c598     0x1668 ../lib/libwpa.a(wpa_auth.o)
 .xt.prop       0x0002dc00      0x480 ../lib/libwpa.a(wpa_auth_ie.o)
                                0x48c (size before relaxing)
 .xt.prop       0x0002e080      0xd8c ../lib/libwpa.a(wpa.o)
                                0xdb0 (size before relaxing)
 .xt.prop       0x0002ee0c      0x7a4 ../lib/libwpa.a(wpa_common.o)
 .xt.prop       0x0002f5b0       0xc0 ../lib/libwpa.a(wpa_debug.o)
 .xt.prop       0x0002f670      0x378 ../lib/libwpa.a(wpa_ie.o)
 .xt.prop       0x0002f9e8      0x330 ../lib/libwpa.a(wpa_main.o)
                                0x33c (size before relaxing)
 .xt.prop       0x0002fd18      0x12c ../lib/libwpa.a(wpas_glue.o)
 .xt.prop       0x0002fe44       0x6c ../lib/libcrypto.a(aes-wrap.o)
 .xt.prop       0x0002feb0       0xd8 ../lib/libcrypto.a(aes-internal-enc.o)
                                 0xe4 (size before relaxing)
 .xt.prop       0x0002ff88       0xb4 ../lib/libcrypto.a(aes-internal.o)
 .xt.prop       0x0003003c      0x504 ../lib/libssl.a(espconn_secure.o)
                                0x54c (size before relaxing)
 .xt.prop       0x00030540     0x1140 ../lib/libssl.a(espconn_ssl.o)
                               0x11a0 (size before relaxing)
 .xt.prop       0x00031680      0x408 ../lib/libssl.a(ssl_loader.o)
                                0x420 (size before relaxing)
 .xt.prop       0x00031a88      0x15c ../lib/libssl.a(ssl_md5.o)
                                0x168 (size before relaxing)
 .xt.prop       0x00031be4      0x33c ../lib/libssl.a(ssl_tls1_clnt.o)
 .xt.prop       0x00031f20     0x1980 ../lib/libssl.a(ssl_tls1.o)
                               0x19e0 (size before relaxing)
 .xt.prop       0x000338a0      0x390 ../lib/libssl.a(ssl_tls1_svr.o)
 .xt.prop       0x00033c30      0x594 ../lib/libssl.a(ssl_x509.o)
                                0x5a0 (size before relaxing)
 .xt.prop       0x000341c4       0xe4 ../lib/libssl.a(sha256.o)
                                 0xf0 (size before relaxing)
 .xt.prop       0x000342a8       0x78 ../lib/libssl.a(sha384.o)
 .xt.prop       0x00034320      0x210 ../lib/libssl.a(sha512.o)
 .xt.prop       0x00034530      0x300 ../lib/libssl.a(ssl_aes.o)
                                0x30c (size before relaxing)
 .xt.prop       0x00034830      0x81c ../lib/libssl.a(ssl_asn1.o)
 .xt.prop       0x0003504c      0xc0c ../lib/libssl.a(ssl_bigint.o)
                                0xc18 (size before relaxing)
 .xt.prop       0x00035c58      0x234 ../lib/libssl.a(ssl_crypto_misc.o)
                                0x258 (size before relaxing)
 .xt.prop       0x00035e8c       0x60 ../lib/libssl.a(ssl_hmac.o)
 .xt.prop       0x00035eec       0x30 ../lib/libssl.a(ssl_os_port.o)
 .xt.prop       0x00035f1c       0x6c ../lib/libssl.a(ssl_rc4.o)
 .xt.prop       0x00035f88      0x24c ../lib/libssl.a(ssl_rsa.o)
                                0x258 (size before relaxing)
 .xt.prop       0x000361d4      0x174 ../lib/libssl.a(ssl_sha1.o)
                                0x180 (size before relaxing)
 .xt.prop       0x00036348     0x13f8 ../lib/libwps.a(wps.o)
                               0x1428 (size before relaxing)
 .xt.prop       0x00037740      0x504 ../lib/libwps.a(wps_common.o)
                                0x510 (size before relaxing)
 .xt.prop       0x00037c44      0x66c ../lib/libwps.a(wps_dev_attr.o)
                                0x678 (size before relaxing)
 .xt.prop       0x000382b0      0xfb4 ../lib/libwps.a(wps_enrollee.o)
 .xt.prop       0x00039264     0x23e8 ../lib/libwps.a(wps_registrar.o)
                               0x23f4 (size before relaxing)
 .xt.prop       0x0003b64c     0x162c ../lib/libwps.a(wps_validate.o)
 .xt.prop       0x0003cc78      0x1ec ../lib/libwps.a(eap_common.o)
 .xt.prop       0x0003ce64       0xd8 ../lib/libwps.a(uuid.o)
 .xt.prop       0x0003cf3c      0x498 ../lib/libwps.a(wps_attr_build.o)
 .xt.prop       0x0003d3d4      0x768 ../lib/libwps.a(wps_attr_parse.o)
 .xt.prop       0x0003db3c      0x3c0 ../lib/libwps.a(wps_attr_process.o)
 .xt.prop       0x0003defc      0x900 ../lib/libsmartconfig.a(sc_sniffer.o)
                                0x948 (size before relaxing)
 .xt.prop       0x0003e7fc     0x1410 ../lib/libsmartconfig.a(sc_airkiss.o)
                               0x14a0 (size before relaxing)
 .xt.prop       0x0003fc0c     0x1890 ../lib/libsmartconfig.a(sc_esptouch.o)
                               0x1950 (size before relaxing)
 .xt.prop       0x0004149c      0x648 ../lib/libwilddog.a(wilddog_api.o)
 .xt.prop       0x00041ae4      0x2a0 ../lib/libwilddog.a(wilddog_common.o)
 .xt.prop       0x00041d84      0xa8c ../lib/libwilddog.a(wilddog_ct.o)
 .xt.prop       0x00042810      0x2ac ../lib/libwilddog.a(wilddog_espressif.o)
 .xt.prop       0x00042abc      0xae0 ../lib/libwilddog.a(wilddog_node.o)
 .xt.prop       0x0004359c      0x27c ../lib/libwilddog.a(wilddog_store.o)
 .xt.prop       0x00043818      0x864 ../lib/libwilddog.a(wilddog_url_parser.o)
 .xt.prop       0x0004407c      0xb34 ../lib/libwilddog.a(wilddog_conn.o)
 .xt.prop       0x00044bb0      0x7bc ../lib/libwilddog.a(wilddog_conn_coap.o)
                                0x7c8 (size before relaxing)
 .xt.prop       0x0004536c     0x12f0 ../lib/libwilddog.a(wilddog_conn_manage.o)
 .xt.prop       0x0004665c      0x588 ../lib/libwilddog.a(wilddog_event.o)
 .xt.prop       0x00046be4      0x120 ../lib/libwilddog.a(wilddog_nosec.o)
 .xt.prop       0x00046d04       0x48 ../lib/libwilddog.a(wilddog_sec_host.o)
 .xt.prop       0x00046d4c      0x6a8 ../lib/libwilddog.a(option.o)
 .xt.prop       0x000473f4      0x594 ../lib/libwilddog.a(pdu.o)
 .xt.prop       0x00047988      0xd50 ../lib/libwilddog.a(wilddog_cbor.o)
 .xt.prop       0x000486d8      0x120 ../lib/libairkiss.a(airlink.o)
 .xt.prop       0x000487f8       0x30 /opt/xtensa-lx106-elf/bin/../lib/gcc/xtensa-lx106-elf/4.8.2/libc.a(atoi.o)
                                 0x3c (size before relaxing)
 .xt.prop       0x00048828       0x54 /opt/xtensa-lx106-elf/bin/../lib/gcc/xtensa-lx106-elf/4.8.2/libc.a(rand.o)
 .xt.prop       0x0004887c       0xc0 /opt/xtensa-lx106-elf/bin/../lib/gcc/xtensa-lx106-elf/4.8.2/libc.a(strchr.o)
 .xt.prop       0x0004893c      0x138 /opt/xtensa-lx106-elf/bin/../lib/gcc/xtensa-lx106-elf/4.8.2/libc.a(strtol.o)
 .xt.prop       0x00048a74       0x90 /opt/xtensa-lx106-elf/bin/../lib/gcc/xtensa-lx106-elf/4.8.2/libc.a(impure.o)
                                 0xc0 (size before relaxing)
 .xt.prop       0x00048b04       0x3c ../lib/libgcc.a(_ashrdi3.o)
 .xt.prop       0x00048b40      0x168 ../lib/libgcc.a(_mulsf3.o)
 .xt.prop       0x00048ca8      0x15c ../lib/libgcc.a(_divsf3.o)
                                0x168 (size before relaxing)
 .xt.prop       0x00048e04       0x60 ../lib/libgcc.a(_fixsfsi.o)
                                 0x6c (size before relaxing)
 .xt.prop       0x00048e64      0x288 ../lib/libgcc.a(_cmpdf2.o)
 .xt.prop       0x000490ec       0xe4 ../lib/libnet80211.a(ieee80211_crypto_tkip.o)
                                 0xfc (size before relaxing)
 .xt.prop       0x000491d0       0x6c ../lib/libnet80211.a(ieee80211_crypto_wep.o)
                                 0x78 (size before relaxing)
 .xt.prop       0x0004923c      0x384 ../lib/libwpa.a(wpabuf.o)
                                0x390 (size before relaxing)
 .xt.prop       0x000495c0       0xd8 ../lib/libcrypto.a(aes-cbc.o)
 .xt.prop       0x00049698      0x138 ../lib/libcrypto.a(aes-internal-dec.o)
                                0x144 (size before relaxing)
 .xt.prop       0x000497d0       0x60 ../lib/libcrypto.a(dh_group5.o)
 .xt.prop       0x00049830      0x138 ../lib/libcrypto.a(dh_groups.o)
                                0x144 (size before relaxing)
 .xt.prop       0x00049968       0xcc ../lib/libcrypto.a(sha256.o)
 .xt.prop       0x00049a34      0x204 ../lib/libcrypto.a(sha256-internal.o)
                                0x21c (size before relaxing)
 .xt.prop       0x00049c38       0x54 ../lib/libcrypto.a(crypto_internal-modexp.o)
 .xt.prop       0x00049c8c     0x1584 ../lib/libcrypto.a(bignum.o)
                               0x1590 (size before relaxing)

.xt.lit         0x00000000     0x2388
 .xt.lit        0x00000000        0x8 ../lib/libmain.a(nmi-vector.o)
                                 0x10 (size before relaxing)
 .xt.lit        0x00000008        0x8 ../lib/libmain.a(user-vector.o)
                                 0x10 (size before relaxing)
 .xt.lit        0x00000010        0x8 ../lib/libmain.a(vector.o)
 .xt.lit        0x00000018       0x98 ../lib/libmain.a(app_main.o)
                                 0xa0 (size before relaxing)
 .xt.lit        0x000000b0       0x48 ../lib/libmain.a(ets_timer.o)
 .xt.lit        0x000000f8       0x40 ../lib/libmain.a(mem_manager.o)
                                 0x60 (size before relaxing)
 .xt.lit        0x00000138       0x58 ../lib/libmain.a(spi_flash.o)
 .xt.lit        0x00000190      0x1e8 ../lib/libmain.a(user_interface.o)
                                0x498 (size before relaxing)
 .xt.lit        0x00000378       0x18 ../lib/libmain.a(eagle_lib.o)
 .xt.lit        0x00000390        0x8 ../lib/libmain.a(eagle_lwip_if.o)
                                 0x28 (size before relaxing)
 .xt.lit        0x00000398        0x8 user/.output/eagle/debug/lib/libuser.a(user_main.o)
 .xt.lit        0x000003a0      0x100 user/.output/eagle/debug/lib/libuser.a(AtCmd_Drv.o)
                                0x170 (size before relaxing)
 .xt.lit        0x000004a0       0x28 user/.output/eagle/debug/lib/libuser.a(AirKiss_Drv.o)
                                 0x30 (size before relaxing)
 .xt.lit        0x000004c8        0x8 user/.output/eagle/debug/lib/libuser.a(user_tcpclient.o)
                                 0x10 (size before relaxing)
 .xt.lit        0x000004d0       0x20 user/.output/eagle/debug/lib/libuser.a(WildDog_Drv.o)
 .xt.lit        0x000004f0        0x8 user/.output/eagle/debug/lib/libuser.a(GlobalFunc.o)
                                 0x18 (size before relaxing)
 .xt.lit        0x000004f8       0x30 user/.output/eagle/debug/lib/libuser.a(GizCmdTest.o)
                                 0x38 (size before relaxing)
 .xt.lit        0x00000528       0x58 user/.output/eagle/debug/lib/libuser.a(WDJson_Drv.o)
                                 0x60 (size before relaxing)
 .xt.lit        0x00000580       0x28 user/.output/eagle/debug/lib/libuser.a(Serial_Drv.o)
 .xt.lit        0x000005a8       0x28 user/.output/eagle/debug/lib/libuser.a(SensorInterface.o)
 .xt.lit        0x000005d0        0x0 user/.output/eagle/debug/lib/libuser.a(WifiInterface.o)
                                  0x8 (size before relaxing)
 .xt.lit        0x000005d0       0x30 ../lib/libat.a(at_baseCmd.o)
                                 0x70 (size before relaxing)
 .xt.lit        0x00000600       0x18 ../lib/libat.a(at_cmd.o)
                                 0x28 (size before relaxing)
 .xt.lit        0x00000618      0x188 ../lib/libat.a(at_ipCmd.o)
                                0x230 (size before relaxing)
 .xt.lit        0x000007a0       0x10 ../lib/libat.a(at_nv_data.o)
                                 0x18 (size before relaxing)
 .xt.lit        0x000007b0       0x28 ../lib/libat.a(at_port.o)
                                 0x48 (size before relaxing)
 .xt.lit        0x000007d8      0x120 ../lib/libat.a(at_wifiCmd.o)
                                0x228 (size before relaxing)
 .xt.lit        0x000008f8       0xa0 ../lib/libat.a(uart.o)
                                0x160 (size before relaxing)
 .xt.lit        0x00000998        0x8 ../lib/libat.a(at_init_para.o)
 .xt.lit        0x000009a0        0x8 /opt/xtensa-lx106-elf/bin/../lib/gcc/xtensa-lx106-elf/4.8.2/libc.a(islower.o)
 .xt.lit        0x000009a8       0x10 ../lib/libphy.a(phy.o)
                                 0x68 (size before relaxing)
 .xt.lit        0x000009b8       0x98 ../lib/libphy.a(phy_chip_v6_ana.o)
                                 0xc8 (size before relaxing)
 .xt.lit        0x00000a50      0x160 ../lib/libphy.a(phy_chip_v6.o)
                                0x248 (size before relaxing)
 .xt.lit        0x00000bb0       0x70 ../lib/libphy.a(phy_chip_v6_cal.o)
                                 0xe8 (size before relaxing)
 .xt.lit        0x00000c20       0x70 ../lib/libphy.a(phy_sleep.o)
                                 0xd0 (size before relaxing)
 .xt.lit        0x00000c90       0x30 ../lib/libpp.a(if_hwctrl.o)
                                 0xa0 (size before relaxing)
 .xt.lit        0x00000cc0       0x70 ../lib/libpp.a(lmac.o)
                                0x130 (size before relaxing)
 .xt.lit        0x00000d30       0xd8 ../lib/libpp.a(pm.o)
                                0x198 (size before relaxing)
 .xt.lit        0x00000e08       0x58 ../lib/libpp.a(pm_for_bcn_only_mode.o)
                                 0xa8 (size before relaxing)
 .xt.lit        0x00000e60       0xe0 ../lib/libpp.a(pp.o)
                                0x1b0 (size before relaxing)
 .xt.lit        0x00000f40       0x18 ../lib/libpp.a(rate_control.o)
                                 0x38 (size before relaxing)
 .xt.lit        0x00000f58       0x68 ../lib/libpp.a(trc.o)
                                 0xa8 (size before relaxing)
 .xt.lit        0x00000fc0       0xd8 ../lib/libpp.a(wdev.o)
                                0x198 (size before relaxing)
 .xt.lit        0x00001098       0x18 ../lib/libpp.a(esf_buf.o)
                                 0x20 (size before relaxing)
 .xt.lit        0x000010b0       0x28 ../lib/libnet80211.a(ieee80211.o)
                                 0x50 (size before relaxing)
 .xt.lit        0x000010d8        0x0 ../lib/libnet80211.a(ieee80211_crypto.o)
                                 0x10 (size before relaxing)
 .xt.lit        0x000010d8        0x8 ../lib/libnet80211.a(ieee80211_ets.o)
 .xt.lit        0x000010e0       0x68 ../lib/libnet80211.a(ieee80211_hostap.o)
                                 0x78 (size before relaxing)
 .xt.lit        0x00001148       0x48 ../lib/libnet80211.a(ieee80211_ht.o)
                                 0x70 (size before relaxing)
 .xt.lit        0x00001190       0x38 ../lib/libnet80211.a(ieee80211_input.o)
                                 0x60 (size before relaxing)
 .xt.lit        0x000011c8       0x18 ../lib/libnet80211.a(ieee80211_mesh_quick.o)
                                 0x28 (size before relaxing)
 .xt.lit        0x000011e0       0x38 ../lib/libnet80211.a(ieee80211_output.o)
                                 0xa8 (size before relaxing)
 .xt.lit        0x00001218        0x8 ../lib/libnet80211.a(ieee80211_phy.o)
                                 0x18 (size before relaxing)
 .xt.lit        0x00001220        0x8 ../lib/libnet80211.a(ieee80211_power.o)
                                 0x20 (size before relaxing)
 .xt.lit        0x00001228       0x18 ../lib/libnet80211.a(ieee80211_proto.o)
 .xt.lit        0x00001240        0x0 ../lib/libnet80211.a(ieee80211_rfid.o)
                                 0x30 (size before relaxing)
 .xt.lit        0x00001240       0x48 ../lib/libnet80211.a(ieee80211_scan.o)
                                 0xd8 (size before relaxing)
 .xt.lit        0x00001288       0x30 ../lib/libnet80211.a(ieee80211_sta.o)
                                 0x60 (size before relaxing)
 .xt.lit        0x000012b8       0x20 ../lib/libnet80211.a(wl_chm.o)
                                 0x60 (size before relaxing)
 .xt.lit        0x000012d8       0x90 ../lib/libnet80211.a(wl_cnx.o)
                                0x138 (size before relaxing)
 .xt.lit        0x00001368       0x20 ../lib/libnet80211.a(ieee80211_action.o)
                                 0x30 (size before relaxing)
 .xt.lit        0x00001388       0x20 ../lib/libnet80211.a(ieee80211_action_vendor.o)
                                 0x50 (size before relaxing)
 .xt.lit        0x000013a8        0x0 ../lib/libnet80211.a(ieee80211_crypto_ccmp.o)
                                 0x10 (size before relaxing)
 .xt.lit        0x000013a8        0x8 ../lib/libnet80211.a(ieee80211_ie_vendor.o)
                                 0x38 (size before relaxing)
 .xt.lit        0x000013b0       0x50 ../lib/liblwip.a(dhcp.o)
                                 0xc0 (size before relaxing)
 .xt.lit        0x00001400       0x30 ../lib/liblwip.a(dhcpserver.o)
                                 0xa8 (size before relaxing)
 .xt.lit        0x00001430       0x20 ../lib/liblwip.a(dns.o)
                                 0x48 (size before relaxing)
 .xt.lit        0x00001450        0x0 ../lib/liblwip.a(espconn_mdns.o)
                                 0x50 (size before relaxing)
 .xt.lit        0x00001450       0x28 ../lib/liblwip.a(espconn.o)
                                 0xe8 (size before relaxing)
 .xt.lit        0x00001478       0x68 ../lib/liblwip.a(espconn_tcp.o)
                                 0xc8 (size before relaxing)
 .xt.lit        0x000014e0       0x18 ../lib/liblwip.a(espconn_udp.o)
                                 0x38 (size before relaxing)
 .xt.lit        0x000014f8       0x30 ../lib/liblwip.a(etharp.o)
                                 0x78 (size before relaxing)
 .xt.lit        0x00001528       0x18 ../lib/liblwip.a(igmp.o)
                                 0x70 (size before relaxing)
 .xt.lit        0x00001540        0x8 ../lib/liblwip.a(init.o)
 .xt.lit        0x00001548        0x8 ../lib/liblwip.a(ip_addr.o)
                                 0x20 (size before relaxing)
 .xt.lit        0x00001550       0x10 ../lib/liblwip.a(ip.o)
                                 0x20 (size before relaxing)
 .xt.lit        0x00001560       0x50 ../lib/liblwip.a(mdns.o)
                                 0x80 (size before relaxing)
 .xt.lit        0x000015b0       0x10 ../lib/liblwip.a(netif.o)
                                 0x40 (size before relaxing)
 .xt.lit        0x000015c0       0x10 ../lib/liblwip.a(pbuf.o)
                                 0x48 (size before relaxing)
 .xt.lit        0x000015d0       0x28 ../lib/liblwip.a(ping.o)
                                 0x38 (size before relaxing)
 .xt.lit        0x000015f8       0x10 ../lib/liblwip.a(raw.o)
                                 0x20 (size before relaxing)
 .xt.lit        0x00001608       0x18 ../lib/liblwip.a(tcp_in.o)
                                 0x38 (size before relaxing)
 .xt.lit        0x00001620       0x50 ../lib/liblwip.a(tcp.o)
                                 0xb8 (size before relaxing)
 .xt.lit        0x00001670       0x28 ../lib/liblwip.a(tcp_out.o)
                                 0x68 (size before relaxing)
 .xt.lit        0x00001698       0x48 ../lib/liblwip.a(timers.o)
                                 0x68 (size before relaxing)
 .xt.lit        0x000016e0       0x10 ../lib/liblwip.a(udp.o)
                                 0x38 (size before relaxing)
 .xt.lit        0x000016f0        0x8 ../lib/liblwip.a(icmp.o)
                                 0x10 (size before relaxing)
 .xt.lit        0x000016f8       0x10 ../lib/libwpa.a(ap_config.o)
                                 0x40 (size before relaxing)
 .xt.lit        0x00001708       0x10 ../lib/libwpa.a(common.o)
                                 0x18 (size before relaxing)
 .xt.lit        0x00001718        0x8 ../lib/libwpa.a(os_xtensa.o)
                                 0x10 (size before relaxing)
 .xt.lit        0x00001720       0x70 ../lib/libwpa.a(wpa_auth.o)
                                0x100 (size before relaxing)
 .xt.lit        0x00001790       0x10 ../lib/libwpa.a(wpa_auth_ie.o)
                                 0x38 (size before relaxing)
 .xt.lit        0x000017a0       0x58 ../lib/libwpa.a(wpa.o)
                                0x110 (size before relaxing)
 .xt.lit        0x000017f8       0x28 ../lib/libwpa.a(wpa_common.o)
                                 0x58 (size before relaxing)
 .xt.lit        0x00001820        0x8 ../lib/libwpa.a(wpa_debug.o)
 .xt.lit        0x00001828        0x0 ../lib/libwpa.a(wpa_ie.o)
                                 0x18 (size before relaxing)
 .xt.lit        0x00001828       0x18 ../lib/libwpa.a(wpa_main.o)
                                 0x48 (size before relaxing)
 .xt.lit        0x00001840        0x0 ../lib/libwpa.a(wpas_glue.o)
                                 0x10 (size before relaxing)
 .xt.lit        0x00001840        0x0 ../lib/libcrypto.a(aes-wrap.o)
                                  0x8 (size before relaxing)
 .xt.lit        0x00001840       0x10 ../lib/libcrypto.a(aes-internal-enc.o)
                                 0x18 (size before relaxing)
 .xt.lit        0x00001850        0x8 ../lib/libcrypto.a(aes-internal.o)
 .xt.lit        0x00001858       0x10 ../lib/libssl.a(espconn_secure.o)
                                 0x68 (size before relaxing)
 .xt.lit        0x00001868       0x78 ../lib/libssl.a(espconn_ssl.o)
                                 0xf8 (size before relaxing)
 .xt.lit        0x000018e0       0x28 ../lib/libssl.a(ssl_loader.o)
                                 0x40 (size before relaxing)
 .xt.lit        0x00001908       0x18 ../lib/libssl.a(ssl_md5.o)
                                 0x20 (size before relaxing)
 .xt.lit        0x00001920        0x8 ../lib/libssl.a(ssl_tls1_clnt.o)
                                 0x30 (size before relaxing)
 .xt.lit        0x00001928       0x78 ../lib/libssl.a(ssl_tls1.o)
                                0x130 (size before relaxing)
 .xt.lit        0x000019a0       0x18 ../lib/libssl.a(ssl_tls1_svr.o)
                                 0x48 (size before relaxing)
 .xt.lit        0x000019b8       0x18 ../lib/libssl.a(ssl_x509.o)
                                 0x30 (size before relaxing)
 .xt.lit        0x000019d0       0x18 ../lib/libssl.a(sha256.o)
                                 0x20 (size before relaxing)
 .xt.lit        0x000019e8        0x8 ../lib/libssl.a(sha384.o)
                                 0x18 (size before relaxing)
 .xt.lit        0x000019f0       0x18 ../lib/libssl.a(sha512.o)
                                 0x20 (size before relaxing)
 .xt.lit        0x00001a08       0x18 ../lib/libssl.a(ssl_aes.o)
                                 0x30 (size before relaxing)
 .xt.lit        0x00001a20       0x40 ../lib/libssl.a(ssl_asn1.o)
                                 0x70 (size before relaxing)
 .xt.lit        0x00001a60       0x28 ../lib/libssl.a(ssl_bigint.o)
                                 0xc8 (size before relaxing)
 .xt.lit        0x00001a88       0x10 ../lib/libssl.a(ssl_crypto_misc.o)
                                 0x20 (size before relaxing)
 .xt.lit        0x00001a98        0x0 ../lib/libssl.a(ssl_hmac.o)
                                 0x10 (size before relaxing)
 .xt.lit        0x00001a98        0x8 ../lib/libssl.a(ssl_os_port.o)
 .xt.lit        0x00001aa0       0x10 ../lib/libssl.a(ssl_rsa.o)
                                 0x40 (size before relaxing)
 .xt.lit        0x00001ab0       0x10 ../lib/libssl.a(ssl_sha1.o)
                                 0x18 (size before relaxing)
 .xt.lit        0x00001ac0       0x90 ../lib/libwps.a(wps.o)
                                0x170 (size before relaxing)
 .xt.lit        0x00001b50       0x38 ../lib/libwps.a(wps_common.o)
                                 0x78 (size before relaxing)
 .xt.lit        0x00001b88       0x60 ../lib/libwps.a(wps_dev_attr.o)
                                 0xb0 (size before relaxing)
 .xt.lit        0x00001be8       0x58 ../lib/libwps.a(wps_enrollee.o)
                                0x130 (size before relaxing)
 .xt.lit        0x00001c40       0xa8 ../lib/libwps.a(wps_registrar.o)
                                0x290 (size before relaxing)
 .xt.lit        0x00001ce8        0x8 ../lib/libwps.a(wps_validate.o)
                                 0xd0 (size before relaxing)
 .xt.lit        0x00001cf0        0x8 ../lib/libwps.a(eap_common.o)
                                 0x28 (size before relaxing)
 .xt.lit        0x00001cf8        0x8 ../lib/libwps.a(uuid.o)
                                 0x10 (size before relaxing)
 .xt.lit        0x00001d00       0x88 ../lib/libwps.a(wps_attr_build.o)
                                 0xb8 (size before relaxing)
 .xt.lit        0x00001d88        0x8 ../lib/libwps.a(wps_attr_parse.o)
                                 0x18 (size before relaxing)
 .xt.lit        0x00001d90        0x0 ../lib/libwps.a(wps_attr_process.o)
                                 0x30 (size before relaxing)
 .xt.lit        0x00001d90       0x58 ../lib/libsmartconfig.a(sc_sniffer.o)
                                 0x68 (size before relaxing)
 .xt.lit        0x00001de8       0x68 ../lib/libsmartconfig.a(sc_airkiss.o)
                                 0x90 (size before relaxing)
 .xt.lit        0x00001e50       0x50 ../lib/libsmartconfig.a(sc_esptouch.o)
                                 0x68 (size before relaxing)
 .xt.lit        0x00001ea0       0xb0 ../lib/libwilddog.a(wilddog_api.o)
                                 0xc0 (size before relaxing)
 .xt.lit        0x00001f50       0x20 ../lib/libwilddog.a(wilddog_common.o)
                                 0x48 (size before relaxing)
 .xt.lit        0x00001f70       0x58 ../lib/libwilddog.a(wilddog_ct.o)
                                 0x90 (size before relaxing)
 .xt.lit        0x00001fc8       0x28 ../lib/libwilddog.a(wilddog_espressif.o)
                                 0x48 (size before relaxing)
 .xt.lit        0x00001ff0       0x38 ../lib/libwilddog.a(wilddog_node.o)
                                 0x80 (size before relaxing)
 .xt.lit        0x00002028       0x18 ../lib/libwilddog.a(wilddog_store.o)
 .xt.lit        0x00002040       0x20 ../lib/libwilddog.a(wilddog_url_parser.o)
                                 0x40 (size before relaxing)
 .xt.lit        0x00002060       0x88 ../lib/libwilddog.a(wilddog_conn.o)
                                 0xb8 (size before relaxing)
 .xt.lit        0x000020e8       0x48 ../lib/libwilddog.a(wilddog_conn_coap.o)
                                 0xa0 (size before relaxing)
 .xt.lit        0x00002130       0x80 ../lib/libwilddog.a(wilddog_conn_manage.o)
                                 0xb8 (size before relaxing)
 .xt.lit        0x000021b0       0x30 ../lib/libwilddog.a(wilddog_event.o)
                                 0x38 (size before relaxing)
 .xt.lit        0x000021e0       0x10 ../lib/libwilddog.a(wilddog_nosec.o)
                                 0x28 (size before relaxing)
 .xt.lit        0x000021f0        0x8 ../lib/libwilddog.a(wilddog_sec_host.o)
 .xt.lit        0x000021f8       0x38 ../lib/libwilddog.a(option.o)
                                 0x40 (size before relaxing)
 .xt.lit        0x00002230       0x48 ../lib/libwilddog.a(pdu.o)
                                 0x60 (size before relaxing)
 .xt.lit        0x00002278       0x50 ../lib/libwilddog.a(wilddog_cbor.o)
                                 0x58 (size before relaxing)
 .xt.lit        0x000022c8        0x8 ../lib/libairkiss.a(airlink.o)
 .xt.lit        0x000022d0        0x0 /opt/xtensa-lx106-elf/bin/../lib/gcc/xtensa-lx106-elf/4.8.2/libc.a(atoi.o)
                                  0x8 (size before relaxing)
 .xt.lit        0x000022d0        0x8 /opt/xtensa-lx106-elf/bin/../lib/gcc/xtensa-lx106-elf/4.8.2/libc.a(rand.o)
 .xt.lit        0x000022d8        0x8 /opt/xtensa-lx106-elf/bin/../lib/gcc/xtensa-lx106-elf/4.8.2/libc.a(strchr.o)
 .xt.lit        0x000022e0        0x8 /opt/xtensa-lx106-elf/bin/../lib/gcc/xtensa-lx106-elf/4.8.2/libc.a(strtol.o)
 .xt.lit        0x000022e8        0x8 ../lib/libgcc.a(_mulsf3.o)
 .xt.lit        0x000022f0        0x0 ../lib/libgcc.a(_divsf3.o)
                                  0x8 (size before relaxing)
 .xt.lit        0x000022f0        0x0 ../lib/libgcc.a(_fixsfsi.o)
                                  0x8 (size before relaxing)
 .xt.lit        0x000022f0        0x8 ../lib/libgcc.a(_cmpdf2.o)
 .xt.lit        0x000022f8        0x8 ../lib/libnet80211.a(ieee80211_crypto_tkip.o)
                                 0x10 (size before relaxing)
 .xt.lit        0x00002300        0x0 ../lib/libnet80211.a(ieee80211_crypto_wep.o)
                                  0x8 (size before relaxing)
 .xt.lit        0x00002300       0x28 ../lib/libwpa.a(wpabuf.o)
                                 0x60 (size before relaxing)
 .xt.lit        0x00002328        0x0 ../lib/libcrypto.a(aes-cbc.o)
                                 0x10 (size before relaxing)
 .xt.lit        0x00002328       0x18 ../lib/libcrypto.a(aes-internal-dec.o)
                                 0x20 (size before relaxing)
 .xt.lit        0x00002340        0x0 ../lib/libcrypto.a(dh_group5.o)
                                 0x10 (size before relaxing)
 .xt.lit        0x00002340       0x10 ../lib/libcrypto.a(dh_groups.o)
                                 0x18 (size before relaxing)
 .xt.lit        0x00002350        0x0 ../lib/libcrypto.a(sha256.o)
                                 0x10 (size before relaxing)
 .xt.lit        0x00002350        0x8 ../lib/libcrypto.a(sha256-internal.o)
                                 0x18 (size before relaxing)
 .xt.lit        0x00002358        0x0 ../lib/libcrypto.a(crypto_internal-modexp.o)
                                  0x8 (size before relaxing)
 .xt.lit        0x00002358       0x30 ../lib/libcrypto.a(bignum.o)
                                 0xa0 (size before relaxing)

.comment        0x00000000     0x316d
 .comment       0x00000000       0x55 ../lib/libmain.a(app_main.o)
                                 0x56 (size before relaxing)
 .comment       0x00000055       0x56 ../lib/libmain.a(ets_timer.o)
                                 0x57 (size before relaxing)
 .comment       0x000000ab       0x58 ../lib/libmain.a(mem_manager.o)
                                 0x59 (size before relaxing)
 .comment       0x00000103       0x56 ../lib/libmain.a(spi_flash.o)
                                 0x57 (size before relaxing)
 .comment       0x00000159       0x5b ../lib/libmain.a(user_interface.o)
                                 0x5c (size before relaxing)
 .comment       0x000001b4       0x56 ../lib/libmain.a(eagle_lib.o)
                                 0x57 (size before relaxing)
 .comment       0x0000020a       0x5a ../lib/libmain.a(eagle_lwip_if.o)
                                 0x5b (size before relaxing)
 .comment       0x00000264       0x21 user/.output/eagle/debug/lib/libuser.a(user_main.o)
                                 0x22 (size before relaxing)
 .comment       0x00000000       0x22 user/.output/eagle/debug/lib/libuser.a(AtCmd_Drv.o)
 .comment       0x00000000       0x22 user/.output/eagle/debug/lib/libuser.a(AirKiss_Drv.o)
 .comment       0x00000000       0x22 user/.output/eagle/debug/lib/libuser.a(user_tcpclient.o)
 .comment       0x00000000       0x22 user/.output/eagle/debug/lib/libuser.a(WildDog_Drv.o)
 .comment       0x00000000       0x22 user/.output/eagle/debug/lib/libuser.a(GlobalFunc.o)
 .comment       0x00000000       0x22 user/.output/eagle/debug/lib/libuser.a(GizCmdTest.o)
 .comment       0x00000000       0x22 user/.output/eagle/debug/lib/libuser.a(WDJson_Drv.o)
 .comment       0x00000000       0x22 user/.output/eagle/debug/lib/libuser.a(Serial_Drv.o)
 .comment       0x00000000       0x22 user/.output/eagle/debug/lib/libuser.a(SensorInterface.o)
 .comment       0x00000000       0x22 user/.output/eagle/debug/lib/libuser.a(WifiInterface.o)
 .comment       0x00000285       0x57 ../lib/libat.a(at_baseCmd.o)
                                 0x58 (size before relaxing)
 .comment       0x000002dc       0x53 ../lib/libat.a(at_cmd.o)
                                 0x54 (size before relaxing)
 .comment       0x0000032f       0x55 ../lib/libat.a(at_ipCmd.o)
                                 0x56 (size before relaxing)
 .comment       0x00000384       0x57 ../lib/libat.a(at_nv_data.o)
                                 0x58 (size before relaxing)
 .comment       0x000003db       0x54 ../lib/libat.a(at_port.o)
                                 0x55 (size before relaxing)
 .comment       0x0000042f       0x57 ../lib/libat.a(at_wifiCmd.o)
                                 0x58 (size before relaxing)
 .comment       0x00000486       0x51 ../lib/libat.a(uart.o)
                                 0x52 (size before relaxing)
 .comment       0x000004d7       0x59 ../lib/libat.a(at_init_para.o)
                                 0x5a (size before relaxing)
 .comment       0x00000530       0x93 /opt/xtensa-lx106-elf/bin/../lib/gcc/xtensa-lx106-elf/4.8.2/libc.a(islower.o)
 .comment       0x000005c3       0x93 /opt/xtensa-lx106-elf/bin/../lib/gcc/xtensa-lx106-elf/4.8.2/libc.a(memcmp.o)
 .comment       0x00000656       0x92 /opt/xtensa-lx106-elf/bin/../lib/gcc/xtensa-lx106-elf/4.8.2/libc.a(ctype_.o)
 .comment       0x000006e8       0x41 ../lib/libphy.a(phy.o)
 .comment       0x00000729       0x4d ../lib/libphy.a(phy_chip_v6_ana.o)
 .comment       0x00000776       0x49 ../lib/libphy.a(phy_chip_v6.o)
 .comment       0x000007bf       0x4d ../lib/libphy.a(phy_chip_v6_cal.o)
 .comment       0x0000080c       0x50 ../lib/libphy.a(phy_chip_v6_unused.o)
 .comment       0x0000085c       0x47 ../lib/libphy.a(phy_sleep.o)
 .comment       0x000008a3       0x56 ../lib/libpp.a(if_hwctrl.o)
                                 0x57 (size before relaxing)
 .comment       0x000008f9       0x51 ../lib/libpp.a(lmac.o)
                                 0x52 (size before relaxing)
 .comment       0x0000094a       0x4f ../lib/libpp.a(pm.o)
                                 0x50 (size before relaxing)
 .comment       0x00000999       0x61 ../lib/libpp.a(pm_for_bcn_only_mode.o)
                                 0x62 (size before relaxing)
 .comment       0x000009fa       0x4f ../lib/libpp.a(pp.o)
                                 0x50 (size before relaxing)
 .comment       0x00000a49       0x59 ../lib/libpp.a(rate_control.o)
                                 0x5a (size before relaxing)
 .comment       0x00000aa2       0x50 ../lib/libpp.a(trc.o)
                                 0x51 (size before relaxing)
 .comment       0x00000af2       0x51 ../lib/libpp.a(wdev.o)
                                 0x52 (size before relaxing)
 .comment       0x00000b43       0x54 ../lib/libpp.a(esf_buf.o)
                                 0x55 (size before relaxing)
 .comment       0x00000b97       0x56 ../lib/libnet80211.a(ieee80211.o)
                                 0x57 (size before relaxing)
 .comment       0x00000bed       0x5d ../lib/libnet80211.a(ieee80211_crypto.o)
                                 0x5e (size before relaxing)
 .comment       0x00000c4a       0x5a ../lib/libnet80211.a(ieee80211_ets.o)
                                 0x5b (size before relaxing)
 .comment       0x00000ca4       0x5d ../lib/libnet80211.a(ieee80211_hostap.o)
                                 0x5e (size before relaxing)
 .comment       0x00000d01       0x59 ../lib/libnet80211.a(ieee80211_ht.o)
                                 0x5a (size before relaxing)
 .comment       0x00000d5a       0x5c ../lib/libnet80211.a(ieee80211_input.o)
                                 0x5d (size before relaxing)
 .comment       0x00000db6       0x61 ../lib/libnet80211.a(ieee80211_mesh_quick.o)
                                 0x62 (size before relaxing)
 .comment       0x00000e17       0x5d ../lib/libnet80211.a(ieee80211_output.o)
                                 0x5e (size before relaxing)
 .comment       0x00000e74       0x5a ../lib/libnet80211.a(ieee80211_phy.o)
                                 0x5b (size before relaxing)
 .comment       0x00000ece       0x5c ../lib/libnet80211.a(ieee80211_power.o)
                                 0x5d (size before relaxing)
 .comment       0x00000f2a       0x5c ../lib/libnet80211.a(ieee80211_proto.o)
                                 0x5d (size before relaxing)
 .comment       0x00000f86       0x5b ../lib/libnet80211.a(ieee80211_rfid.o)
                                 0x5c (size before relaxing)
 .comment       0x00000fe1       0x5b ../lib/libnet80211.a(ieee80211_scan.o)
                                 0x5c (size before relaxing)
 .comment       0x0000103c       0x5a ../lib/libnet80211.a(ieee80211_sta.o)
                                 0x5b (size before relaxing)
 .comment       0x00001096       0x53 ../lib/libnet80211.a(wl_chm.o)
                                 0x54 (size before relaxing)
 .comment       0x000010e9       0x53 ../lib/libnet80211.a(wl_cnx.o)
                                 0x54 (size before relaxing)
 .comment       0x0000113c       0x5d ../lib/libnet80211.a(ieee80211_action.o)
                                 0x5e (size before relaxing)
 .comment       0x00001199       0x64 ../lib/libnet80211.a(ieee80211_action_vendor.o)
                                 0x65 (size before relaxing)
 .comment       0x000011fd       0x62 ../lib/libnet80211.a(ieee80211_crypto_ccmp.o)
                                 0x63 (size before relaxing)
 .comment       0x0000125f       0x60 ../lib/libnet80211.a(ieee80211_ie_vendor.o)
                                 0x61 (size before relaxing)
 .comment       0x000012bf       0x51 ../lib/liblwip.a(dhcp.o)
                                 0x52 (size before relaxing)
 .comment       0x00001310       0x57 ../lib/liblwip.a(dhcpserver.o)
                                 0x58 (size before relaxing)
 .comment       0x00001367       0x50 ../lib/liblwip.a(dns.o)
                                 0x51 (size before relaxing)
 .comment       0x000013b7       0x59 ../lib/liblwip.a(espconn_mdns.o)
                                 0x5a (size before relaxing)
 .comment       0x00001410       0x54 ../lib/liblwip.a(espconn.o)
                                 0x55 (size before relaxing)
 .comment       0x00001464       0x58 ../lib/liblwip.a(espconn_tcp.o)
                                 0x59 (size before relaxing)
 .comment       0x000014bc       0x58 ../lib/liblwip.a(espconn_udp.o)
                                 0x59 (size before relaxing)
 .comment       0x00001514       0x53 ../lib/liblwip.a(etharp.o)
                                 0x54 (size before relaxing)
 .comment       0x00001567       0x51 ../lib/liblwip.a(igmp.o)
                                 0x52 (size before relaxing)
 .comment       0x000015b8       0x58 ../lib/liblwip.a(inet_chksum.o)
                                 0x59 (size before relaxing)
 .comment       0x00001610       0x51 ../lib/liblwip.a(init.o)
                                 0x52 (size before relaxing)
 .comment       0x00001661       0x54 ../lib/liblwip.a(ip_addr.o)
                                 0x55 (size before relaxing)
 .comment       0x000016b5       0x4f ../lib/liblwip.a(ip.o)
                                 0x50 (size before relaxing)
 .comment       0x00001704       0x51 ../lib/liblwip.a(mdns.o)
                                 0x52 (size before relaxing)
 .comment       0x00001755       0x51 ../lib/liblwip.a(memp.o)
                                 0x52 (size before relaxing)
 .comment       0x000017a6       0x52 ../lib/liblwip.a(netif.o)
                                 0x53 (size before relaxing)
 .comment       0x000017f8       0x51 ../lib/liblwip.a(pbuf.o)
                                 0x52 (size before relaxing)
 .comment       0x00001849       0x51 ../lib/liblwip.a(ping.o)
                                 0x52 (size before relaxing)
 .comment       0x0000189a       0x50 ../lib/liblwip.a(raw.o)
                                 0x51 (size before relaxing)
 .comment       0x000018ea       0x53 ../lib/liblwip.a(tcp_in.o)
                                 0x54 (size before relaxing)
 .comment       0x0000193d       0x50 ../lib/liblwip.a(tcp.o)
                                 0x51 (size before relaxing)
 .comment       0x0000198d       0x54 ../lib/liblwip.a(tcp_out.o)
                                 0x55 (size before relaxing)
 .comment       0x000019e1       0x53 ../lib/liblwip.a(timers.o)
                                 0x54 (size before relaxing)
 .comment       0x00001a34       0x50 ../lib/liblwip.a(udp.o)
                                 0x51 (size before relaxing)
 .comment       0x00001a84       0x51 ../lib/liblwip.a(icmp.o)
                                 0x52 (size before relaxing)
 .comment       0x00001ad5       0x56 ../lib/libwpa.a(ap_config.o)
                                 0x57 (size before relaxing)
 .comment       0x00001b2b       0x53 ../lib/libwpa.a(common.o)
                                 0x54 (size before relaxing)
 .comment       0x00001b7e       0x56 ../lib/libwpa.a(os_xtensa.o)
                                 0x57 (size before relaxing)
 .comment       0x00001bd4       0x55 ../lib/libwpa.a(wpa_auth.o)
                                 0x56 (size before relaxing)
 .comment       0x00001c29       0x58 ../lib/libwpa.a(wpa_auth_ie.o)
                                 0x59 (size before relaxing)
 .comment       0x00001c81       0x50 ../lib/libwpa.a(wpa.o)
                                 0x51 (size before relaxing)
 .comment       0x00001cd1       0x57 ../lib/libwpa.a(wpa_common.o)
                                 0x58 (size before relaxing)
 .comment       0x00001d28       0x56 ../lib/libwpa.a(wpa_debug.o)
                                 0x57 (size before relaxing)
 .comment       0x00001d7e       0x53 ../lib/libwpa.a(wpa_ie.o)
                                 0x54 (size before relaxing)
 .comment       0x00001dd1       0x55 ../lib/libwpa.a(wpa_main.o)
                                 0x56 (size before relaxing)
 .comment       0x00001e26       0x56 ../lib/libwpa.a(wpas_glue.o)
                                 0x57 (size before relaxing)
 .comment       0x00001e7c       0x55 ../lib/libcrypto.a(aes-wrap.o)
                                 0x56 (size before relaxing)
 .comment       0x00001ed1       0x5d ../lib/libcrypto.a(aes-internal-enc.o)
                                 0x5e (size before relaxing)
 .comment       0x00001f2e       0x59 ../lib/libcrypto.a(aes-internal.o)
                                 0x5a (size before relaxing)
 .comment       0x00001f87       0x5b ../lib/libssl.a(espconn_secure.o)
                                 0x5c (size before relaxing)
 .comment       0x00001fe2       0x58 ../lib/libssl.a(espconn_ssl.o)
                                 0x59 (size before relaxing)
 .comment       0x0000203a       0x57 ../lib/libssl.a(ssl_loader.o)
                                 0x58 (size before relaxing)
 .comment       0x00002091       0x54 ../lib/libssl.a(ssl_md5.o)
                                 0x55 (size before relaxing)
 .comment       0x000020e5       0x5a ../lib/libssl.a(ssl_tls1_clnt.o)
                                 0x5b (size before relaxing)
 .comment       0x0000213f       0x55 ../lib/libssl.a(ssl_tls1.o)
                                 0x56 (size before relaxing)
 .comment       0x00002194       0x59 ../lib/libssl.a(ssl_tls1_svr.o)
                                 0x5a (size before relaxing)
 .comment       0x000021ed       0x55 ../lib/libssl.a(ssl_x509.o)
                                 0x56 (size before relaxing)
 .comment       0x00002242       0x53 ../lib/libssl.a(sha256.o)
                                 0x54 (size before relaxing)
 .comment       0x00002295       0x53 ../lib/libssl.a(sha384.o)
                                 0x54 (size before relaxing)
 .comment       0x000022e8       0x53 ../lib/libssl.a(sha512.o)
                                 0x54 (size before relaxing)
 .comment       0x0000233b       0x54 ../lib/libssl.a(ssl_aes.o)
                                 0x55 (size before relaxing)
 .comment       0x0000238f       0x55 ../lib/libssl.a(ssl_asn1.o)
                                 0x56 (size before relaxing)
 .comment       0x000023e4       0x57 ../lib/libssl.a(ssl_bigint.o)
                                 0x58 (size before relaxing)
 .comment       0x0000243b       0x5c ../lib/libssl.a(ssl_crypto_misc.o)
                                 0x5d (size before relaxing)
 .comment       0x00002497       0x55 ../lib/libssl.a(ssl_hmac.o)
                                 0x56 (size before relaxing)
 .comment       0x000024ec       0x58 ../lib/libssl.a(ssl_os_port.o)
                                 0x59 (size before relaxing)
 .comment       0x00002544       0x54 ../lib/libssl.a(ssl_rc4.o)
                                 0x55 (size before relaxing)
 .comment       0x00002598       0x54 ../lib/libssl.a(ssl_rsa.o)
                                 0x55 (size before relaxing)
 .comment       0x000025ec       0x55 ../lib/libssl.a(ssl_sha1.o)
                                 0x56 (size before relaxing)
 .comment       0x00002641       0x50 ../lib/libwps.a(wps.o)
                                 0x51 (size before relaxing)
 .comment       0x00002691       0x57 ../lib/libwps.a(wps_common.o)
                                 0x58 (size before relaxing)
 .comment       0x000026e8       0x59 ../lib/libwps.a(wps_dev_attr.o)
                                 0x5a (size before relaxing)
 .comment       0x00002741       0x59 ../lib/libwps.a(wps_enrollee.o)
                                 0x5a (size before relaxing)
 .comment       0x0000279a       0x5a ../lib/libwps.a(wps_registrar.o)
                                 0x5b (size before relaxing)
 .comment       0x000027f4       0x59 ../lib/libwps.a(wps_validate.o)
                                 0x5a (size before relaxing)
 .comment       0x0000284d       0x57 ../lib/libwps.a(eap_common.o)
                                 0x58 (size before relaxing)
 .comment       0x000028a4       0x51 ../lib/libwps.a(uuid.o)
                                 0x52 (size before relaxing)
 .comment       0x000028f5       0x5b ../lib/libwps.a(wps_attr_build.o)
                                 0x5c (size before relaxing)
 .comment       0x00002950       0x5b ../lib/libwps.a(wps_attr_parse.o)
                                 0x5c (size before relaxing)
 .comment       0x000029ab       0x5d ../lib/libwps.a(wps_attr_process.o)
                                 0x5e (size before relaxing)
 .comment       0x00002a08       0x57 ../lib/libsmartconfig.a(sc_sniffer.o)
                                 0x58 (size before relaxing)
 .comment       0x00002a5f       0x57 ../lib/libsmartconfig.a(sc_airkiss.o)
                                 0x58 (size before relaxing)
 .comment       0x00002ab6       0x58 ../lib/libsmartconfig.a(sc_esptouch.o)
                                 0x59 (size before relaxing)
 .comment       0x00000000       0x22 ../lib/libwilddog.a(wilddog_api.o)
 .comment       0x00000000       0x22 ../lib/libwilddog.a(wilddog_common.o)
 .comment       0x00000000       0x22 ../lib/libwilddog.a(wilddog_ct.o)
 .comment       0x00000000       0x22 ../lib/libwilddog.a(wilddog_espressif.o)
 .comment       0x00000000       0x22 ../lib/libwilddog.a(wilddog_node.o)
 .comment       0x00000000       0x22 ../lib/libwilddog.a(wilddog_store.o)
 .comment       0x00000000       0x22 ../lib/libwilddog.a(wilddog_url_parser.o)
 .comment       0x00000000       0x22 ../lib/libwilddog.a(wilddog_conn.o)
 .comment       0x00000000       0x22 ../lib/libwilddog.a(wilddog_conn_coap.o)
 .comment       0x00000000       0x22 ../lib/libwilddog.a(wilddog_conn_manage.o)
 .comment       0x00000000       0x22 ../lib/libwilddog.a(wilddog_event.o)
 .comment       0x00000000       0x22 ../lib/libwilddog.a(wilddog_nosec.o)
 .comment       0x00000000       0x22 ../lib/libwilddog.a(wilddog_sec_host.o)
 .comment       0x00000000       0x22 ../lib/libwilddog.a(option.o)
 .comment       0x00000000       0x22 ../lib/libwilddog.a(pdu.o)
 .comment       0x00000000       0x22 ../lib/libwilddog.a(wilddog_cbor.o)
 .comment       0x00000000       0x22 ../lib/libairkiss.a(airlink.o)
 .comment       0x00002b0e       0x91 /opt/xtensa-lx106-elf/bin/../lib/gcc/xtensa-lx106-elf/4.8.2/libc.a(atoi.o)
 .comment       0x00002b9f       0x91 /opt/xtensa-lx106-elf/bin/../lib/gcc/xtensa-lx106-elf/4.8.2/libc.a(rand.o)
 .comment       0x00002c30       0x93 /opt/xtensa-lx106-elf/bin/../lib/gcc/xtensa-lx106-elf/4.8.2/libc.a(strchr.o)
 .comment       0x00002cc3       0x93 /opt/xtensa-lx106-elf/bin/../lib/gcc/xtensa-lx106-elf/4.8.2/libc.a(strtol.o)
 .comment       0x00002d56       0x92 /opt/xtensa-lx106-elf/bin/../lib/gcc/xtensa-lx106-elf/4.8.2/libc.a(impure.o)
 .comment       0x00002de8       0x62 ../lib/libnet80211.a(ieee80211_crypto_tkip.o)
                                 0x63 (size before relaxing)
 .comment       0x00002e4a       0x61 ../lib/libnet80211.a(ieee80211_crypto_wep.o)
                                 0x62 (size before relaxing)
 .comment       0x00002eab       0x53 ../lib/libwpa.a(wpabuf.o)
                                 0x54 (size before relaxing)
 .comment       0x00002efe       0x54 ../lib/libcrypto.a(aes-cbc.o)
                                 0x55 (size before relaxing)
 .comment       0x00002f52       0x5d ../lib/libcrypto.a(aes-internal-dec.o)
                                 0x5e (size before relaxing)
 .comment       0x00002faf       0x56 ../lib/libcrypto.a(dh_group5.o)
                                 0x57 (size before relaxing)
 .comment       0x00003005       0x56 ../lib/libcrypto.a(dh_groups.o)
                                 0x57 (size before relaxing)
 .comment       0x00000000       0x54 ../lib/libcrypto.a(sha256.o)
 .comment       0x0000305b       0x5c ../lib/libcrypto.a(sha256-internal.o)
                                 0x5d (size before relaxing)
 .comment       0x000030b7       0x63 ../lib/libcrypto.a(crypto_internal-modexp.o)
                                 0x64 (size before relaxing)
 .comment       0x0000311a       0x53 ../lib/libcrypto.a(bignum.o)
                                 0x54 (size before relaxing)

.debug_frame    0x00000000     0x2d94
 .debug_frame   0x00000000       0x40 user/.output/eagle/debug/lib/libuser.a(user_main.o)
 .debug_frame   0x00000040      0x540 user/.output/eagle/debug/lib/libuser.a(AtCmd_Drv.o)
 .debug_frame   0x00000580      0x108 user/.output/eagle/debug/lib/libuser.a(AirKiss_Drv.o)
 .debug_frame   0x00000688       0x60 user/.output/eagle/debug/lib/libuser.a(user_tcpclient.o)
 .debug_frame   0x000006e8       0x9c user/.output/eagle/debug/lib/libuser.a(WildDog_Drv.o)
 .debug_frame   0x00000784       0x84 user/.output/eagle/debug/lib/libuser.a(GlobalFunc.o)
 .debug_frame   0x00000808      0x108 user/.output/eagle/debug/lib/libuser.a(GizCmdTest.o)
 .debug_frame   0x00000910      0x1ec user/.output/eagle/debug/lib/libuser.a(WDJson_Drv.o)
 .debug_frame   0x00000afc       0xd4 user/.output/eagle/debug/lib/libuser.a(Serial_Drv.o)
 .debug_frame   0x00000bd0       0x80 user/.output/eagle/debug/lib/libuser.a(SensorInterface.o)
 .debug_frame   0x00000c50       0x50 user/.output/eagle/debug/lib/libuser.a(WifiInterface.o)
 .debug_frame   0x00000ca0      0x310 ../lib/libwilddog.a(wilddog_api.o)
 .debug_frame   0x00000fb0      0x150 ../lib/libwilddog.a(wilddog_common.o)
 .debug_frame   0x00001100      0x390 ../lib/libwilddog.a(wilddog_ct.o)
 .debug_frame   0x00001490      0x180 ../lib/libwilddog.a(wilddog_espressif.o)
 .debug_frame   0x00001610      0x340 ../lib/libwilddog.a(wilddog_node.o)
 .debug_frame   0x00001950       0x84 ../lib/libwilddog.a(wilddog_store.o)
 .debug_frame   0x000019d4      0x140 ../lib/libwilddog.a(wilddog_url_parser.o)
 .debug_frame   0x00001b14      0x3bc ../lib/libwilddog.a(wilddog_conn.o)
 .debug_frame   0x00001ed0      0x2c4 ../lib/libwilddog.a(wilddog_conn_coap.o)
 .debug_frame   0x00002194      0x3cc ../lib/libwilddog.a(wilddog_conn_manage.o)
 .debug_frame   0x00002560      0x130 ../lib/libwilddog.a(wilddog_event.o)
 .debug_frame   0x00002690       0xc8 ../lib/libwilddog.a(wilddog_nosec.o)
 .debug_frame   0x00002758       0x3c ../lib/libwilddog.a(wilddog_sec_host.o)
 .debug_frame   0x00002794      0x17c ../lib/libwilddog.a(option.o)
 .debug_frame   0x00002910      0x1e4 ../lib/libwilddog.a(pdu.o)
 .debug_frame   0x00002af4      0x2a0 ../lib/libwilddog.a(wilddog_cbor.o)

.debug_info     0x00000000    0x24e58
 .debug_info    0x00000000       0xff user/.output/eagle/debug/lib/libuser.a(user_main.o)
 .debug_info    0x000000ff     0x3f89 user/.output/eagle/debug/lib/libuser.a(AtCmd_Drv.o)
 .debug_info    0x00004088     0x11c2 user/.output/eagle/debug/lib/libuser.a(AirKiss_Drv.o)
 .debug_info    0x0000524a      0x70f user/.output/eagle/debug/lib/libuser.a(user_tcpclient.o)
 .debug_info    0x00005959      0x7ec user/.output/eagle/debug/lib/libuser.a(WildDog_Drv.o)
 .debug_info    0x00006145      0x302 user/.output/eagle/debug/lib/libuser.a(GlobalFunc.o)
 .debug_info    0x00006447      0x7c5 user/.output/eagle/debug/lib/libuser.a(GizCmdTest.o)
 .debug_info    0x00006c0c     0x1b2e user/.output/eagle/debug/lib/libuser.a(WDJson_Drv.o)
 .debug_info    0x0000873a      0x78e user/.output/eagle/debug/lib/libuser.a(Serial_Drv.o)
 .debug_info    0x00008ec8      0x23a user/.output/eagle/debug/lib/libuser.a(SensorInterface.o)
 .debug_info    0x00009102      0x1cc user/.output/eagle/debug/lib/libuser.a(WifiInterface.o)
 .debug_info    0x000092ce      0x171 /opt/xtensa-lx106-elf/bin/../lib/gcc/xtensa-lx106-elf/4.8.2/libc.a(islower.o)
 .debug_info    0x0000943f      0x1ef /opt/xtensa-lx106-elf/bin/../lib/gcc/xtensa-lx106-elf/4.8.2/libc.a(memcmp.o)
 .debug_info    0x0000962e      0x102 /opt/xtensa-lx106-elf/bin/../lib/gcc/xtensa-lx106-elf/4.8.2/libc.a(memcpy.o)
 .debug_info    0x00009730      0x102 /opt/xtensa-lx106-elf/bin/../lib/gcc/xtensa-lx106-elf/4.8.2/libc.a(memset.o)
 .debug_info    0x00009832      0x16a /opt/xtensa-lx106-elf/bin/../lib/gcc/xtensa-lx106-elf/4.8.2/libc.a(ctype_.o)
 .debug_info    0x0000999c       0xf3 ../lib/libgcc.a(_modsi3.o)
 .debug_info    0x00009a8f       0xc2 /opt/xtensa-lx106-elf/bin/../lib/gcc/xtensa-lx106-elf/4.8.2/libhal.a(int_asm--set_intclear.o)
 .debug_info    0x00009b51     0x1661 ../lib/libwilddog.a(wilddog_api.o)
 .debug_info    0x0000b1b2      0x6ac ../lib/libwilddog.a(wilddog_common.o)
 .debug_info    0x0000b85e     0x24bc ../lib/libwilddog.a(wilddog_ct.o)
 .debug_info    0x0000dd1a      0xc1e ../lib/libwilddog.a(wilddog_espressif.o)
 .debug_info    0x0000e938     0x1485 ../lib/libwilddog.a(wilddog_node.o)
 .debug_info    0x0000fdbd      0xdbe ../lib/libwilddog.a(wilddog_store.o)
 .debug_info    0x00010b7b     0x1089 ../lib/libwilddog.a(wilddog_url_parser.o)
 .debug_info    0x00011c04     0x363d ../lib/libwilddog.a(wilddog_conn.o)
 .debug_info    0x00015241     0x1bd7 ../lib/libwilddog.a(wilddog_conn_coap.o)
 .debug_info    0x00016e18     0x4127 ../lib/libwilddog.a(wilddog_conn_manage.o)
 .debug_info    0x0001af3f     0x1873 ../lib/libwilddog.a(wilddog_event.o)
 .debug_info    0x0001c7b2      0x538 ../lib/libwilddog.a(wilddog_nosec.o)
 .debug_info    0x0001ccea      0x322 ../lib/libwilddog.a(wilddog_sec_host.o)
 .debug_info    0x0001d00c     0x11c8 ../lib/libwilddog.a(option.o)
 .debug_info    0x0001e1d4     0x11b2 ../lib/libwilddog.a(pdu.o)
 .debug_info    0x0001f386     0x235e ../lib/libwilddog.a(wilddog_cbor.o)
 .debug_info    0x000216e4      0xc41 /opt/xtensa-lx106-elf/bin/../lib/gcc/xtensa-lx106-elf/4.8.2/libc.a(atoi.o)
 .debug_info    0x00022325      0xc09 /opt/xtensa-lx106-elf/bin/../lib/gcc/xtensa-lx106-elf/4.8.2/libc.a(rand.o)
 .debug_info    0x00022f2e      0x1f0 /opt/xtensa-lx106-elf/bin/../lib/gcc/xtensa-lx106-elf/4.8.2/libc.a(strchr.o)
 .debug_info    0x0002311e      0xcca /opt/xtensa-lx106-elf/bin/../lib/gcc/xtensa-lx106-elf/4.8.2/libc.a(strtol.o)
 .debug_info    0x00023de8      0xbad /opt/xtensa-lx106-elf/bin/../lib/gcc/xtensa-lx106-elf/4.8.2/libc.a(impure.o)
 .debug_info    0x00024995       0xf3 ../lib/libgcc.a(_ashrdi3.o)
 .debug_info    0x00024a88       0xf4 ../lib/libgcc.a(_mulsf3.o)
 .debug_info    0x00024b7c       0xf4 ../lib/libgcc.a(_divsf3.o)
 .debug_info    0x00024c70       0xf4 ../lib/libgcc.a(_fixsfsi.o)
 .debug_info    0x00024d64       0xf4 ../lib/libgcc.a(_cmpdf2.o)

.debug_abbrev   0x00000000     0x534d
 .debug_abbrev  0x00000000       0x78 user/.output/eagle/debug/lib/libuser.a(user_main.o)
 .debug_abbrev  0x00000078      0x4c5 user/.output/eagle/debug/lib/libuser.a(AtCmd_Drv.o)
 .debug_abbrev  0x0000053d      0x323 user/.output/eagle/debug/lib/libuser.a(AirKiss_Drv.o)
 .debug_abbrev  0x00000860      0x231 user/.output/eagle/debug/lib/libuser.a(user_tcpclient.o)
 .debug_abbrev  0x00000a91      0x25a user/.output/eagle/debug/lib/libuser.a(WildDog_Drv.o)
 .debug_abbrev  0x00000ceb      0x15b user/.output/eagle/debug/lib/libuser.a(GlobalFunc.o)
 .debug_abbrev  0x00000e46      0x20d user/.output/eagle/debug/lib/libuser.a(GizCmdTest.o)
 .debug_abbrev  0x00001053      0x408 user/.output/eagle/debug/lib/libuser.a(WDJson_Drv.o)
 .debug_abbrev  0x0000145b      0x1dc user/.output/eagle/debug/lib/libuser.a(Serial_Drv.o)
 .debug_abbrev  0x00001637       0xf1 user/.output/eagle/debug/lib/libuser.a(SensorInterface.o)
 .debug_abbrev  0x00001728      0x11e user/.output/eagle/debug/lib/libuser.a(WifiInterface.o)
 .debug_abbrev  0x00001846       0x6d /opt/xtensa-lx106-elf/bin/../lib/gcc/xtensa-lx106-elf/4.8.2/libc.a(islower.o)
 .debug_abbrev  0x000018b3       0x7f /opt/xtensa-lx106-elf/bin/../lib/gcc/xtensa-lx106-elf/4.8.2/libc.a(memcmp.o)
 .debug_abbrev  0x00001932       0x14 /opt/xtensa-lx106-elf/bin/../lib/gcc/xtensa-lx106-elf/4.8.2/libc.a(memcpy.o)
 .debug_abbrev  0x00001946       0x14 /opt/xtensa-lx106-elf/bin/../lib/gcc/xtensa-lx106-elf/4.8.2/libc.a(memset.o)
 .debug_abbrev  0x0000195a       0x52 /opt/xtensa-lx106-elf/bin/../lib/gcc/xtensa-lx106-elf/4.8.2/libc.a(ctype_.o)
 .debug_abbrev  0x000019ac       0x14 ../lib/libgcc.a(_modsi3.o)
 .debug_abbrev  0x000019c0       0x14 /opt/xtensa-lx106-elf/bin/../lib/gcc/xtensa-lx106-elf/4.8.2/libhal.a(int_asm--set_intclear.o)
 .debug_abbrev  0x000019d4      0x206 ../lib/libwilddog.a(wilddog_api.o)
 .debug_abbrev  0x00001bda      0x279 ../lib/libwilddog.a(wilddog_common.o)
 .debug_abbrev  0x00001e53      0x488 ../lib/libwilddog.a(wilddog_ct.o)
 .debug_abbrev  0x000022db      0x2cc ../lib/libwilddog.a(wilddog_espressif.o)
 .debug_abbrev  0x000025a7      0x3ca ../lib/libwilddog.a(wilddog_node.o)
 .debug_abbrev  0x00002971      0x2b7 ../lib/libwilddog.a(wilddog_store.o)
 .debug_abbrev  0x00002c28      0x351 ../lib/libwilddog.a(wilddog_url_parser.o)
 .debug_abbrev  0x00002f79      0x3c9 ../lib/libwilddog.a(wilddog_conn.o)
 .debug_abbrev  0x00003342      0x476 ../lib/libwilddog.a(wilddog_conn_coap.o)
 .debug_abbrev  0x000037b8      0x46f ../lib/libwilddog.a(wilddog_conn_manage.o)
 .debug_abbrev  0x00003c27      0x3e8 ../lib/libwilddog.a(wilddog_event.o)
 .debug_abbrev  0x0000400f      0x1f7 ../lib/libwilddog.a(wilddog_nosec.o)
 .debug_abbrev  0x00004206      0x1c4 ../lib/libwilddog.a(wilddog_sec_host.o)
 .debug_abbrev  0x000043ca      0x331 ../lib/libwilddog.a(option.o)
 .debug_abbrev  0x000046fb      0x35f ../lib/libwilddog.a(pdu.o)
 .debug_abbrev  0x00004a5a      0x45a ../lib/libwilddog.a(wilddog_cbor.o)
 .debug_abbrev  0x00004eb4       0xf5 /opt/xtensa-lx106-elf/bin/../lib/gcc/xtensa-lx106-elf/4.8.2/libc.a(atoi.o)
 .debug_abbrev  0x00004fa9       0xf3 /opt/xtensa-lx106-elf/bin/../lib/gcc/xtensa-lx106-elf/4.8.2/libc.a(rand.o)
 .debug_abbrev  0x0000509c       0x6d /opt/xtensa-lx106-elf/bin/../lib/gcc/xtensa-lx106-elf/4.8.2/libc.a(strchr.o)
 .debug_abbrev  0x00005109      0x10f /opt/xtensa-lx106-elf/bin/../lib/gcc/xtensa-lx106-elf/4.8.2/libc.a(strtol.o)
 .debug_abbrev  0x00005218       0xd1 /opt/xtensa-lx106-elf/bin/../lib/gcc/xtensa-lx106-elf/4.8.2/libc.a(impure.o)
 .debug_abbrev  0x000052e9       0x14 ../lib/libgcc.a(_ashrdi3.o)
 .debug_abbrev  0x000052fd       0x14 ../lib/libgcc.a(_mulsf3.o)
 .debug_abbrev  0x00005311       0x14 ../lib/libgcc.a(_divsf3.o)
 .debug_abbrev  0x00005325       0x14 ../lib/libgcc.a(_fixsfsi.o)
 .debug_abbrev  0x00005339       0x14 ../lib/libgcc.a(_cmpdf2.o)

.debug_aranges  0x00000000      0xee0
 .debug_aranges
                0x00000000       0x28 user/.output/eagle/debug/lib/libuser.a(user_main.o)
 .debug_aranges
                0x00000028      0x1a0 user/.output/eagle/debug/lib/libuser.a(AtCmd_Drv.o)
 .debug_aranges
                0x000001c8       0x50 user/.output/eagle/debug/lib/libuser.a(AirKiss_Drv.o)
 .debug_aranges
                0x00000218       0x28 user/.output/eagle/debug/lib/libuser.a(user_tcpclient.o)
 .debug_aranges
                0x00000240       0x38 user/.output/eagle/debug/lib/libuser.a(WildDog_Drv.o)
 .debug_aranges
                0x00000278       0x38 user/.output/eagle/debug/lib/libuser.a(GlobalFunc.o)
 .debug_aranges
                0x000002b0       0x50 user/.output/eagle/debug/lib/libuser.a(GizCmdTest.o)
 .debug_aranges
                0x00000300       0x78 user/.output/eagle/debug/lib/libuser.a(WDJson_Drv.o)
 .debug_aranges
                0x00000378       0x48 user/.output/eagle/debug/lib/libuser.a(Serial_Drv.o)
 .debug_aranges
                0x000003c0       0x50 user/.output/eagle/debug/lib/libuser.a(SensorInterface.o)
 .debug_aranges
                0x00000410       0x30 user/.output/eagle/debug/lib/libuser.a(WifiInterface.o)
 .debug_aranges
                0x00000440       0x20 /opt/xtensa-lx106-elf/bin/../lib/gcc/xtensa-lx106-elf/4.8.2/libc.a(islower.o)
 .debug_aranges
                0x00000460       0x20 /opt/xtensa-lx106-elf/bin/../lib/gcc/xtensa-lx106-elf/4.8.2/libc.a(memcmp.o)
 .debug_aranges
                0x00000480       0x20 /opt/xtensa-lx106-elf/bin/../lib/gcc/xtensa-lx106-elf/4.8.2/libc.a(memcpy.o)
 .debug_aranges
                0x000004a0       0x20 /opt/xtensa-lx106-elf/bin/../lib/gcc/xtensa-lx106-elf/4.8.2/libc.a(memset.o)
 .debug_aranges
                0x000004c0       0x20 ../lib/libgcc.a(_modsi3.o)
 .debug_aranges
                0x000004e0       0x20 /opt/xtensa-lx106-elf/bin/../lib/gcc/xtensa-lx106-elf/4.8.2/libhal.a(int_asm--set_intclear.o)
 .debug_aranges
                0x00000500       0xd8 ../lib/libwilddog.a(wilddog_api.o)
 .debug_aranges
                0x000005d8       0x78 ../lib/libwilddog.a(wilddog_common.o)
 .debug_aranges
                0x00000650       0xf8 ../lib/libwilddog.a(wilddog_ct.o)
 .debug_aranges
                0x00000748       0x68 ../lib/libwilddog.a(wilddog_espressif.o)
 .debug_aranges
                0x000007b0       0xc0 ../lib/libwilddog.a(wilddog_node.o)
 .debug_aranges
                0x00000870       0x30 ../lib/libwilddog.a(wilddog_store.o)
 .debug_aranges
                0x000008a0       0x58 ../lib/libwilddog.a(wilddog_url_parser.o)
 .debug_aranges
                0x000008f8       0xe0 ../lib/libwilddog.a(wilddog_conn.o)
 .debug_aranges
                0x000009d8       0xb8 ../lib/libwilddog.a(wilddog_conn_coap.o)
 .debug_aranges
                0x00000a90       0xf0 ../lib/libwilddog.a(wilddog_conn_manage.o)
 .debug_aranges
                0x00000b80       0x50 ../lib/libwilddog.a(wilddog_event.o)
 .debug_aranges
                0x00000bd0       0x40 ../lib/libwilddog.a(wilddog_nosec.o)
 .debug_aranges
                0x00000c10       0x20 ../lib/libwilddog.a(wilddog_sec_host.o)
 .debug_aranges
                0x00000c30       0x70 ../lib/libwilddog.a(option.o)
 .debug_aranges
                0x00000ca0       0x78 ../lib/libwilddog.a(pdu.o)
 .debug_aranges
                0x00000d18       0xa8 ../lib/libwilddog.a(wilddog_cbor.o)
 .debug_aranges
                0x00000dc0       0x20 /opt/xtensa-lx106-elf/bin/../lib/gcc/xtensa-lx106-elf/4.8.2/libc.a(atoi.o)
 .debug_aranges
                0x00000de0       0x20 /opt/xtensa-lx106-elf/bin/../lib/gcc/xtensa-lx106-elf/4.8.2/libc.a(rand.o)
 .debug_aranges
                0x00000e00       0x20 /opt/xtensa-lx106-elf/bin/../lib/gcc/xtensa-lx106-elf/4.8.2/libc.a(strchr.o)
 .debug_aranges
                0x00000e20       0x20 /opt/xtensa-lx106-elf/bin/../lib/gcc/xtensa-lx106-elf/4.8.2/libc.a(strtol.o)
 .debug_aranges
                0x00000e40       0x20 ../lib/libgcc.a(_ashrdi3.o)
 .debug_aranges
                0x00000e60       0x20 ../lib/libgcc.a(_mulsf3.o)
 .debug_aranges
                0x00000e80       0x20 ../lib/libgcc.a(_divsf3.o)
 .debug_aranges
                0x00000ea0       0x20 ../lib/libgcc.a(_fixsfsi.o)
 .debug_aranges
                0x00000ec0       0x20 ../lib/libgcc.a(_cmpdf2.o)

.debug_ranges   0x00000000     0x17f8
 .debug_ranges  0x00000000       0x18 user/.output/eagle/debug/lib/libuser.a(user_main.o)
 .debug_ranges  0x00000018      0x290 user/.output/eagle/debug/lib/libuser.a(AtCmd_Drv.o)
 .debug_ranges  0x000002a8       0x40 user/.output/eagle/debug/lib/libuser.a(AirKiss_Drv.o)
 .debug_ranges  0x000002e8       0x18 user/.output/eagle/debug/lib/libuser.a(user_tcpclient.o)
 .debug_ranges  0x00000300       0x28 user/.output/eagle/debug/lib/libuser.a(WildDog_Drv.o)
 .debug_ranges  0x00000328       0x28 user/.output/eagle/debug/lib/libuser.a(GlobalFunc.o)
 .debug_ranges  0x00000350       0x40 user/.output/eagle/debug/lib/libuser.a(GizCmdTest.o)
 .debug_ranges  0x00000390       0x88 user/.output/eagle/debug/lib/libuser.a(WDJson_Drv.o)
 .debug_ranges  0x00000418       0x38 user/.output/eagle/debug/lib/libuser.a(Serial_Drv.o)
 .debug_ranges  0x00000450       0x40 user/.output/eagle/debug/lib/libuser.a(SensorInterface.o)
 .debug_ranges  0x00000490       0x20 user/.output/eagle/debug/lib/libuser.a(WifiInterface.o)
 .debug_ranges  0x000004b0       0xc8 ../lib/libwilddog.a(wilddog_api.o)
 .debug_ranges  0x00000578       0x98 ../lib/libwilddog.a(wilddog_common.o)
 .debug_ranges  0x00000610      0x200 ../lib/libwilddog.a(wilddog_ct.o)
 .debug_ranges  0x00000810       0x88 ../lib/libwilddog.a(wilddog_espressif.o)
 .debug_ranges  0x00000898      0x130 ../lib/libwilddog.a(wilddog_node.o)
 .debug_ranges  0x000009c8       0x20 ../lib/libwilddog.a(wilddog_store.o)
 .debug_ranges  0x000009e8       0x90 ../lib/libwilddog.a(wilddog_url_parser.o)
 .debug_ranges  0x00000a78       0xd0 ../lib/libwilddog.a(wilddog_conn.o)
 .debug_ranges  0x00000b48      0x138 ../lib/libwilddog.a(wilddog_conn_coap.o)
 .debug_ranges  0x00000c80      0x5a8 ../lib/libwilddog.a(wilddog_conn_manage.o)
 .debug_ranges  0x00001228      0x128 ../lib/libwilddog.a(wilddog_event.o)
 .debug_ranges  0x00001350       0x48 ../lib/libwilddog.a(wilddog_nosec.o)
 .debug_ranges  0x00001398       0x40 ../lib/libwilddog.a(wilddog_sec_host.o)
 .debug_ranges  0x000013d8       0xc8 ../lib/libwilddog.a(option.o)
 .debug_ranges  0x000014a0       0x68 ../lib/libwilddog.a(pdu.o)
 .debug_ranges  0x00001508      0x2f0 ../lib/libwilddog.a(wilddog_cbor.o)

.debug_line     0x00000000     0xe234
 .debug_line    0x00000000       0xd6 user/.output/eagle/debug/lib/libuser.a(user_main.o)
 .debug_line    0x000000d6      0xd8a user/.output/eagle/debug/lib/libuser.a(AtCmd_Drv.o)
 .debug_line    0x00000e60      0x3e6 user/.output/eagle/debug/lib/libuser.a(AirKiss_Drv.o)
 .debug_line    0x00001246      0x154 user/.output/eagle/debug/lib/libuser.a(user_tcpclient.o)
 .debug_line    0x0000139a      0x1cb user/.output/eagle/debug/lib/libuser.a(WildDog_Drv.o)
 .debug_line    0x00001565      0x130 user/.output/eagle/debug/lib/libuser.a(GlobalFunc.o)
 .debug_line    0x00001695      0x282 user/.output/eagle/debug/lib/libuser.a(GizCmdTest.o)
 .debug_line    0x00001917      0x641 user/.output/eagle/debug/lib/libuser.a(WDJson_Drv.o)
 .debug_line    0x00001f58      0x239 user/.output/eagle/debug/lib/libuser.a(Serial_Drv.o)
 .debug_line    0x00002191       0xd5 user/.output/eagle/debug/lib/libuser.a(SensorInterface.o)
 .debug_line    0x00002266       0xc3 user/.output/eagle/debug/lib/libuser.a(WifiInterface.o)
 .debug_line    0x00002329       0x88 /opt/xtensa-lx106-elf/bin/../lib/gcc/xtensa-lx106-elf/4.8.2/libc.a(islower.o)
 .debug_line    0x000023b1       0xd7 /opt/xtensa-lx106-elf/bin/../lib/gcc/xtensa-lx106-elf/4.8.2/libc.a(memcmp.o)
 .debug_line    0x00002488      0x37f /opt/xtensa-lx106-elf/bin/../lib/gcc/xtensa-lx106-elf/4.8.2/libc.a(memcpy.o)
 .debug_line    0x00002807      0x1a4 /opt/xtensa-lx106-elf/bin/../lib/gcc/xtensa-lx106-elf/4.8.2/libc.a(memset.o)
 .debug_line    0x000029ab       0x77 /opt/xtensa-lx106-elf/bin/../lib/gcc/xtensa-lx106-elf/4.8.2/libc.a(ctype_.o)
 .debug_line    0x00002a22      0x11a ../lib/libgcc.a(_modsi3.o)
 .debug_line    0x00002b3c       0x89 /opt/xtensa-lx106-elf/bin/../lib/gcc/xtensa-lx106-elf/4.8.2/libhal.a(int_asm--set_intclear.o)
 .debug_line    0x00002bc5      0x7cf ../lib/libwilddog.a(wilddog_api.o)
 .debug_line    0x00003394      0x2f3 ../lib/libwilddog.a(wilddog_common.o)
 .debug_line    0x00003687      0xdbf ../lib/libwilddog.a(wilddog_ct.o)
 .debug_line    0x00004446      0x5ce ../lib/libwilddog.a(wilddog_espressif.o)
 .debug_line    0x00004a14      0xdee ../lib/libwilddog.a(wilddog_node.o)
 .debug_line    0x00005802      0x3fb ../lib/libwilddog.a(wilddog_store.o)
 .debug_line    0x00005bfd      0xa01 ../lib/libwilddog.a(wilddog_url_parser.o)
 .debug_line    0x000065fe     0x153e ../lib/libwilddog.a(wilddog_conn.o)
 .debug_line    0x00007b3c      0xaa5 ../lib/libwilddog.a(wilddog_conn_coap.o)
 .debug_line    0x000085e1     0x1967 ../lib/libwilddog.a(wilddog_conn_manage.o)
 .debug_line    0x00009f48      0xa3d ../lib/libwilddog.a(wilddog_event.o)
 .debug_line    0x0000a985      0x35c ../lib/libwilddog.a(wilddog_nosec.o)
 .debug_line    0x0000ace1      0x1b3 ../lib/libwilddog.a(wilddog_sec_host.o)
 .debug_line    0x0000ae94      0x790 ../lib/libwilddog.a(option.o)
 .debug_line    0x0000b624      0x829 ../lib/libwilddog.a(pdu.o)
 .debug_line    0x0000be4d     0x1366 ../lib/libwilddog.a(wilddog_cbor.o)
 .debug_line    0x0000d1b3       0xa5 /opt/xtensa-lx106-elf/bin/../lib/gcc/xtensa-lx106-elf/4.8.2/libc.a(atoi.o)
 .debug_line    0x0000d258       0xbd /opt/xtensa-lx106-elf/bin/../lib/gcc/xtensa-lx106-elf/4.8.2/libc.a(rand.o)
 .debug_line    0x0000d315       0xe3 /opt/xtensa-lx106-elf/bin/../lib/gcc/xtensa-lx106-elf/4.8.2/libc.a(strchr.o)
 .debug_line    0x0000d3f8      0x1cd /opt/xtensa-lx106-elf/bin/../lib/gcc/xtensa-lx106-elf/4.8.2/libc.a(strtol.o)
 .debug_line    0x0000d5c5       0x77 /opt/xtensa-lx106-elf/bin/../lib/gcc/xtensa-lx106-elf/4.8.2/libc.a(impure.o)
 .debug_line    0x0000d63c       0xba ../lib/libgcc.a(_ashrdi3.o)
 .debug_line    0x0000d6f6      0x37f ../lib/libgcc.a(_mulsf3.o)
 .debug_line    0x0000da75      0x319 ../lib/libgcc.a(_divsf3.o)
 .debug_line    0x0000dd8e      0x115 ../lib/libgcc.a(_fixsfsi.o)
 .debug_line    0x0000dea3      0x391 ../lib/libgcc.a(_cmpdf2.o)

.debug_str      0x00000000     0x63d3
 .debug_str     0x00000000      0x1a4 user/.output/eagle/debug/lib/libuser.a(user_main.o)
                                0x1fb (size before relaxing)
 .debug_str     0x000001a4      0xebc user/.output/eagle/debug/lib/libuser.a(AtCmd_Drv.o)
                               0x1092 (size before relaxing)
 .debug_str     0x00001060      0x757 user/.output/eagle/debug/lib/libuser.a(AirKiss_Drv.o)
                                0xa67 (size before relaxing)
 .debug_str     0x000017b7       0xbe user/.output/eagle/debug/lib/libuser.a(user_tcpclient.o)
                                0x5dd (size before relaxing)
 .debug_str     0x00001875       0xb1 user/.output/eagle/debug/lib/libuser.a(WildDog_Drv.o)
                                0x432 (size before relaxing)
 .debug_str     0x00001926       0x60 user/.output/eagle/debug/lib/libuser.a(GlobalFunc.o)
                                0x2c4 (size before relaxing)
 .debug_str     0x00001986      0x196 user/.output/eagle/debug/lib/libuser.a(GizCmdTest.o)
                                0x58d (size before relaxing)
 .debug_str     0x00001b1c      0x8c8 user/.output/eagle/debug/lib/libuser.a(WDJson_Drv.o)
                                0xbd5 (size before relaxing)
 .debug_str     0x000023e4      0x179 user/.output/eagle/debug/lib/libuser.a(Serial_Drv.o)
                                0x3b4 (size before relaxing)
 .debug_str     0x0000255d       0x53 user/.output/eagle/debug/lib/libuser.a(SensorInterface.o)
                                0x2b8 (size before relaxing)
 .debug_str     0x000025b0       0x28 user/.output/eagle/debug/lib/libuser.a(WifiInterface.o)
                                0x273 (size before relaxing)
 .debug_str     0x000025d8      0x6db ../lib/libwilddog.a(wilddog_api.o)
                                0xc9b (size before relaxing)
 .debug_str     0x00002cb3      0x11f ../lib/libwilddog.a(wilddog_common.o)
                                0x30e (size before relaxing)
 .debug_str     0x00002dd2      0xb99 ../lib/libwilddog.a(wilddog_ct.o)
                               0x166c (size before relaxing)
 .debug_str     0x0000396b      0x1fd ../lib/libwilddog.a(wilddog_espressif.o)
                                0x643 (size before relaxing)
 .debug_str     0x00003b68      0x1e4 ../lib/libwilddog.a(wilddog_node.o)
                                0x87a (size before relaxing)
 .debug_str     0x00003d4c      0x10f ../lib/libwilddog.a(wilddog_store.o)
                                0xf1f (size before relaxing)
 .debug_str     0x00003e5b      0x15e ../lib/libwilddog.a(wilddog_url_parser.o)
                                0x803 (size before relaxing)
 .debug_str     0x00003fb9      0xa8a ../lib/libwilddog.a(wilddog_conn.o)
                               0x1774 (size before relaxing)
 .debug_str     0x00004a43      0x839 ../lib/libwilddog.a(wilddog_conn_coap.o)
                               0x11e1 (size before relaxing)
 .debug_str     0x0000527c      0x943 ../lib/libwilddog.a(wilddog_conn_manage.o)
                               0x1ec9 (size before relaxing)
 .debug_str     0x00005bbf      0x19c ../lib/libwilddog.a(wilddog_event.o)
                                0xea7 (size before relaxing)
 .debug_str     0x00005d5b       0xbf ../lib/libwilddog.a(wilddog_nosec.o)
                                0x5ed (size before relaxing)
 .debug_str     0x00005e1a       0x75 ../lib/libwilddog.a(wilddog_sec_host.o)
                                0x27a (size before relaxing)
 .debug_str     0x00005e8f       0xfa ../lib/libwilddog.a(option.o)
                                0x3e7 (size before relaxing)
 .debug_str     0x00005f89       0x97 ../lib/libwilddog.a(pdu.o)
                                0x445 (size before relaxing)
 .debug_str     0x00006020      0x3b3 ../lib/libwilddog.a(wilddog_cbor.o)
                                0xa15 (size before relaxing)

.debug_loc      0x00000000     0xfd1f
 .debug_loc     0x00000000     0x11d1 user/.output/eagle/debug/lib/libuser.a(AtCmd_Drv.o)
 .debug_loc     0x000011d1      0x27b user/.output/eagle/debug/lib/libuser.a(AirKiss_Drv.o)
 .debug_loc     0x0000144c       0x13 user/.output/eagle/debug/lib/libuser.a(user_tcpclient.o)
 .debug_loc     0x0000145f      0x104 user/.output/eagle/debug/lib/libuser.a(GlobalFunc.o)
 .debug_loc     0x00001563       0xe7 user/.output/eagle/debug/lib/libuser.a(GizCmdTest.o)
 .debug_loc     0x0000164a      0x8ec user/.output/eagle/debug/lib/libuser.a(WDJson_Drv.o)
 .debug_loc     0x00001f36      0x11d user/.output/eagle/debug/lib/libuser.a(Serial_Drv.o)
 .debug_loc     0x00002053       0x21 user/.output/eagle/debug/lib/libuser.a(SensorInterface.o)
 .debug_loc     0x00002074       0x5d user/.output/eagle/debug/lib/libuser.a(WifiInterface.o)
 .debug_loc     0x000020d1      0xf19 ../lib/libwilddog.a(wilddog_api.o)
 .debug_loc     0x00002fea      0x3d7 ../lib/libwilddog.a(wilddog_common.o)
 .debug_loc     0x000033c1     0x15a8 ../lib/libwilddog.a(wilddog_ct.o)
 .debug_loc     0x00004969      0x60b ../lib/libwilddog.a(wilddog_espressif.o)
 .debug_loc     0x00004f74      0xe71 ../lib/libwilddog.a(wilddog_node.o)
 .debug_loc     0x00005de5      0x3cf ../lib/libwilddog.a(wilddog_store.o)
 .debug_loc     0x000061b4      0xd63 ../lib/libwilddog.a(wilddog_url_parser.o)
 .debug_loc     0x00006f17     0x177a ../lib/libwilddog.a(wilddog_conn.o)
 .debug_loc     0x00008691     0x121f ../lib/libwilddog.a(wilddog_conn_coap.o)
 .debug_loc     0x000098b0     0x225c ../lib/libwilddog.a(wilddog_conn_manage.o)
 .debug_loc     0x0000bb0c      0xd1d ../lib/libwilddog.a(wilddog_event.o)
 .debug_loc     0x0000c829      0x2a1 ../lib/libwilddog.a(wilddog_nosec.o)
 .debug_loc     0x0000caca      0x176 ../lib/libwilddog.a(wilddog_sec_host.o)
 .debug_loc     0x0000cc40      0xdaa ../lib/libwilddog.a(option.o)
 .debug_loc     0x0000d9ea      0xbec ../lib/libwilddog.a(pdu.o)
 .debug_loc     0x0000e5d6     0x1749 ../lib/libwilddog.a(wilddog_cbor.o)

.debug_pubnames
                0x00000000      0x136
 .debug_pubnames
                0x00000000       0x1e /opt/xtensa-lx106-elf/bin/../lib/gcc/xtensa-lx106-elf/4.8.2/libc.a(islower.o)
 .debug_pubnames
                0x0000001e       0x1d /opt/xtensa-lx106-elf/bin/../lib/gcc/xtensa-lx106-elf/4.8.2/libc.a(memcmp.o)
 .debug_pubnames
                0x0000003b       0x2e /opt/xtensa-lx106-elf/bin/../lib/gcc/xtensa-lx106-elf/4.8.2/libc.a(ctype_.o)
 .debug_pubnames
                0x00000069       0x27 /opt/xtensa-lx106-elf/bin/../lib/gcc/xtensa-lx106-elf/4.8.2/libc.a(atoi.o)
 .debug_pubnames
                0x00000090       0x25 /opt/xtensa-lx106-elf/bin/../lib/gcc/xtensa-lx106-elf/4.8.2/libc.a(rand.o)
 .debug_pubnames
                0x000000b5       0x1d /opt/xtensa-lx106-elf/bin/../lib/gcc/xtensa-lx106-elf/4.8.2/libc.a(strchr.o)
 .debug_pubnames
                0x000000d2       0x2b /opt/xtensa-lx106-elf/bin/../lib/gcc/xtensa-lx106-elf/4.8.2/libc.a(strtol.o)
 .debug_pubnames
                0x000000fd       0x39 /opt/xtensa-lx106-elf/bin/../lib/gcc/xtensa-lx106-elf/4.8.2/libc.a(impure.o)

Cross Reference Table

Symbol                                            File
AES_cbc_decrypt                                   ../lib/libssl.a(ssl_aes.o)
                                                  ../lib/libssl.a(ssl_tls1.o)
                                                  ../lib/libssl.a(ssl_loader.o)
AES_cbc_encrypt                                   ../lib/libssl.a(ssl_aes.o)
                                                  ../lib/libssl.a(ssl_tls1.o)
AES_convert_key                                   ../lib/libssl.a(ssl_aes.o)
                                                  ../lib/libssl.a(ssl_tls1.o)
                                                  ../lib/libssl.a(ssl_loader.o)
AES_set_key                                       ../lib/libssl.a(ssl_aes.o)
                                                  ../lib/libssl.a(ssl_tls1.o)
                                                  ../lib/libssl.a(ssl_loader.o)
AK_Group_bssid                                    ../lib/libsmartconfig.a(sc_airkiss.o)
APRecvBcnStartTick                                ../lib/libnet80211.a(ieee80211_hostap.o)
                                                  ../lib/libpp.a(pp.o)
ATCMD_Init                                        user/.output/eagle/debug/lib/libuser.a(AtCmd_Drv.o)
                                                  user/.output/eagle/debug/lib/libuser.a(user_main.o)
ATUART_RxIntServer                                user/.output/eagle/debug/lib/libuser.a(AtCmd_Drv.o)
AirKiss_Init                                      user/.output/eagle/debug/lib/libuser.a(AirKiss_Drv.o)
                                                  user/.output/eagle/debug/lib/libuser.a(user_main.o)
AirKiss_IsNetConnected                            user/.output/eagle/debug/lib/libuser.a(AirKiss_Drv.o)
ApFreqCalTimer                                    ../lib/libnet80211.a(ieee80211_hostap.o)
BcnEb_update                                      ../lib/libnet80211.a(ieee80211_hostap.o)
                                                  ../lib/libnet80211.a(ieee80211_mesh_quick.o)
                                                  ../lib/libmain.a(user_interface.o)
BcnWithMcastSendCnt                               ../lib/libnet80211.a(ieee80211_hostap.o)
                                                  ../lib/libpp.a(pp.o)
BcnWithMcastSendStart                             ../lib/libnet80211.a(ieee80211_hostap.o)
CMDFN_SendConfigMode_Req                          user/.output/eagle/debug/lib/libuser.a(AtCmd_Drv.o)
CMDFN_SendDeviceTimeSet_Req                       user/.output/eagle/debug/lib/libuser.a(AtCmd_Drv.o)
                                                  user/.output/eagle/debug/lib/libuser.a(GizCmdTest.o)
CMDFN_SendReadDeviceCurStatusReport               user/.output/eagle/debug/lib/libuser.a(AtCmd_Drv.o)
CMDFN_SendReadDeviceCurStatus_Req                 user/.output/eagle/debug/lib/libuser.a(AtCmd_Drv.o)
                                                  user/.output/eagle/debug/lib/libuser.a(GizCmdTest.o)
CMDFN_SendRestartWifi_Req                         user/.output/eagle/debug/lib/libuser.a(AtCmd_Drv.o)
CMDFN_SendWifiStatusChangeNotify_Req              user/.output/eagle/debug/lib/libuser.a(AtCmd_Drv.o)
                                                  user/.output/eagle/debug/lib/libuser.a(GizCmdTest.o)
Cache_Read_Disable                                ../lib/libmain.a(user_interface.o)
                                                  ../lib/libmain.a(spi_flash.o)
Cache_Read_Disable_2                              ../lib/libmain.a(spi_flash.o)
Cache_Read_Enable                                 ../lib/libmain.a(app_main.o)
Cache_Read_Enable_2                               ../lib/libmain.a(spi_flash.o)
Cache_Read_Enable_New                             ../lib/libmain.a(app_main.o)
                                                  ../lib/libpp.a(pp.o)
                                                  ../lib/libmain.a(spi_flash.o)
                                                  ../lib/libmain.a(mem_manager.o)
CanDoFreqCal                                      ../lib/libpp.a(pp.o)
                                                  ../lib/libnet80211.a(ieee80211_hostap.o)
CmdTest_SendReadDevCurStatusReq_Manager           user/.output/eagle/debug/lib/libuser.a(GizCmdTest.o)
CmdTest_TimeSetReqTimer_Manager                   user/.output/eagle/debug/lib/libuser.a(GizCmdTest.o)
CmdTest_WifiTimingToCheckStatus_Manager           user/.output/eagle/debug/lib/libuser.a(GizCmdTest.o)
DATA_RSSI_BEAR                                    ../lib/libsmartconfig.a(sc_airkiss.o)
DISPLAY_ALERT                                     ../lib/libssl.a(ssl_tls1.o)
DISPLAY_BYTES                                     ../lib/libssl.a(ssl_tls1.o)
DISPLAY_RSA                                       ../lib/libssl.a(ssl_tls1.o)
DISPLAY_STATE                                     ../lib/libssl.a(ssl_tls1.o)
DefFreqCalTimer                                   ../lib/libpp.a(pp.o)
                                                  ../lib/libnet80211.a(ieee80211_hostap.o)
DefFreqCalTimerCB                                 ../lib/libpp.a(pp.o)
                                                  ../lib/libnet80211.a(ieee80211_hostap.o)
DefaultStationConfig                              user/.output/eagle/debug/lib/libuser.a(AirKiss_Drv.o)
DeviceCurBatteryCapacityUpdate                    user/.output/eagle/debug/lib/libuser.a(AtCmd_Drv.o)
DeviceCurFormaValUpdate                           user/.output/eagle/debug/lib/libuser.a(AtCmd_Drv.o)
DeviceCurHumiValUpdate                            user/.output/eagle/debug/lib/libuser.a(AtCmd_Drv.o)
DeviceCurPM25ValUpdate                            user/.output/eagle/debug/lib/libuser.a(AtCmd_Drv.o)
DeviceCurSysStatusUpdate                          user/.output/eagle/debug/lib/libuser.a(AtCmd_Drv.o)
DeviceCurTempValUpdate                            user/.output/eagle/debug/lib/libuser.a(AtCmd_Drv.o)
DeviceCurTimeUpdate                               user/.output/eagle/debug/lib/libuser.a(AtCmd_Drv.o)
ESP_PARAM_START_SEC                               ../lib/libat.a(at_nv_data.o)
                                                  ../lib/libat.a(at_init_para.o)
ET_Group_bssid                                    ../lib/libsmartconfig.a(sc_sniffer.o)
                                                  ../lib/libsmartconfig.a(sc_esptouch.o)
FreqCalCntForScan                                 ../lib/libnet80211.a(ieee80211_scan.o)
                                                  ../lib/libnet80211.a(ieee80211_sta.o)
GetAccess                                         ../lib/libpp.a(lmac.o)
                                                  ../lib/libpp.a(pp.o)
GetRxCfgModeReqFlag                               user/.output/eagle/debug/lib/libuser.a(AtCmd_Drv.o)
GetRxRestartWifiReqFlag                           user/.output/eagle/debug/lib/libuser.a(AtCmd_Drv.o)
GetRxTimeSetReqFlag                               user/.output/eagle/debug/lib/libuser.a(AtCmd_Drv.o)
                                                  user/.output/eagle/debug/lib/libuser.a(GizCmdTest.o)
GizCmdTestInit                                    user/.output/eagle/debug/lib/libuser.a(GizCmdTest.o)
                                                  user/.output/eagle/debug/lib/libuser.a(user_main.o)
HdlAllBuffedEb                                    ../lib/libpp.a(pp.o)
                                                  ../lib/libnet80211.a(ieee80211_hostap.o)
HighestFreqOffsetInOneChk                         ../lib/libpp.a(pp.o)
                                                  ../lib/libnet80211.a(ieee80211_hostap.o)
IPMODE                                            ../lib/libat.a(at_ipCmd.o)
KISS_Deal_with                                    ../lib/libsmartconfig.a(sc_airkiss.o)
                                                  ../lib/libsmartconfig.a(sc_sniffer.o)
KISS_Find_channel                                 ../lib/libsmartconfig.a(sc_airkiss.o)
                                                  ../lib/libsmartconfig.a(sc_sniffer.o)
KISS_Find_channel_direct                          ../lib/libsmartconfig.a(sc_airkiss.o)
KISS_Find_channel_end                             ../lib/libsmartconfig.a(sc_airkiss.o)
KISS_Find_channel_trans                           ../lib/libsmartconfig.a(sc_airkiss.o)
KISS_Free_Glob_Diret                              ../lib/libsmartconfig.a(sc_airkiss.o)
                                                  ../lib/libsmartconfig.a(sc_sniffer.o)
KISS_Free_Glob_Trans                              ../lib/libsmartconfig.a(sc_airkiss.o)
                                                  ../lib/libsmartconfig.a(sc_sniffer.o)
KISS_Free_guide_glob                              ../lib/libsmartconfig.a(sc_airkiss.o)
                                                  ../lib/libsmartconfig.a(sc_sniffer.o)
KISS_Init_Glob_Diret                              ../lib/libsmartconfig.a(sc_airkiss.o)
KISS_Init_Glob_Trans                              ../lib/libsmartconfig.a(sc_airkiss.o)
KISS_Init_guide_glob                              ../lib/libsmartconfig.a(sc_airkiss.o)
                                                  ../lib/libsmartconfig.a(sc_sniffer.o)
KissRes_ht20_timer                                ../lib/libsmartconfig.a(sc_airkiss.o)
                                                  ../lib/libsmartconfig.a(sc_sniffer.o)
LightSleepWakedCbSetFunc                          ../lib/libpp.a(pm.o)
LowestFreqOffsetInOneChk                          ../lib/libpp.a(pp.o)
                                                  ../lib/libnet80211.a(ieee80211_hostap.o)
MD5_Final                                         ../lib/libssl.a(ssl_md5.o)
                                                  ../lib/libssl.a(ssl_hmac.o)
                                                  ../lib/libssl.a(ssl_x509.o)
                                                  ../lib/libssl.a(ssl_tls1.o)
                                                  ../lib/libssl.a(ssl_loader.o)
MD5_Init                                          ../lib/libssl.a(ssl_md5.o)
                                                  ../lib/libssl.a(ssl_hmac.o)
                                                  ../lib/libssl.a(ssl_x509.o)
                                                  ../lib/libssl.a(ssl_tls1.o)
                                                  ../lib/libssl.a(ssl_loader.o)
MD5_Update                                        ../lib/libssl.a(ssl_md5.o)
                                                  ../lib/libssl.a(ssl_hmac.o)
                                                  ../lib/libssl.a(ssl_x509.o)
                                                  ../lib/libssl.a(ssl_tls1.o)
                                                  ../lib/libssl.a(ssl_loader.o)
NMI_Handler                                       ../lib/libmain.a(app_main.o)
                                                  ../lib/libmain.a(nmi-vector.o)
NmiTimSetFunc                                     ../lib/libmain.a(app_main.o)
NoiseTimerInterval                                ../lib/libpp.a(pp.o)
                                                  ../lib/libnet80211.a(ieee80211_hostap.o)
OpmodChgIsOnGoing                                 ../lib/libmain.a(user_interface.o)
PPWdtReset                                        ../lib/libpp.a(pp.o)
                                                  ../lib/libpp.a(wdev.o)
PUCK_PORT                                         ../lib/liblwip.a(mdns.o)
PUCK_SERVICE                                      ../lib/liblwip.a(mdns.o)
PendFreeBcnEb                                     ../lib/libnet80211.a(ieee80211_hostap.o)
                                                  ../lib/libpp.a(pp.o)
PktNumInOneChk                                    ../lib/libpp.a(pp.o)
                                                  ../lib/libnet80211.a(ieee80211_hostap.o)
RC4_crypt                                         ../lib/libssl.a(ssl_rc4.o)
                                                  ../lib/libssl.a(ssl_tls1.o)
RC4_setup                                         ../lib/libssl.a(ssl_rc4.o)
                                                  ../lib/libssl.a(ssl_tls1.o)
RC_GetAckRate                                     ../lib/libpp.a(rate_control.o)
RC_GetAckTime                                     ../lib/libpp.a(rate_control.o)
                                                  ../lib/libpp.a(pp.o)
                                                  ../lib/libpp.a(lmac.o)
RC_GetBlockAckTime                                ../lib/libpp.a(rate_control.o)
                                                  ../lib/libpp.a(pp.o)
RC_GetCtsTime                                     ../lib/libpp.a(rate_control.o)
                                                  ../lib/libpp.a(pp.o)
RC_GetRtsRate                                     ../lib/libpp.a(rate_control.o)
RC_SetBasicRate                                   ../lib/libpp.a(rate_control.o)
                                                  ../lib/libpp.a(lmac.o)
RFChannelSel                                      ../lib/libphy.a(phy.o)
RNG_custom_init                                   ../lib/libssl.a(ssl_crypto_misc.o)
                                                  ../lib/libssl.a(ssl_asn1.o)
RNG_initialize                                    ../lib/libssl.a(ssl_crypto_misc.o)
                                                  ../lib/libssl.a(ssl_tls1.o)
RNG_terminate                                     ../lib/libssl.a(ssl_crypto_misc.o)
                                                  ../lib/libssl.a(ssl_tls1.o)
RSA_decrypt                                       ../lib/libssl.a(ssl_rsa.o)
                                                  ../lib/libssl.a(ssl_tls1_svr.o)
RSA_encrypt                                       ../lib/libssl.a(ssl_rsa.o)
                                                  ../lib/libssl.a(ssl_tls1_clnt.o)
RSA_free                                          ../lib/libssl.a(ssl_rsa.o)
                                                  ../lib/libssl.a(ssl_x509.o)
                                                  ../lib/libssl.a(ssl_tls1.o)
RSA_print                                         ../lib/libssl.a(ssl_rsa.o)
                                                  ../lib/libssl.a(ssl_tls1.o)
RSA_priv_key_new                                  ../lib/libssl.a(ssl_rsa.o)
                                                  ../lib/libssl.a(ssl_asn1.o)
RSA_private                                       ../lib/libssl.a(ssl_rsa.o)
RSA_pub_key_new                                   ../lib/libssl.a(ssl_rsa.o)
                                                  ../lib/libssl.a(ssl_asn1.o)
RSA_public                                        ../lib/libssl.a(ssl_rsa.o)
RSSI_BEAR                                         ../lib/libsmartconfig.a(sc_airkiss.o)
RSSI_MIN                                          ../lib/libsmartconfig.a(sc_airkiss.o)
RxNodeNum                                         ../lib/libpp.a(pp.o)
                                                  ../lib/liblwip.a(tcp_in.o)
                                                  ../lib/libnet80211.a(ieee80211_hostap.o)
SC_VERSION                                        ../lib/libsmartconfig.a(sc_sniffer.o)
SDIO_slp_reject                                   ../lib/libphy.a(phy_sleep.o)
SDK_VERSION                                       ../lib/libmain.a(app_main.o)
                                                  ../lib/libmain.a(user_interface.o)
SHA1_Final                                        ../lib/libssl.a(ssl_sha1.o)
                                                  ../lib/libssl.a(ssl_hmac.o)
                                                  ../lib/libssl.a(ssl_x509.o)
                                                  ../lib/libssl.a(ssl_tls1.o)
SHA1_Init                                         ../lib/libssl.a(ssl_sha1.o)
                                                  ../lib/libssl.a(ssl_hmac.o)
                                                  ../lib/libssl.a(ssl_x509.o)
                                                  ../lib/libssl.a(ssl_tls1.o)
SHA1_Update                                       ../lib/libssl.a(ssl_sha1.o)
                                                  ../lib/libssl.a(ssl_hmac.o)
                                                  ../lib/libssl.a(ssl_x509.o)
                                                  ../lib/libssl.a(ssl_tls1.o)
SHA256_Final                                      ../lib/libssl.a(sha256.o)
                                                  ../lib/libssl.a(ssl_x509.o)
SHA256_Init                                       ../lib/libssl.a(sha256.o)
                                                  ../lib/libssl.a(ssl_x509.o)
SHA256_Update                                     ../lib/libssl.a(sha256.o)
                                                  ../lib/libssl.a(ssl_x509.o)
SHA384_Final                                      ../lib/libssl.a(sha384.o)
                                                  ../lib/libssl.a(ssl_x509.o)
SHA384_Init                                       ../lib/libssl.a(sha384.o)
                                                  ../lib/libssl.a(ssl_x509.o)
SHA384_Update                                     ../lib/libssl.a(sha384.o)
                                                  ../lib/libssl.a(ssl_x509.o)
SHA512_Final                                      ../lib/libssl.a(sha512.o)
                                                  ../lib/libssl.a(sha384.o)
                                                  ../lib/libssl.a(ssl_x509.o)
SHA512_Init                                       ../lib/libssl.a(sha512.o)
                                                  ../lib/libssl.a(ssl_x509.o)
SHA512_Update                                     ../lib/libssl.a(sha512.o)
                                                  ../lib/libssl.a(sha384.o)
                                                  ../lib/libssl.a(ssl_x509.o)
SPIEraseSector                                    ../lib/libmain.a(spi_flash.o)
SPIRead                                           ../lib/libmain.a(spi_flash.o)
                                                  ../lib/libmain.a(app_main.o)
SPIWrite                                          ../lib/libmain.a(spi_flash.o)
SPI_read_status                                   ../lib/libmain.a(spi_flash.o)
SPI_write_enable                                  ../lib/libmain.a(spi_flash.o)
SPI_write_status                                  ../lib/libmain.a(spi_flash.o)
SSLClient_new                                     ../lib/libssl.a(ssl_tls1_clnt.o)
                                                  ../lib/libssl.a(espconn_ssl.o)
Sensor_GetBatCapacityVal                          user/.output/eagle/debug/lib/libuser.a(SensorInterface.o)
                                                  user/.output/eagle/debug/lib/libuser.a(AtCmd_Drv.o)
Sensor_GetFormaldehydeVal                         user/.output/eagle/debug/lib/libuser.a(SensorInterface.o)
                                                  user/.output/eagle/debug/lib/libuser.a(AtCmd_Drv.o)
Sensor_GetHourMinSec                              user/.output/eagle/debug/lib/libuser.a(SensorInterface.o)
                                                  user/.output/eagle/debug/lib/libuser.a(AtCmd_Drv.o)
Sensor_GetHumidityVal                             user/.output/eagle/debug/lib/libuser.a(SensorInterface.o)
                                                  user/.output/eagle/debug/lib/libuser.a(AtCmd_Drv.o)
Sensor_GetPM25Val                                 user/.output/eagle/debug/lib/libuser.a(SensorInterface.o)
                                                  user/.output/eagle/debug/lib/libuser.a(AtCmd_Drv.o)
Sensor_GetSysState                                user/.output/eagle/debug/lib/libuser.a(SensorInterface.o)
                                                  user/.output/eagle/debug/lib/libuser.a(AtCmd_Drv.o)
Sensor_GetTemperatureVal                          user/.output/eagle/debug/lib/libuser.a(SensorInterface.o)
                                                  user/.output/eagle/debug/lib/libuser.a(AtCmd_Drv.o)
Sensor_HasTemperatureData                         user/.output/eagle/debug/lib/libuser.a(AtCmd_Drv.o)
                                                  user/.output/eagle/debug/lib/libuser.a(WDJson_Drv.o)
SerialDrv_Init                                    user/.output/eagle/debug/lib/libuser.a(Serial_Drv.o)
                                                  user/.output/eagle/debug/lib/libuser.a(AtCmd_Drv.o)
SerialDrv_SetRxCompleteBool                       user/.output/eagle/debug/lib/libuser.a(Serial_Drv.o)
                                                  user/.output/eagle/debug/lib/libuser.a(AtCmd_Drv.o)
SetRxCfgModeReqFlag                               user/.output/eagle/debug/lib/libuser.a(AtCmd_Drv.o)
SetRxRestartWifiReqFlag                           user/.output/eagle/debug/lib/libuser.a(AtCmd_Drv.o)
SetRxTimeSetReqFlag                               user/.output/eagle/debug/lib/libuser.a(AtCmd_Drv.o)
                                                  user/.output/eagle/debug/lib/libuser.a(GizCmdTest.o)
SnifGlob                                          ../lib/libsmartconfig.a(sc_sniffer.o)
                                                  ../lib/libsmartconfig.a(sc_esptouch.o)
                                                  ../lib/libsmartconfig.a(sc_airkiss.o)
StopLightSleepSetFunc                             ../lib/libpp.a(pm.o)
Sys_DelayMs                                       user/.output/eagle/debug/lib/libuser.a(GlobalFunc.o)
Sys_GetRunTime                                    user/.output/eagle/debug/lib/libuser.a(GlobalFunc.o)
                                                  user/.output/eagle/debug/lib/libuser.a(WDJson_Drv.o)
                                                  user/.output/eagle/debug/lib/libuser.a(GizCmdTest.o)
                                                  user/.output/eagle/debug/lib/libuser.a(AtCmd_Drv.o)
Sys_GetVersion                                    user/.output/eagle/debug/lib/libuser.a(GlobalFunc.o)
                                                  user/.output/eagle/debug/lib/libuser.a(AtCmd_Drv.o)
Sys_IsBigEndian                                   user/.output/eagle/debug/lib/libuser.a(GlobalFunc.o)
                                                  user/.output/eagle/debug/lib/libuser.a(GizCmdTest.o)
TOUCH_Deal_with                                   ../lib/libsmartconfig.a(sc_esptouch.o)
                                                  ../lib/libsmartconfig.a(sc_sniffer.o)
TOUCH_Find_sync_ht20                              ../lib/libsmartconfig.a(sc_esptouch.o)
                                                  ../lib/libsmartconfig.a(sc_sniffer.o)
TOUCH_Find_sync_ht40                              ../lib/libsmartconfig.a(sc_esptouch.o)
                                                  ../lib/libsmartconfig.a(sc_sniffer.o)
TOUCH_Free_glob                                   ../lib/libsmartconfig.a(sc_esptouch.o)
                                                  ../lib/libsmartconfig.a(sc_sniffer.o)
TOUCH_Free_guide_glob                             ../lib/libsmartconfig.a(sc_esptouch.o)
                                                  ../lib/libsmartconfig.a(sc_sniffer.o)
TOUCH_Init_glob                                   ../lib/libsmartconfig.a(sc_esptouch.o)
TOUCH_Init_guide_glob                             ../lib/libsmartconfig.a(sc_esptouch.o)
                                                  ../lib/libsmartconfig.a(sc_sniffer.o)
Td0                                               ../lib/libcrypto.a(aes-internal-dec.o)
Td4s                                              ../lib/libcrypto.a(aes-internal-dec.o)
Te0                                               ../lib/libcrypto.a(aes-internal-dec.o)
                                                  ../lib/libcrypto.a(aes-internal.o)
                                                  ../lib/libcrypto.a(aes-internal-enc.o)
TestStaFreqCalValInput                            ../lib/libnet80211.a(ieee80211_scan.o)
                                                  ../lib/libnet80211.a(ieee80211_output.o)
                                                  ../lib/libnet80211.a(ieee80211_hostap.o)
                                                  ../lib/libpp.a(pp.o)
                                                  ../lib/libmain.a(app_main.o)
TestTimerCallBack                                 user/.output/eagle/debug/lib/libuser.a(AtCmd_Drv.o)
TmpSTAAPCloseAP                                   ../lib/libnet80211.a(ieee80211_hostap.o)
                                                  ../lib/libpp.a(pp.o)
TouchRestart_ht20_timer                           ../lib/libsmartconfig.a(sc_esptouch.o)
                                                  ../lib/libsmartconfig.a(sc_sniffer.o)
TouchRestart_ht40_timer                           ../lib/libsmartconfig.a(sc_esptouch.o)
                                                  ../lib/libsmartconfig.a(sc_sniffer.o)
TouchUdpTimer                                     ../lib/libsmartconfig.a(sc_esptouch.o)
                                                  ../lib/libsmartconfig.a(sc_sniffer.o)
TxNodeNum                                         ../lib/libpp.a(pp.o)
Tx_Copy2Queue                                     ../lib/libpp.a(wdev.o)
                                                  ../lib/libpp.a(lmac.o)
UART_CheckOutputFinished                          ../lib/libat.a(uart.o)
                                                  ../lib/libat.a(at_ipCmd.o)
UART_ClearIntrStatus                              ../lib/libat.a(uart.o)
UART_ResetFifo                                    ../lib/libat.a(uart.o)
UART_SetBaudrate                                  ../lib/libat.a(uart.o)
                                                  ../lib/libat.a(at_ipCmd.o)
UART_SetFlowCtrl                                  ../lib/libat.a(uart.o)
                                                  ../lib/libat.a(at_init_para.o)
                                                  ../lib/libat.a(at_ipCmd.o)
UART_SetIntrEna                                   ../lib/libat.a(uart.o)
UART_SetLineInverse                               ../lib/libat.a(uart.o)
UART_SetParity                                    ../lib/libat.a(uart.o)
                                                  ../lib/libat.a(at_init_para.o)
                                                  ../lib/libat.a(at_ipCmd.o)
UART_SetPrintPort                                 ../lib/libat.a(uart.o)
UART_SetStopBits                                  ../lib/libat.a(uart.o)
                                                  ../lib/libat.a(at_init_para.o)
                                                  ../lib/libat.a(at_ipCmd.o)
UART_SetWordLength                                ../lib/libat.a(uart.o)
                                                  ../lib/libat.a(at_init_para.o)
                                                  ../lib/libat.a(at_ipCmd.o)
UART_WaitTxFifoEmpty                              ../lib/libat.a(uart.o)
UartDev                                           ../lib/libat.a(uart.o)
Uart_Buf_Init                                     ../lib/libat.a(uart.o)
Uart_Init                                         ../lib/libphy.a(phy_chip_v6.o)
WDJson_PushToCloud                                user/.output/eagle/debug/lib/libuser.a(WDJson_Drv.o)
WDJson_SetNodeFloatValue                          user/.output/eagle/debug/lib/libuser.a(WDJson_Drv.o)
WDJson_SetNodeNumValue                            user/.output/eagle/debug/lib/libuser.a(WDJson_Drv.o)
WDJson_SetNodeStringValue                         user/.output/eagle/debug/lib/libuser.a(WDJson_Drv.o)
WDJson_WriteToCloud                               user/.output/eagle/debug/lib/libuser.a(WDJson_Drv.o)
                                                  user/.output/eagle/debug/lib/libuser.a(WildDog_Drv.o)
WD_Init                                           user/.output/eagle/debug/lib/libuser.a(WildDog_Drv.o)
                                                  user/.output/eagle/debug/lib/libuser.a(user_main.o)
WD_user_check_ip                                  user/.output/eagle/debug/lib/libuser.a(WildDog_Drv.o)
WD_user_set_station_config                        user/.output/eagle/debug/lib/libuser.a(WildDog_Drv.o)
Wait_SPI_Idle                                     ../lib/libpp.a(pp.o)
                                                  ../lib/libmain.a(user_interface.o)
                                                  ../lib/libmain.a(spi_flash.o)
                                                  ../lib/libmain.a(mem_manager.o)
                                                  ../lib/libmain.a(app_main.o)
WdevTimOffSet                                     ../lib/libpp.a(wdev.o)
                                                  ../lib/libpp.a(pm_for_bcn_only_mode.o)
                                                  ../lib/libpp.a(pm.o)
                                                  ../lib/libmain.a(user_interface.o)
Wilddog_ApiCmd_FuncTable                          ../lib/libwilddog.a(wilddog_ct.o)
_DebugExceptionVector                             ../lib/libmain.a(debug-vector.o)
_DoubleExceptionVector                            ../lib/libmain.a(double-vector.o)
_KernelExceptionVector                            ../lib/libmain.a(kernel-vector.o)
_NMIExceptionVector                               ../lib/libmain.a(nmi-vector.o)
_NMILevelVector                                   ../lib/libmain.a(nmi-vector.o)
_Pri_3_HandlerAddress                             ../lib/libmain.a(nmi-vector.o)
_UserExceptionVector                              ../lib/libmain.a(user-vector.o)
_UserExceptionVector_1                            ../lib/libmain.a(user-vector.o)
__addsf3                                          ../lib/libphy.a(phy_chip_v6_ana.o)
                                                  user/.output/eagle/debug/lib/libuser.a(WDJson_Drv.o)
__ashrdi3                                         ../lib/libgcc.a(_ashrdi3.o)
                                                  ../lib/libphy.a(phy_chip_v6.o)
__ctype_ptr                                       /opt/xtensa-lx106-elf/bin/../lib/gcc/xtensa-lx106-elf/4.8.2/libc.a(ctype_.o)
__divdf3                                          ../lib/libphy.a(phy_chip_v6.o)
                                                  ../lib/libphy.a(phy_chip_v6_ana.o)
__divdi3                                          ../lib/libphy.a(phy_chip_v6_cal.o)
__divsf3                                          ../lib/libgcc.a(_divsf3.o)
                                                  ../lib/libphy.a(phy_chip_v6.o)
                                                  ../lib/libphy.a(phy_chip_v6_ana.o)
__divsi3                                          ../lib/libcrypto.a(bignum.o)
                                                  ../lib/libsmartconfig.a(sc_esptouch.o)
                                                  ../lib/libssl.a(ssl_os_port.o)
                                                  ../lib/libssl.a(ssl_bigint.o)
                                                  ../lib/libssl.a(ssl_asn1.o)
                                                  ../lib/libwpa.a(wpa_auth.o)
                                                  ../lib/liblwip.a(tcp_in.o)
                                                  ../lib/liblwip.a(dhcp.o)
                                                  ../lib/libnet80211.a(ieee80211.o)
                                                  ../lib/libpp.a(pp.o)
                                                  ../lib/libpp.a(pm.o)
                                                  ../lib/libphy.a(phy_chip_v6_cal.o)
                                                  ../lib/libphy.a(phy_chip_v6.o)
                                                  ../lib/libphy.a(phy_chip_v6_ana.o)
                                                  ../lib/libat.a(at_baseCmd.o)
                                                  user/.output/eagle/debug/lib/libuser.a(GlobalFunc.o)
                                                  ../lib/libmain.a(user_interface.o)
__eqdf2                                           ../lib/libgcc.a(_cmpdf2.o)
__extendsfdf2                                     ../lib/libwilddog.a(wilddog_cbor.o)
__fixdfsi                                         ../lib/libphy.a(phy_chip_v6.o)
__fixsfsi                                         ../lib/libgcc.a(_fixsfsi.o)
                                                  ../lib/libphy.a(phy_chip_v6.o)
__fixunssfsi                                      ../lib/libphy.a(phy_chip_v6_ana.o)
__floatsidf                                       ../lib/libphy.a(phy_chip_v6.o)
__floatsisf                                       ../lib/libphy.a(phy_chip_v6.o)
                                                  ../lib/libphy.a(phy_chip_v6_ana.o)
__floatunsidf                                     ../lib/libphy.a(phy_chip_v6_ana.o)
__floatunsisf                                     ../lib/libphy.a(phy_chip_v6.o)
__gedf2                                           ../lib/libgcc.a(_cmpdf2.o)
__gtdf2                                           ../lib/libgcc.a(_cmpdf2.o)
__ledf2                                           ../lib/libgcc.a(_cmpdf2.o)
__ltdf2                                           ../lib/libgcc.a(_cmpdf2.o)
                                                  ../lib/libwilddog.a(wilddog_cbor.o)
__modsi3                                          ../lib/libgcc.a(_modsi3.o)
                                                  ../lib/libcrypto.a(bignum.o)
                                                  ../lib/libsmartconfig.a(sc_airkiss.o)
                                                  ../lib/libssl.a(ssl_bigint.o)
                                                  ../lib/libssl.a(ssl_aes.o)
                                                  ../lib/libssl.a(ssl_tls1.o)
                                                  ../lib/libssl.a(espconn_ssl.o)
                                                  ../lib/libwpa.a(wpa_auth.o)
                                                  ../lib/libnet80211.a(ieee80211_ht.o)
                                                  ../lib/libphy.a(phy_chip_v6.o)
                                                  ../lib/libat.a(uart.o)
__muldf3                                          ../lib/libphy.a(phy_chip_v6.o)
__muldi3                                          /opt/xtensa-lx106-elf/bin/../lib/gcc/xtensa-lx106-elf/4.8.2/libc.a(rand.o)
                                                  ../lib/libssl.a(ssl_bigint.o)
                                                  ../lib/libssl.a(sha512.o)
                                                  ../lib/libphy.a(phy_chip_v6_cal.o)
                                                  ../lib/libphy.a(phy_chip_v6.o)
                                                  ../lib/libmain.a(user_interface.o)
__mulsf3                                          ../lib/libgcc.a(_mulsf3.o)
                                                  ../lib/libphy.a(phy_chip_v6.o)
                                                  ../lib/libphy.a(phy_chip_v6_ana.o)
__nedf2                                           ../lib/libgcc.a(_cmpdf2.o)
__subsf3                                          ../lib/libphy.a(phy_chip_v6_ana.o)
__truncdfsf2                                      ../lib/libphy.a(phy_chip_v6_ana.o)
__udivdi3                                         ../lib/libssl.a(ssl_bigint.o)
__udivsi3                                         /opt/xtensa-lx106-elf/bin/../lib/gcc/xtensa-lx106-elf/4.8.2/libc.a(strtol.o)
                                                  ../lib/libwps.a(wps_common.o)
                                                  ../lib/libwps.a(wps.o)
                                                  ../lib/libssl.a(ssl_asn1.o)
                                                  ../lib/liblwip.a(timers.o)
                                                  ../lib/liblwip.a(tcp.o)
                                                  ../lib/liblwip.a(ping.o)
                                                  ../lib/liblwip.a(ip_addr.o)
                                                  ../lib/liblwip.a(espconn.o)
                                                  ../lib/liblwip.a(dhcp.o)
                                                  ../lib/libnet80211.a(ieee80211_hostap.o)
                                                  ../lib/libnet80211.a(ieee80211.o)
                                                  ../lib/libpp.a(wdev.o)
                                                  ../lib/libpp.a(trc.o)
                                                  ../lib/libpp.a(pp.o)
                                                  ../lib/libpp.a(pm_for_bcn_only_mode.o)
                                                  ../lib/libpp.a(pm.o)
                                                  ../lib/libphy.a(phy_sleep.o)
                                                  ../lib/libphy.a(phy_chip_v6_cal.o)
                                                  ../lib/libphy.a(phy_chip_v6.o)
                                                  ../lib/libat.a(uart.o)
                                                  ../lib/libat.a(at_wifiCmd.o)
                                                  user/.output/eagle/debug/lib/libuser.a(WDJson_Drv.o)
                                                  ../lib/libmain.a(eagle_lib.o)
                                                  ../lib/libmain.a(user_interface.o)
                                                  ../lib/libmain.a(ets_timer.o)
                                                  ../lib/libmain.a(app_main.o)
__umoddi3                                         ../lib/libssl.a(ssl_bigint.o)
                                                  ../lib/libpp.a(pm.o)
__umodsi3                                         ../lib/libcrypto.a(bignum.o)
                                                  /opt/xtensa-lx106-elf/bin/../lib/gcc/xtensa-lx106-elf/4.8.2/libc.a(strtol.o)
                                                  ../lib/libwps.a(wps_validate.o)
                                                  ../lib/libwps.a(wps_common.o)
                                                  ../lib/liblwip.a(tcp.o)
                                                  ../lib/liblwip.a(ip_addr.o)
                                                  ../lib/liblwip.a(igmp.o)
                                                  ../lib/liblwip.a(espconn.o)
                                                  ../lib/libat.a(uart.o)
                                                  ../lib/libat.a(at_wifiCmd.o)
                                                  user/.output/eagle/debug/lib/libuser.a(WDJson_Drv.o)
                                                  ../lib/libmain.a(eagle_lib.o)
__umulsidi3                                       ../lib/libcrypto.a(bignum.o)
                                                  ../lib/libssl.a(ssl_bigint.o)
__unorddf2                                        ../lib/libgcc.a(_cmpdf2.o)
__wpa_send_eapol                                  ../lib/libwpa.a(wpa_auth.o)
_atoi_r                                           /opt/xtensa-lx106-elf/bin/../lib/gcc/xtensa-lx106-elf/4.8.2/libc.a(atoi.o)
_bss_end                                          ../lib/libmain.a(user_interface.o)
                                                  ../lib/libmain.a(app_main.o)
_bss_start                                        ../lib/libmain.a(user_interface.o)
                                                  ../lib/libmain.a(app_main.o)
_ctype_                                           /opt/xtensa-lx106-elf/bin/../lib/gcc/xtensa-lx106-elf/4.8.2/libc.a(ctype_.o)
                                                  /opt/xtensa-lx106-elf/bin/../lib/gcc/xtensa-lx106-elf/4.8.2/libc.a(strtol.o)
                                                  ../lib/libwilddog.a(wilddog_url_parser.o)
                                                  /opt/xtensa-lx106-elf/bin/../lib/gcc/xtensa-lx106-elf/4.8.2/libc.a(islower.o)
_data_end                                         ../lib/libmain.a(user_interface.o)
_data_start                                       ../lib/libmain.a(user_interface.o)
_global_impure_ptr                                /opt/xtensa-lx106-elf/bin/../lib/gcc/xtensa-lx106-elf/4.8.2/libc.a(impure.o)
_heap_start                                       ../lib/libmain.a(user_interface.o)
                                                  ../lib/libmain.a(mem_manager.o)
_impure_ptr                                       /opt/xtensa-lx106-elf/bin/../lib/gcc/xtensa-lx106-elf/4.8.2/libc.a(impure.o)
                                                  /opt/xtensa-lx106-elf/bin/../lib/gcc/xtensa-lx106-elf/4.8.2/libc.a(strtol.o)
                                                  /opt/xtensa-lx106-elf/bin/../lib/gcc/xtensa-lx106-elf/4.8.2/libc.a(rand.o)
_isKeyValid                                       ../lib/libwilddog.a(wilddog_node.o)
                                                  ../lib/libwilddog.a(wilddog_cbor.o)
_rodata_end                                       ../lib/libmain.a(user_interface.o)
_rodata_start                                     ../lib/libmain.a(user_interface.o)
_strtol_r                                         /opt/xtensa-lx106-elf/bin/../lib/gcc/xtensa-lx106-elf/4.8.2/libc.a(strtol.o)
                                                  /opt/xtensa-lx106-elf/bin/../lib/gcc/xtensa-lx106-elf/4.8.2/libc.a(atoi.o)
_wilddog_atoi                                     ../lib/libwilddog.a(wilddog_common.o)
_wilddog_cbor2Node                                ../lib/libwilddog.a(wilddog_cbor.o)
_wilddog_cm_cmd_deInit                            ../lib/libwilddog.a(wilddog_conn_manage.o)
_wilddog_cm_cmd_init                              ../lib/libwilddog.a(wilddog_conn_manage.o)
_wilddog_cm_funcTable                             ../lib/libwilddog.a(wilddog_conn_manage.o)
_wilddog_cm_ioctl                                 ../lib/libwilddog.a(wilddog_conn_manage.o)
                                                  ../lib/libwilddog.a(wilddog_conn.o)
_wilddog_coap_code2Http                           ../lib/libwilddog.a(wilddog_conn_coap.o)
_wilddog_coap_deInit                              ../lib/libwilddog.a(wilddog_conn_coap.o)
_wilddog_coap_findRespondNode                     ../lib/libwilddog.a(wilddog_conn_coap.o)
_wilddog_coap_init                                ../lib/libwilddog.a(wilddog_conn_coap.o)
_wilddog_coap_midTokenModify                      ../lib/libwilddog.a(wilddog_conn_coap.o)
_wilddog_coap_receive                             ../lib/libwilddog.a(wilddog_conn_coap.o)
_wilddog_coap_send                                ../lib/libwilddog.a(wilddog_conn_coap.o)
_wilddog_connCallBack_funcTable                   ../lib/libwilddog.a(wilddog_conn.o)
_wilddog_conn_deinit                              ../lib/libwilddog.a(wilddog_conn.o)
                                                  ../lib/libwilddog.a(wilddog_ct.o)
_wilddog_conn_funcTable                           ../lib/libwilddog.a(wilddog_conn.o)
_wilddog_conn_init                                ../lib/libwilddog.a(wilddog_conn.o)
                                                  ../lib/libwilddog.a(wilddog_ct.o)
_wilddog_ct_conn_goOffline                        ../lib/libwilddog.a(wilddog_ct.o)
_wilddog_ct_conn_goOnline                         ../lib/libwilddog.a(wilddog_ct.o)
_wilddog_ct_findRepo                              ../lib/libwilddog.a(wilddog_ct.o)
                                                  ../lib/libwilddog.a(wilddog_event.o)
_wilddog_ct_getOnlineStatus                       ../lib/libwilddog.a(wilddog_ct.o)
                                                  ../lib/libwilddog.a(wilddog_conn_manage.o)
_wilddog_ct_getRepoHead                           ../lib/libwilddog.a(wilddog_ct.o)
                                                  ../lib/libwilddog.a(wilddog_conn_manage.o)
_wilddog_ct_getRepoNum                            ../lib/libwilddog.a(wilddog_ct.o)
_wilddog_ct_ioctl                                 ../lib/libwilddog.a(wilddog_ct.o)
                                                  ../lib/libwilddog.a(wilddog_api.o)
_wilddog_ct_setOnlineStatus                       ../lib/libwilddog.a(wilddog_ct.o)
                                                  ../lib/libwilddog.a(wilddog_conn_manage.o)
_wilddog_event_deinit                             ../lib/libwilddog.a(wilddog_event.o)
                                                  ../lib/libwilddog.a(wilddog_store.o)
_wilddog_event_init                               ../lib/libwilddog.a(wilddog_event.o)
                                                  ../lib/libwilddog.a(wilddog_store.o)
_wilddog_event_nodeAdd                            ../lib/libwilddog.a(wilddog_event.o)
_wilddog_event_nodeDelete                         ../lib/libwilddog.a(wilddog_event.o)
_wilddog_event_pathRelative                       ../lib/libwilddog.a(wilddog_event.o)
_wilddog_event_trigger                            ../lib/libwilddog.a(wilddog_event.o)
_wilddog_getTime                                  ../lib/libwilddog.a(wilddog_common.o)
                                                  ../lib/libwilddog.a(wilddog_conn_manage.o)
_wilddog_isAuthValid                              ../lib/libwilddog.a(wilddog_common.o)
                                                  ../lib/libwilddog.a(wilddog_ct.o)
_wilddog_isUrlValid                               ../lib/libwilddog.a(wilddog_common.o)
                                                  ../lib/libwilddog.a(wilddog_ct.o)
_wilddog_memcpy                                   ../lib/libwilddog.a(wilddog_common.o)
                                                  ../lib/libwilddog.a(wilddog_cbor.o)
_wilddog_node2Cbor                                ../lib/libwilddog.a(wilddog_cbor.o)
_wilddog_node2Payload                             ../lib/libwilddog.a(wilddog_cbor.o)
                                                  ../lib/libwilddog.a(wilddog_conn.o)
_wilddog_node_free                                ../lib/libwilddog.a(wilddog_node.o)
_wilddog_node_new                                 ../lib/libwilddog.a(wilddog_node.o)
                                                  ../lib/libwilddog.a(wilddog_cbor.o)
_wilddog_node_setKey                              ../lib/libwilddog.a(wilddog_node.o)
                                                  ../lib/libwilddog.a(wilddog_conn.o)
_wilddog_payload2Node                             ../lib/libwilddog.a(wilddog_cbor.o)
                                                  ../lib/libwilddog.a(wilddog_conn_manage.o)
                                                  ../lib/libwilddog.a(wilddog_conn.o)
_wilddog_protocolPackage_funcTable                ../lib/libwilddog.a(wilddog_conn_coap.o)
_wilddog_protocol_ioctl                           ../lib/libwilddog.a(wilddog_conn_coap.o)
                                                  ../lib/libwilddog.a(wilddog_conn_manage.o)
                                                  ../lib/libwilddog.a(wilddog_conn.o)
_wilddog_recv_dispatch                            ../lib/libwilddog.a(wilddog_conn_coap.o)
_wilddog_recv_getOptionValue                      ../lib/libwilddog.a(wilddog_conn_coap.o)
_wilddog_recv_path_alloc                          ../lib/libwilddog.a(wilddog_conn_coap.o)
_wilddog_sec_deinit                               ../lib/libwilddog.a(wilddog_nosec.o)
                                                  ../lib/libwilddog.a(wilddog_conn_coap.o)
_wilddog_sec_getHost                              ../lib/libwilddog.a(wilddog_sec_host.o)
                                                  ../lib/libwilddog.a(wilddog_nosec.o)
_wilddog_sec_init                                 ../lib/libwilddog.a(wilddog_nosec.o)
                                                  ../lib/libwilddog.a(wilddog_conn_coap.o)
_wilddog_sec_reconnect                            ../lib/libwilddog.a(wilddog_nosec.o)
                                                  ../lib/libwilddog.a(wilddog_conn_manage.o)
_wilddog_sec_recv                                 ../lib/libwilddog.a(wilddog_nosec.o)
                                                  ../lib/libwilddog.a(wilddog_conn_coap.o)
_wilddog_sec_send                                 ../lib/libwilddog.a(wilddog_nosec.o)
                                                  ../lib/libwilddog.a(wilddog_conn_coap.o)
_wilddog_setTimeIncrease                          ../lib/libwilddog.a(wilddog_common.o)
                                                  ../lib/libwilddog.a(wilddog_api.o)
_wilddog_store_deinit                             ../lib/libwilddog.a(wilddog_store.o)
                                                  ../lib/libwilddog.a(wilddog_ct.o)
_wilddog_store_init                               ../lib/libwilddog.a(wilddog_store.o)
                                                  ../lib/libwilddog.a(wilddog_ct.o)
_wilddog_strchar                                  ../lib/libwilddog.a(wilddog_common.o)
                                                  ../lib/libwilddog.a(wilddog_conn_coap.o)
_wilddog_strstr                                   ../lib/libwilddog.a(wilddog_common.o)
_wilddog_syncTime                                 ../lib/libwilddog.a(wilddog_common.o)
                                                  ../lib/libwilddog.a(wilddog_ct.o)
_wilddog_url_diff                                 ../lib/libwilddog.a(wilddog_url_parser.o)
                                                  ../lib/libwilddog.a(wilddog_ct.o)
_wilddog_url_freeParsedUrl                        ../lib/libwilddog.a(wilddog_url_parser.o)
                                                  ../lib/libwilddog.a(wilddog_event.o)
                                                  ../lib/libwilddog.a(wilddog_ct.o)
_wilddog_url_getKey                               ../lib/libwilddog.a(wilddog_url_parser.o)
                                                  ../lib/libwilddog.a(wilddog_conn.o)
                                                  ../lib/libwilddog.a(wilddog_ct.o)
_wilddog_url_getPath                              ../lib/libwilddog.a(wilddog_url_parser.o)
                                                  ../lib/libwilddog.a(wilddog_ct.o)
_wilddog_url_parseUrl                             ../lib/libwilddog.a(wilddog_url_parser.o)
                                                  ../lib/libwilddog.a(wilddog_ct.o)
_wilddogurl_checkPath                             ../lib/libwilddog.a(wilddog_url_parser.o)
_xtos_set_exception_handler                       ../lib/libmain.a(app_main.o)
adc_rand_noise                                    ../lib/libphy.a(phy_chip_v6.o)
                                                  ../lib/libphy.a(phy_sleep.o)
add_cert                                          ../lib/libssl.a(ssl_tls1.o)
                                                  ../lib/libssl.a(ssl_loader.o)
add_cert_auth                                     ../lib/libssl.a(ssl_tls1.o)
                                                  ../lib/libssl.a(ssl_loader.o)
add_packet                                        ../lib/libssl.a(ssl_tls1.o)
                                                  ../lib/libssl.a(ssl_tls1_svr.o)
add_private_key                                   ../lib/libssl.a(ssl_tls1.o)
                                                  ../lib/libssl.a(ssl_loader.o)
aes_128_cbc_decrypt                               ../lib/libcrypto.a(aes-cbc.o)
                                                  ../lib/libwps.a(wps_common.o)
aes_128_cbc_encrypt                               ../lib/libcrypto.a(aes-cbc.o)
                                                  ../lib/libwps.a(wps_attr_build.o)
aes_decrypt                                       ../lib/libcrypto.a(aes-internal-dec.o)
                                                  ../lib/libcrypto.a(aes-cbc.o)
aes_decrypt_deinit                                ../lib/libcrypto.a(aes-internal-dec.o)
                                                  ../lib/libcrypto.a(aes-cbc.o)
aes_decrypt_init                                  ../lib/libcrypto.a(aes-internal-dec.o)
                                                  ../lib/libcrypto.a(aes-cbc.o)
aes_encrypt                                       ../lib/libcrypto.a(aes-internal-enc.o)
                                                  ../lib/libcrypto.a(aes-cbc.o)
                                                  ../lib/libcrypto.a(aes-wrap.o)
aes_encrypt_deinit                                ../lib/libcrypto.a(aes-internal-enc.o)
                                                  ../lib/libcrypto.a(aes-cbc.o)
                                                  ../lib/libcrypto.a(aes-wrap.o)
aes_encrypt_init                                  ../lib/libcrypto.a(aes-internal-enc.o)
                                                  ../lib/libcrypto.a(aes-cbc.o)
                                                  ../lib/libcrypto.a(aes-wrap.o)
aes_unwrap                                        ../lib/libwpa.a(wpa.o)
aes_wrap                                          ../lib/libcrypto.a(aes-wrap.o)
                                                  ../lib/libwpa.a(wpa_auth.o)
airkiss_lan_pack                                  ../lib/libairkiss.a(airlink.o)
                                                  ../lib/libat.a(at_wifiCmd.o)
                                                  user/.output/eagle/debug/lib/libuser.a(AirKiss_Drv.o)
airkiss_lan_recv                                  ../lib/libairkiss.a(airlink.o)
                                                  ../lib/libat.a(at_wifiCmd.o)
                                                  user/.output/eagle/debug/lib/libuser.a(AirKiss_Drv.o)
airkiss_start_discover                            user/.output/eagle/debug/lib/libuser.a(AirKiss_Drv.o)
akconf                                            ../lib/libat.a(at_wifiCmd.o)
akconfig                                          user/.output/eagle/debug/lib/libuser.a(AirKiss_Drv.o)
ant_switch_init                                   ../lib/libphy.a(phy_chip_v6.o)
ap_print_mask                                     ../lib/libat.a(at_wifiCmd.o)
ap_sort_flag                                      ../lib/libat.a(at_wifiCmd.o)
asn1_compare_dn                                   ../lib/libssl.a(ssl_asn1.o)
                                                  ../lib/libssl.a(ssl_x509.o)
asn1_find_oid                                     ../lib/libssl.a(ssl_asn1.o)
asn1_find_subjectaltname                          ../lib/libssl.a(ssl_asn1.o)
                                                  ../lib/libssl.a(ssl_x509.o)
asn1_get_int                                      ../lib/libssl.a(ssl_asn1.o)
asn1_get_private_key                              ../lib/libssl.a(ssl_asn1.o)
                                                  ../lib/libssl.a(ssl_tls1.o)
asn1_name                                         ../lib/libssl.a(ssl_asn1.o)
                                                  ../lib/libssl.a(ssl_x509.o)
asn1_next_obj                                     ../lib/libssl.a(ssl_asn1.o)
                                                  ../lib/libssl.a(ssl_x509.o)
asn1_public_key                                   ../lib/libssl.a(ssl_asn1.o)
                                                  ../lib/libssl.a(ssl_x509.o)
asn1_signature                                    ../lib/libssl.a(ssl_asn1.o)
                                                  ../lib/libssl.a(ssl_x509.o)
asn1_signature_type                               ../lib/libssl.a(ssl_asn1.o)
                                                  ../lib/libssl.a(ssl_x509.o)
asn1_skip_obj                                     ../lib/libssl.a(ssl_asn1.o)
                                                  ../lib/libssl.a(ssl_x509.o)
asn1_validity                                     ../lib/libssl.a(ssl_asn1.o)
                                                  ../lib/libssl.a(ssl_x509.o)
asn1_version                                      ../lib/libssl.a(ssl_asn1.o)
                                                  ../lib/libssl.a(ssl_x509.o)
at_airkiss_discover_set                           ../lib/libat.a(at_wifiCmd.o)
                                                  ../lib/libat.a(at_ipCmd.o)
at_alloc_linkconn                                 ../lib/libat.a(at_ipCmd.o)
                                                  ../lib/libat.a(at_port.o)
at_cmdProcess                                     ../lib/libat.a(at_cmd.o)
                                                  ../lib/libat.a(at_port.o)
at_cmd_array_regist                               ../lib/libat.a(at_port.o)
                                                  user/.output/eagle/debug/lib/libuser.a(Serial_Drv.o)
at_cmd_ping_recv_cb                               ../lib/libat.a(at_wifiCmd.o)
at_cmd_ping_send_cb                               ../lib/libat.a(at_wifiCmd.o)
at_customLinkMax                                  ../lib/libat.a(at_ipCmd.o)
                                                  user/.output/eagle/debug/lib/libuser.a(Serial_Drv.o)
at_custom_cmd                                     user/.output/eagle/debug/lib/libuser.a(Serial_Drv.o)
at_custom_func                                    ../lib/libat.a(at_port.o)
                                                  ../lib/libat.a(uart.o)
at_dataLine                                       ../lib/libat.a(at_port.o)
                                                  ../lib/libat.a(at_ipCmd.o)
at_dataLine2                                      ../lib/libat.a(at_port.o)
                                                  ../lib/libat.a(at_ipCmd.o)
at_dataLine2_len                                  ../lib/libat.a(at_port.o)
                                                  ../lib/libat.a(at_ipCmd.o)
at_data_str_copy                                  ../lib/libat.a(at_wifiCmd.o)
                                                  ../lib/libat.a(at_ipCmd.o)
                                                  user/.output/eagle/debug/lib/libuser.a(Serial_Drv.o)
at_delayCheck                                     ../lib/libat.a(at_ipCmd.o)
                                                  ../lib/libat.a(at_port.o)
at_enter_special_state                            ../lib/libat.a(at_ipCmd.o)
at_escape_character                               ../lib/libat.a(at_port.o)
                                                  ../lib/libat.a(at_wifiCmd.o)
at_exeCmdCifsr                                    ../lib/libat.a(at_ipCmd.o)
                                                  ../lib/libat.a(at_cmd.o)
at_exeCmdCipclose                                 ../lib/libat.a(at_ipCmd.o)
                                                  ../lib/libat.a(at_cmd.o)
at_exeCmdCipsend                                  ../lib/libat.a(at_ipCmd.o)
                                                  ../lib/libat.a(at_cmd.o)
at_exeCmdCipstatus                                ../lib/libat.a(at_ipCmd.o)
                                                  ../lib/libat.a(at_cmd.o)
at_exeCmdCwlap                                    ../lib/libat.a(at_wifiCmd.o)
                                                  ../lib/libat.a(at_cmd.o)
at_exeCmdCwlif                                    ../lib/libat.a(at_wifiCmd.o)
                                                  ../lib/libat.a(at_cmd.o)
at_exeCmdCwqap                                    ../lib/libat.a(at_wifiCmd.o)
                                                  ../lib/libat.a(at_cmd.o)
at_exeCmdGmr                                      ../lib/libat.a(at_baseCmd.o)
                                                  ../lib/libat.a(at_cmd.o)
at_exeCmdNull                                     ../lib/libat.a(at_baseCmd.o)
                                                  ../lib/libat.a(at_cmd.o)
at_exeCmdRst                                      ../lib/libat.a(at_baseCmd.o)
                                                  ../lib/libat.a(at_cmd.o)
at_exeCmdSmartStart                               ../lib/libat.a(at_wifiCmd.o)
                                                  ../lib/libat.a(at_cmd.o)
at_exeCmdSmartStop                                ../lib/libat.a(at_wifiCmd.o)
                                                  ../lib/libat.a(at_cmd.o)
at_exeCmdTest                                     user/.output/eagle/debug/lib/libuser.a(Serial_Drv.o)
at_exeCmdWps                                      ../lib/libat.a(at_wifiCmd.o)
                                                  ../lib/libat.a(at_cmd.o)
at_execCmdCipBufReset                             ../lib/libat.a(at_ipCmd.o)
                                                  ../lib/libat.a(at_cmd.o)
at_execCmdCipBufStatus                            ../lib/libat.a(at_ipCmd.o)
                                                  ../lib/libat.a(at_cmd.o)
at_execCmdRFVdd                                   ../lib/libat.a(at_baseCmd.o)
                                                  ../lib/libat.a(at_cmd.o)
at_execCmdRestore                                 ../lib/libat.a(at_baseCmd.o)
                                                  ../lib/libat.a(at_cmd.o)
at_execCmdStopDiscover                            ../lib/libat.a(at_wifiCmd.o)
                                                  ../lib/libat.a(at_cmd.o)
at_fake_uart_enable                               ../lib/libat.a(uart.o)
at_fake_uart_response_func_dummy                  ../lib/libat.a(uart.o)
at_fake_uart_rx                                   ../lib/libat.a(uart.o)
at_fun                                            ../lib/libat.a(at_cmd.o)
                                                  ../lib/libat.a(at_wifiCmd.o)
                                                  ../lib/libat.a(at_ipCmd.o)
                                                  ../lib/libat.a(at_baseCmd.o)
at_get_next_int_dec                               ../lib/libat.a(at_ipCmd.o)
                                                  ../lib/libat.a(at_wifiCmd.o)
                                                  ../lib/libat.a(at_baseCmd.o)
                                                  user/.output/eagle/debug/lib/libuser.a(Serial_Drv.o)
at_get_version                                    ../lib/libat.a(at_ipCmd.o)
at_init                                           ../lib/libat.a(at_port.o)
                                                  user/.output/eagle/debug/lib/libuser.a(Serial_Drv.o)
at_ipDataSendNow                                  ../lib/libat.a(at_ipCmd.o)
                                                  ../lib/libat.a(at_port.o)
at_ipDataSending                                  ../lib/libat.a(at_ipCmd.o)
                                                  ../lib/libat.a(at_port.o)
at_ipDataTransparent                              ../lib/libat.a(at_ipCmd.o)
                                                  ../lib/libat.a(at_port.o)
at_japChack                                       ../lib/libat.a(at_wifiCmd.o)
at_japDelayChack                                  ../lib/libat.a(at_wifiCmd.o)
at_join_ap_wait_time                              ../lib/libat.a(at_wifiCmd.o)
at_leave_special_state                            ../lib/libat.a(at_ipCmd.o)
at_ping_dns_found_cb                              ../lib/libat.a(at_wifiCmd.o)
at_ping_start                                     ../lib/libat.a(at_wifiCmd.o)
at_port_print                                     ../lib/libat.a(uart.o)
                                                  ../lib/libat.a(at_wifiCmd.o)
                                                  ../lib/libat.a(at_port.o)
                                                  ../lib/libat.a(at_ipCmd.o)
                                                  ../lib/libat.a(at_cmd.o)
                                                  ../lib/libat.a(at_baseCmd.o)
                                                  user/.output/eagle/debug/lib/libuser.a(Serial_Drv.o)
                                                  user/.output/eagle/debug/lib/libuser.a(AtCmd_Drv.o)
at_port_send_str                                  ../lib/libat.a(uart.o)
at_procTaskQueue                                  ../lib/libat.a(at_port.o)
at_queryCmdCipAlive                               ../lib/libat.a(at_ipCmd.o)
                                                  ../lib/libat.a(at_cmd.o)
at_queryCmdCipIpdInfo                             ../lib/libat.a(at_ipCmd.o)
                                                  ../lib/libat.a(at_cmd.o)
at_queryCmdCipSslSize                             ../lib/libat.a(at_ipCmd.o)
                                                  ../lib/libat.a(at_cmd.o)
at_queryCmdCipap                                  ../lib/libat.a(at_wifiCmd.o)
                                                  ../lib/libat.a(at_cmd.o)
at_queryCmdCipapDef                               ../lib/libat.a(at_wifiCmd.o)
                                                  ../lib/libat.a(at_cmd.o)
at_queryCmdCipapmac                               ../lib/libat.a(at_wifiCmd.o)
                                                  ../lib/libat.a(at_cmd.o)
at_queryCmdCipapmacDef                            ../lib/libat.a(at_wifiCmd.o)
                                                  ../lib/libat.a(at_cmd.o)
at_queryCmdCipmode                                ../lib/libat.a(at_ipCmd.o)
                                                  ../lib/libat.a(at_cmd.o)
at_queryCmdCipmux                                 ../lib/libat.a(at_ipCmd.o)
                                                  ../lib/libat.a(at_cmd.o)
at_queryCmdCipsta                                 ../lib/libat.a(at_wifiCmd.o)
                                                  ../lib/libat.a(at_cmd.o)
at_queryCmdCipstaDef                              ../lib/libat.a(at_wifiCmd.o)
                                                  ../lib/libat.a(at_cmd.o)
at_queryCmdCipstamac                              ../lib/libat.a(at_wifiCmd.o)
                                                  ../lib/libat.a(at_cmd.o)
at_queryCmdCipstamacDef                           ../lib/libat.a(at_wifiCmd.o)
                                                  ../lib/libat.a(at_cmd.o)
at_queryCmdCipsto                                 ../lib/libat.a(at_ipCmd.o)
                                                  ../lib/libat.a(at_cmd.o)
at_queryCmdCwAutoConn                             ../lib/libat.a(at_wifiCmd.o)
                                                  ../lib/libat.a(at_cmd.o)
at_queryCmdCwdhcp                                 ../lib/libat.a(at_wifiCmd.o)
                                                  ../lib/libat.a(at_cmd.o)
at_queryCmdCwdhcpDef                              ../lib/libat.a(at_wifiCmd.o)
                                                  ../lib/libat.a(at_cmd.o)
at_queryCmdCwdhcps                                ../lib/libat.a(at_wifiCmd.o)
                                                  ../lib/libat.a(at_cmd.o)
at_queryCmdCwdhcpsDef                             ../lib/libat.a(at_wifiCmd.o)
                                                  ../lib/libat.a(at_cmd.o)
at_queryCmdCwjap                                  ../lib/libat.a(at_wifiCmd.o)
                                                  ../lib/libat.a(at_cmd.o)
at_queryCmdCwjapDef                               ../lib/libat.a(at_wifiCmd.o)
                                                  ../lib/libat.a(at_cmd.o)
at_queryCmdCwmode                                 ../lib/libat.a(at_wifiCmd.o)
                                                  ../lib/libat.a(at_cmd.o)
at_queryCmdCwmodeDef                              ../lib/libat.a(at_wifiCmd.o)
                                                  ../lib/libat.a(at_cmd.o)
at_queryCmdCwsap                                  ../lib/libat.a(at_wifiCmd.o)
                                                  ../lib/libat.a(at_cmd.o)
at_queryCmdCwsapDef                               ../lib/libat.a(at_wifiCmd.o)
                                                  ../lib/libat.a(at_cmd.o)
at_queryCmdRFVdd                                  ../lib/libat.a(at_baseCmd.o)
                                                  ../lib/libat.a(at_cmd.o)
at_queryCmdSleep                                  ../lib/libat.a(at_baseCmd.o)
                                                  ../lib/libat.a(at_cmd.o)
at_queryCmdTest                                   user/.output/eagle/debug/lib/libuser.a(Serial_Drv.o)
at_read_param_from_flash                          ../lib/libat.a(at_nv_data.o)
                                                  ../lib/libat.a(at_init_para.o)
                                                  ../lib/libat.a(at_wifiCmd.o)
                                                  ../lib/libat.a(at_ipCmd.o)
at_recvTaskQueue                                  ../lib/libat.a(at_port.o)
at_register_response_func                         ../lib/libat.a(uart.o)
at_register_uart_rx_intr                          ../lib/libat.a(at_port.o)
                                                  user/.output/eagle/debug/lib/libuser.a(Serial_Drv.o)
at_register_uart_tx_complete_func                 ../lib/libat.a(at_port.o)
at_response                                       ../lib/libat.a(uart.o)
                                                  ../lib/libat.a(at_ipCmd.o)
at_response_error                                 ../lib/libat.a(at_cmd.o)
                                                  ../lib/libat.a(at_wifiCmd.o)
                                                  ../lib/libat.a(at_ipCmd.o)
                                                  ../lib/libat.a(at_baseCmd.o)
                                                  user/.output/eagle/debug/lib/libuser.a(Serial_Drv.o)
at_response_ok                                    ../lib/libat.a(at_cmd.o)
                                                  ../lib/libat.a(at_wifiCmd.o)
                                                  ../lib/libat.a(at_port.o)
                                                  ../lib/libat.a(at_ipCmd.o)
                                                  ../lib/libat.a(at_baseCmd.o)
                                                  user/.output/eagle/debug/lib/libuser.a(Serial_Drv.o)
at_restore_param_in_flash                         ../lib/libat.a(at_nv_data.o)
                                                  ../lib/libat.a(at_baseCmd.o)
at_sendLen                                        ../lib/libat.a(at_ipCmd.o)
                                                  ../lib/libat.a(at_port.o)
at_set_custom_info                                ../lib/libat.a(at_baseCmd.o)
                                                  user/.output/eagle/debug/lib/libuser.a(Serial_Drv.o)
at_set_escape_character                           ../lib/libat.a(at_port.o)
at_set_rx_buf_state                               ../lib/libat.a(at_ipCmd.o)
                                                  ../lib/libat.a(at_port.o)
at_setupCipdomain                                 ../lib/libat.a(at_ipCmd.o)
                                                  ../lib/libat.a(at_cmd.o)
at_setupCmdCifsr                                  ../lib/libat.a(at_ipCmd.o)
                                                  ../lib/libat.a(at_cmd.o)
at_setupCmdCipBufReset                            ../lib/libat.a(at_ipCmd.o)
                                                  ../lib/libat.a(at_cmd.o)
at_setupCmdCipBufStatus                           ../lib/libat.a(at_ipCmd.o)
                                                  ../lib/libat.a(at_cmd.o)
at_setupCmdCipCheckQueue                          ../lib/libat.a(at_ipCmd.o)
                                                  ../lib/libat.a(at_cmd.o)
at_setupCmdCipIpdInfo                             ../lib/libat.a(at_ipCmd.o)
                                                  ../lib/libat.a(at_cmd.o)
at_setupCmdCipSendBuf                             ../lib/libat.a(at_ipCmd.o)
                                                  ../lib/libat.a(at_cmd.o)
at_setupCmdCipSslsize                             ../lib/libat.a(at_ipCmd.o)
                                                  ../lib/libat.a(at_cmd.o)
at_setupCmdCipap                                  ../lib/libat.a(at_wifiCmd.o)
                                                  ../lib/libat.a(at_cmd.o)
at_setupCmdCipapDef                               ../lib/libat.a(at_wifiCmd.o)
                                                  ../lib/libat.a(at_cmd.o)
at_setupCmdCipapmac                               ../lib/libat.a(at_wifiCmd.o)
                                                  ../lib/libat.a(at_cmd.o)
at_setupCmdCipapmacDef                            ../lib/libat.a(at_wifiCmd.o)
                                                  ../lib/libat.a(at_cmd.o)
at_setupCmdCipclose                               ../lib/libat.a(at_ipCmd.o)
                                                  ../lib/libat.a(at_cmd.o)
at_setupCmdCipmode                                ../lib/libat.a(at_ipCmd.o)
                                                  ../lib/libat.a(at_cmd.o)
at_setupCmdCipmux                                 ../lib/libat.a(at_ipCmd.o)
                                                  ../lib/libat.a(at_cmd.o)
at_setupCmdCipsend                                ../lib/libat.a(at_ipCmd.o)
                                                  ../lib/libat.a(at_cmd.o)
at_setupCmdCipsendEx                              ../lib/libat.a(at_ipCmd.o)
                                                  ../lib/libat.a(at_cmd.o)
at_setupCmdCipserver                              ../lib/libat.a(at_ipCmd.o)
                                                  ../lib/libat.a(at_cmd.o)
at_setupCmdCipsta                                 ../lib/libat.a(at_wifiCmd.o)
                                                  ../lib/libat.a(at_cmd.o)
at_setupCmdCipstaDef                              ../lib/libat.a(at_wifiCmd.o)
                                                  ../lib/libat.a(at_cmd.o)
at_setupCmdCipstamac                              ../lib/libat.a(at_wifiCmd.o)
                                                  ../lib/libat.a(at_cmd.o)
at_setupCmdCipstamacDef                           ../lib/libat.a(at_wifiCmd.o)
                                                  ../lib/libat.a(at_cmd.o)
at_setupCmdCipstart                               ../lib/libat.a(at_ipCmd.o)
                                                  ../lib/libat.a(at_cmd.o)
at_setupCmdCipsto                                 ../lib/libat.a(at_ipCmd.o)
                                                  ../lib/libat.a(at_cmd.o)
at_setupCmdCwAutoConn                             ../lib/libat.a(at_wifiCmd.o)
                                                  ../lib/libat.a(at_cmd.o)
at_setupCmdCwdhcp                                 ../lib/libat.a(at_wifiCmd.o)
                                                  ../lib/libat.a(at_cmd.o)
at_setupCmdCwdhcpDef                              ../lib/libat.a(at_wifiCmd.o)
                                                  ../lib/libat.a(at_cmd.o)
at_setupCmdCwdhcps                                ../lib/libat.a(at_wifiCmd.o)
                                                  ../lib/libat.a(at_cmd.o)
at_setupCmdCwdhcpsDef                             ../lib/libat.a(at_wifiCmd.o)
                                                  ../lib/libat.a(at_cmd.o)
at_setupCmdCwjap                                  ../lib/libat.a(at_wifiCmd.o)
                                                  ../lib/libat.a(at_cmd.o)
at_setupCmdCwjapDef                               ../lib/libat.a(at_wifiCmd.o)
                                                  ../lib/libat.a(at_cmd.o)
at_setupCmdCwlap                                  ../lib/libat.a(at_wifiCmd.o)
                                                  ../lib/libat.a(at_cmd.o)
at_setupCmdCwlapOpt                               ../lib/libat.a(at_wifiCmd.o)
                                                  ../lib/libat.a(at_cmd.o)
at_setupCmdCwmode                                 ../lib/libat.a(at_wifiCmd.o)
                                                  ../lib/libat.a(at_cmd.o)
at_setupCmdCwmodeDef                              ../lib/libat.a(at_wifiCmd.o)
                                                  ../lib/libat.a(at_cmd.o)
at_setupCmdCwsap                                  ../lib/libat.a(at_wifiCmd.o)
                                                  ../lib/libat.a(at_cmd.o)
at_setupCmdCwsapDef                               ../lib/libat.a(at_wifiCmd.o)
                                                  ../lib/libat.a(at_cmd.o)
at_setupCmdE                                      ../lib/libat.a(at_baseCmd.o)
                                                  ../lib/libat.a(at_cmd.o)
at_setupCmdGslp                                   ../lib/libat.a(at_baseCmd.o)
                                                  ../lib/libat.a(at_cmd.o)
at_setupCmdIpr                                    ../lib/libat.a(at_baseCmd.o)
                                                  ../lib/libat.a(at_cmd.o)
at_setupCmdMDNS                                   ../lib/libat.a(at_ipCmd.o)
                                                  ../lib/libat.a(at_cmd.o)
at_setupCmdPing                                   ../lib/libat.a(at_wifiCmd.o)
                                                  ../lib/libat.a(at_cmd.o)
at_setupCmdRFPower                                ../lib/libat.a(at_baseCmd.o)
                                                  ../lib/libat.a(at_cmd.o)
at_setupCmdRFVdd                                  ../lib/libat.a(at_baseCmd.o)
                                                  ../lib/libat.a(at_cmd.o)
at_setupCmdSaveTransLink                          ../lib/libat.a(at_ipCmd.o)
                                                  ../lib/libat.a(at_cmd.o)
at_setupCmdSleep                                  ../lib/libat.a(at_baseCmd.o)
                                                  ../lib/libat.a(at_cmd.o)
at_setupCmdSmartStart                             ../lib/libat.a(at_wifiCmd.o)
                                                  ../lib/libat.a(at_cmd.o)
at_setupCmdStartDiscover                          ../lib/libat.a(at_wifiCmd.o)
                                                  ../lib/libat.a(at_cmd.o)
at_setupCmdTest                                   user/.output/eagle/debug/lib/libuser.a(Serial_Drv.o)
at_setupCmdUart                                   ../lib/libat.a(at_ipCmd.o)
                                                  ../lib/libat.a(at_cmd.o)
at_setupCmdUartDef                                ../lib/libat.a(at_ipCmd.o)
                                                  ../lib/libat.a(at_cmd.o)
at_setupCmdWps                                    ../lib/libat.a(at_wifiCmd.o)
                                                  ../lib/libat.a(at_cmd.o)
at_ssl_cnt                                        ../lib/libat.a(at_ipCmd.o)
at_ssl_flag                                       ../lib/libat.a(at_ipCmd.o)
at_state                                          ../lib/libat.a(at_port.o)
                                                  ../lib/libat.a(at_wifiCmd.o)
                                                  ../lib/libat.a(at_ipCmd.o)
at_task_free_buffer                               ../lib/libat.a(at_port.o)
                                                  ../lib/libat.a(uart.o)
at_task_malloc_buffer                             ../lib/libat.a(at_port.o)
                                                  ../lib/libat.a(uart.o)
at_tcpclient_recv                                 ../lib/libat.a(at_ipCmd.o)
at_testCmdCifsr                                   ../lib/libat.a(at_ipCmd.o)
                                                  ../lib/libat.a(at_cmd.o)
at_testCmdCipclose                                ../lib/libat.a(at_ipCmd.o)
                                                  ../lib/libat.a(at_cmd.o)
at_testCmdCipsend                                 ../lib/libat.a(at_ipCmd.o)
                                                  ../lib/libat.a(at_cmd.o)
at_testCmdCipstart                                ../lib/libat.a(at_ipCmd.o)
                                                  ../lib/libat.a(at_cmd.o)
at_testCmdCipstatus                               ../lib/libat.a(at_ipCmd.o)
                                                  ../lib/libat.a(at_cmd.o)
at_testCmdCwmode                                  ../lib/libat.a(at_wifiCmd.o)
                                                  ../lib/libat.a(at_cmd.o)
at_testCmdCwqap                                   ../lib/libat.a(at_wifiCmd.o)
                                                  ../lib/libat.a(at_cmd.o)
at_testCmdTest                                    user/.output/eagle/debug/lib/libuser.a(Serial_Drv.o)
at_tranLen                                        ../lib/libat.a(at_ipCmd.o)
                                                  ../lib/libat.a(at_port.o)
at_trans_start_check_ip_timer                     ../lib/libat.a(at_ipCmd.o)
at_transmit_check_ip                              ../lib/libat.a(at_ipCmd.o)
at_transmit_check_ip_timer                        ../lib/libat.a(at_ipCmd.o)
at_transmit_timer_on                              ../lib/libat.a(at_ipCmd.o)
at_transparent_exit                               ../lib/libat.a(at_ipCmd.o)
                                                  ../lib/libat.a(at_port.o)
at_uart_tx_data                                   ../lib/libat.a(uart.o)
at_udpclient_recv                                 ../lib/libat.a(at_ipCmd.o)
at_wifiMode                                       ../lib/libat.a(at_wifiCmd.o)
                                                  ../lib/libat.a(at_port.o)
                                                  ../lib/libat.a(at_ipCmd.o)
at_write_param_into_flash                         ../lib/libat.a(at_nv_data.o)
                                                  ../lib/libat.a(at_init_para.o)
                                                  ../lib/libat.a(at_wifiCmd.o)
                                                  ../lib/libat.a(at_ipCmd.o)
                                                  ../lib/libat.a(at_baseCmd.o)
atoi                                              /opt/xtensa-lx106-elf/bin/../lib/gcc/xtensa-lx106-elf/4.8.2/libc.a(atoi.o)
                                                  ../lib/libwilddog.a(wilddog_common.o)
                                                  ../lib/libwps.a(wps_common.o)
auth_type                                         ../lib/libnet80211.a(ieee80211_scan.o)
                                                  ../lib/libnet80211.a(wl_cnx.o)
backup_ni_connect_status                          ../lib/libnet80211.a(wl_cnx.o)
base64_decode                                     ../lib/libssl.a(ssl_crypto_misc.o)
                                                  ../lib/libssl.a(ssl_loader.o)
base64_encode                                     ../lib/libwps.a(wps_registrar.o)
basic_read                                        ../lib/libssl.a(ssl_tls1.o)
bb_init                                           ../lib/libphy.a(phy.o)
bbpll_cal                                         ../lib/libphy.a(phy_chip_v6.o)
bbpll_cal_flag                                    ../lib/libphy.a(phy_chip_v6.o)
                                                  ../lib/libphy.a(phy_sleep.o)
bi_add                                            ../lib/libssl.a(ssl_bigint.o)
bi_barrett                                        ../lib/libssl.a(ssl_bigint.o)
bi_clear_cache                                    ../lib/libssl.a(ssl_bigint.o)
                                                  ../lib/libssl.a(ssl_rsa.o)
                                                  ../lib/libssl.a(ssl_x509.o)
bi_clone                                          ../lib/libssl.a(ssl_bigint.o)
                                                  ../lib/libssl.a(ssl_x509.o)
bi_compare                                        ../lib/libssl.a(ssl_bigint.o)
                                                  ../lib/libssl.a(ssl_x509.o)
bi_copy                                           ../lib/libssl.a(ssl_bigint.o)
bi_crt                                            ../lib/libssl.a(ssl_bigint.o)
                                                  ../lib/libssl.a(ssl_rsa.o)
bi_depermanent                                    ../lib/libssl.a(ssl_bigint.o)
                                                  ../lib/libssl.a(ssl_rsa.o)
bi_divide                                         ../lib/libssl.a(ssl_bigint.o)
bi_export                                         ../lib/libssl.a(ssl_bigint.o)
                                                  ../lib/libssl.a(ssl_rsa.o)
                                                  ../lib/libssl.a(ssl_x509.o)
bi_free                                           ../lib/libssl.a(ssl_bigint.o)
                                                  ../lib/libssl.a(ssl_rsa.o)
                                                  ../lib/libssl.a(ssl_x509.o)
bi_free_mod                                       ../lib/libssl.a(ssl_bigint.o)
                                                  ../lib/libssl.a(ssl_rsa.o)
bi_import                                         ../lib/libssl.a(ssl_bigint.o)
                                                  ../lib/libssl.a(ssl_rsa.o)
                                                  ../lib/libssl.a(ssl_x509.o)
bi_initialize                                     ../lib/libssl.a(ssl_bigint.o)
                                                  ../lib/libssl.a(ssl_rsa.o)
bi_mod_power                                      ../lib/libssl.a(ssl_bigint.o)
                                                  ../lib/libssl.a(ssl_rsa.o)
bi_mod_power2                                     ../lib/libssl.a(ssl_bigint.o)
                                                  ../lib/libssl.a(ssl_x509.o)
bi_multiply                                       ../lib/libssl.a(ssl_bigint.o)
bi_permanent                                      ../lib/libssl.a(ssl_bigint.o)
                                                  ../lib/libssl.a(ssl_rsa.o)
bi_print                                          ../lib/libssl.a(ssl_bigint.o)
                                                  ../lib/libssl.a(ssl_rsa.o)
bi_set_mod                                        ../lib/libssl.a(ssl_bigint.o)
                                                  ../lib/libssl.a(ssl_rsa.o)
bi_square                                         ../lib/libssl.a(ssl_bigint.o)
bi_str_import                                     ../lib/libssl.a(ssl_bigint.o)
bi_subtract                                       ../lib/libssl.a(ssl_bigint.o)
bi_terminate                                      ../lib/libssl.a(ssl_bigint.o)
                                                  ../lib/libssl.a(ssl_rsa.o)
bignum_add                                        ../lib/libcrypto.a(bignum.o)
bignum_cmp                                        ../lib/libcrypto.a(bignum.o)
bignum_cmp_d                                      ../lib/libcrypto.a(bignum.o)
bignum_deinit                                     ../lib/libcrypto.a(bignum.o)
                                                  ../lib/libcrypto.a(crypto_internal-modexp.o)
bignum_exptmod                                    ../lib/libcrypto.a(bignum.o)
                                                  ../lib/libcrypto.a(crypto_internal-modexp.o)
bignum_get_unsigned_bin                           ../lib/libcrypto.a(bignum.o)
                                                  ../lib/libcrypto.a(crypto_internal-modexp.o)
bignum_get_unsigned_bin_len                       ../lib/libcrypto.a(bignum.o)
bignum_init                                       ../lib/libcrypto.a(bignum.o)
                                                  ../lib/libcrypto.a(crypto_internal-modexp.o)
bignum_mul                                        ../lib/libcrypto.a(bignum.o)
bignum_mulmod                                     ../lib/libcrypto.a(bignum.o)
bignum_set_unsigned_bin                           ../lib/libcrypto.a(bignum.o)
                                                  ../lib/libcrypto.a(crypto_internal-modexp.o)
bignum_sub                                        ../lib/libcrypto.a(bignum.o)
bit_popcount                                      ../lib/libmain.a(eagle_lib.o)
                                                  ../lib/libpp.a(trc.o)
                                                  ../lib/libpp.a(if_hwctrl.o)
buffed_eb_arr                                     ../lib/libpp.a(pp.o)
cal_rf_ana_gain                                   ../lib/libphy.a(phy_chip_v6_cal.o)
                                                  ../lib/libphy.a(phy_chip_v6.o)
call_user_start                                   ../lib/libmain.a(vector.o)
call_user_start_local                             ../lib/libmain.a(app_main.o)
                                                  ../lib/libmain.a(vector.o)
cannel_scan_connect_state                         ../lib/libnet80211.a(ieee80211_scan.o)
ccmp                                              ../lib/libnet80211.a(ieee80211_crypto_ccmp.o)
                                                  ../lib/libwpa.a(wpa_main.o)
                                                  ../lib/libwpa.a(wpa_auth.o)
                                                  ../lib/libnet80211.a(ieee80211_action.o)
                                                  ../lib/libnet80211.a(ieee80211_input.o)
change_bbpll160                                   ../lib/libphy.a(phy_chip_v6.o)
                                                  ../lib/libphy.a(phy_sleep.o)
change_bbpll160_sleep                             ../lib/libphy.a(phy_chip_v6.o)
channel_timer                                     ../lib/libsmartconfig.a(sc_sniffer.o)
                                                  ../lib/libsmartconfig.a(sc_esptouch.o)
                                                  ../lib/libsmartconfig.a(sc_airkiss.o)
check_data_flag                                   ../lib/libphy.a(phy_chip_v6_ana.o)
check_data_func                                   ../lib/libphy.a(phy_chip_v6.o)
check_memleak_debug_enable                        ../lib/libmain.a(mem_manager.o)
check_result                                      ../lib/libphy.a(phy_chip_v6.o)
                                                  ../lib/libphy.a(phy_chip_v6_cal.o)
check_timeouts_timer                              ../lib/libmain.a(app_main.o)
                                                  ../lib/libpp.a(pm_for_bcn_only_mode.o)
                                                  ../lib/libpp.a(pm.o)
check_tx_pwr_cal                                  ../lib/libphy.a(phy_chip_v6.o)
chg_lslp_mem_opt_8266                             ../lib/libphy.a(phy_sleep.o)
chip6_phy_init_ctrl                               ../lib/libphy.a(phy_chip_v6.o)
                                                  ../lib/libpp.a(pp.o)
                                                  ../lib/libphy.a(phy_sleep.o)
                                                  ../lib/libphy.a(phy_chip_v6_cal.o)
                                                  ../lib/libphy.a(phy_chip_v6_ana.o)
chip6_sleep_params                                ../lib/libphy.a(phy_chip_v6.o)
                                                  ../lib/libphy.a(phy_sleep.o)
                                                  ../lib/libphy.a(phy_chip_v6_cal.o)
                                                  ../lib/libphy.a(phy_chip_v6_ana.o)
chip_60_set_channel                               ../lib/libphy.a(phy_chip_v6_ana.o)
                                                  ../lib/libphy.a(phy_chip_v6.o)
chip_v6_get_sense                                 ../lib/libphy.a(phy_chip_v6_unused.o)
chip_v6_initialize_bb                             ../lib/libphy.a(phy_chip_v6.o)
chip_v6_rf_init                                   ../lib/libphy.a(phy_chip_v6_ana.o)
                                                  ../lib/libphy.a(phy_chip_v6.o)
chip_v6_rxmax_ext                                 ../lib/libphy.a(phy_chip_v6.o)
                                                  ../lib/libnet80211.a(ieee80211_sta.o)
chip_v6_rxmax_ext_ana                             ../lib/libphy.a(phy_chip_v6_ana.o)
                                                  ../lib/libphy.a(phy_chip_v6.o)
chip_v6_rxmax_ext_dig                             ../lib/libphy.a(phy_chip_v6.o)
chip_v6_set_chan                                  ../lib/libphy.a(phy_chip_v6_ana.o)
                                                  ../lib/libphy.a(phy_chip_v6.o)
chip_v6_set_chan_misc                             ../lib/libphy.a(phy_chip_v6.o)
                                                  ../lib/libphy.a(phy_chip_v6_ana.o)
chip_v6_set_chan_offset                           ../lib/libphy.a(phy_chip_v6_ana.o)
                                                  ../lib/libnet80211.a(ieee80211_scan.o)
                                                  ../lib/libnet80211.a(ieee80211_hostap.o)
                                                  ../lib/libpp.a(pp.o)
                                                  ../lib/libmain.a(app_main.o)
chip_v6_set_chan_rx_cmp                           ../lib/libphy.a(phy_chip_v6.o)
chip_v6_set_chan_wakeup                           ../lib/libphy.a(phy_chip_v6_ana.o)
chip_v6_set_chanfreq                              ../lib/libphy.a(phy_chip_v6.o)
chip_v6_set_sense                                 ../lib/libphy.a(phy_chip_v6_unused.o)
                                                  ../lib/libphy.a(phy_chip_v6.o)
chip_v6_unset_chanfreq                            ../lib/libphy.a(phy_chip_v6_unused.o)
                                                  ../lib/libphy.a(phy_chip_v6.o)
chip_version                                      ../lib/libphy.a(phy_sleep.o)
chm_acquire_lock                                  ../lib/libnet80211.a(wl_chm.o)
                                                  ../lib/libnet80211.a(wl_cnx.o)
                                                  ../lib/libnet80211.a(ieee80211_scan.o)
chm_cancel_op                                     ../lib/libnet80211.a(wl_chm.o)
                                                  ../lib/libnet80211.a(ieee80211_scan.o)
chm_check_same_channel                            ../lib/libnet80211.a(wl_chm.o)
                                                  ../lib/libnet80211.a(ieee80211_power.o)
                                                  ../lib/libnet80211.a(ieee80211_output.o)
                                                  ../lib/libnet80211.a(ieee80211_hostap.o)
chm_end_op                                        ../lib/libnet80211.a(wl_chm.o)
chm_freq2index                                    ../lib/libnet80211.a(wl_chm.o)
chm_get_current_channel                           ../lib/libnet80211.a(wl_chm.o)
                                                  ../lib/libnet80211.a(wl_cnx.o)
                                                  ../lib/libnet80211.a(ieee80211_scan.o)
                                                  ../lib/libnet80211.a(ieee80211_hostap.o)
                                                  ../lib/libpp.a(wdev.o)
                                                  ../lib/libpp.a(pp.o)
                                                  ../lib/libpp.a(pm.o)
                                                  ../lib/libmain.a(user_interface.o)
chm_init                                          ../lib/libnet80211.a(wl_chm.o)
                                                  ../lib/libnet80211.a(ieee80211.o)
chm_release_lock                                  ../lib/libnet80211.a(wl_chm.o)
                                                  ../lib/libnet80211.a(wl_cnx.o)
                                                  ../lib/libnet80211.a(ieee80211_scan.o)
chm_return_home_channel                           ../lib/libnet80211.a(wl_chm.o)
                                                  ../lib/libnet80211.a(wl_cnx.o)
                                                  ../lib/libnet80211.a(ieee80211_scan.o)
chm_set_current_channel                           ../lib/libnet80211.a(wl_chm.o)
                                                  ../lib/libnet80211.a(ieee80211_hostap.o)
                                                  ../lib/libmain.a(user_interface.o)
chm_start_op                                      ../lib/libnet80211.a(wl_chm.o)
                                                  ../lib/libnet80211.a(wl_cnx.o)
                                                  ../lib/libnet80211.a(ieee80211_scan.o)
client_timer                                      user/.output/eagle/debug/lib/libuser.a(WildDog_Drv.o)
clockgate_watchdog                                ../lib/libphy.a(phy_sleep.o)
                                                  ../lib/libpp.a(pm_for_bcn_only_mode.o)
                                                  ../lib/libpp.a(pm.o)
                                                  ../lib/libmain.a(user_interface.o)
clr_tcp_block                                     ../lib/libat.a(uart.o)
                                                  ../lib/libat.a(at_port.o)
cnx_add_rc                                        ../lib/libnet80211.a(wl_cnx.o)
                                                  ../lib/libnet80211.a(ieee80211_scan.o)
cnx_assoc_timeout                                 ../lib/libnet80211.a(wl_cnx.o)
                                                  ../lib/libnet80211.a(ieee80211_sta.o)
cnx_attach                                        ../lib/libnet80211.a(wl_cnx.o)
                                                  ../lib/libmain.a(app_main.o)
cnx_auth_timeout                                  ../lib/libnet80211.a(wl_cnx.o)
                                                  ../lib/libnet80211.a(ieee80211_proto.o)
cnx_bss_alloc                                     ../lib/libnet80211.a(wl_cnx.o)
                                                  ../lib/libnet80211.a(ieee80211_scan.o)
cnx_connect_timeout                               ../lib/libnet80211.a(wl_cnx.o)
                                                  ../lib/libnet80211.a(ieee80211_sta.o)
                                                  ../lib/libnet80211.a(ieee80211_scan.o)
cnx_handshake_timeout                             ../lib/libnet80211.a(wl_cnx.o)
cnx_node_alloc                                    ../lib/libnet80211.a(wl_cnx.o)
                                                  ../lib/libnet80211.a(ieee80211_hostap.o)
cnx_node_join                                     ../lib/libnet80211.a(wl_cnx.o)
                                                  ../lib/libnet80211.a(ieee80211_hostap.o)
cnx_node_leave                                    ../lib/libnet80211.a(wl_cnx.o)
                                                  ../lib/libnet80211.a(ieee80211_hostap.o)
                                                  ../lib/libmain.a(user_interface.o)
cnx_node_remove                                   ../lib/libnet80211.a(wl_cnx.o)
cnx_node_search                                   ../lib/libnet80211.a(wl_cnx.o)
                                                  ../lib/libwpa.a(wpa_auth.o)
                                                  ../lib/libnet80211.a(ieee80211_output.o)
                                                  ../lib/libnet80211.a(ieee80211_hostap.o)
cnx_rc_search                                     ../lib/libnet80211.a(wl_cnx.o)
                                                  ../lib/libnet80211.a(ieee80211_scan.o)
cnx_rc_update_age                                 ../lib/libnet80211.a(wl_cnx.o)
                                                  ../lib/libnet80211.a(ieee80211_scan.o)
cnx_rc_update_rssi                                ../lib/libnet80211.a(wl_cnx.o)
                                                  ../lib/libnet80211.a(ieee80211_scan.o)
cnx_rc_update_state_metric                        ../lib/libnet80211.a(wl_cnx.o)
                                                  ../lib/libnet80211.a(ieee80211_scan.o)
cnx_remove_all_rc                                 ../lib/libnet80211.a(wl_cnx.o)
                                                  ../lib/libnet80211.a(ieee80211_sta.o)
cnx_remove_rc                                     ../lib/libnet80211.a(wl_cnx.o)
                                                  ../lib/libnet80211.a(ieee80211_scan.o)
cnx_sta_associated                                ../lib/libnet80211.a(wl_cnx.o)
                                                  ../lib/libnet80211.a(ieee80211_sta.o)
cnx_sta_connect_cmd                               ../lib/libnet80211.a(wl_cnx.o)
                                                  ../lib/libmain.a(user_interface.o)
cnx_sta_connect_led_timer_cb                      ../lib/libnet80211.a(wl_cnx.o)
cnx_sta_leave                                     ../lib/libnet80211.a(wl_cnx.o)
                                                  ../lib/libnet80211.a(ieee80211_sta.o)
cnx_sta_scan_cmd                                  ../lib/libnet80211.a(wl_cnx.o)
                                                  ../lib/libwps.a(wps.o)
                                                  ../lib/libmain.a(user_interface.o)
cnx_start_handoff_cb                              ../lib/libnet80211.a(wl_cnx.o)
cnx_update_bss                                    ../lib/libnet80211.a(wl_cnx.o)
                                                  ../lib/libnet80211.a(ieee80211_scan.o)
cnx_update_bss_more                               ../lib/libnet80211.a(wl_cnx.o)
                                                  ../lib/libnet80211.a(ieee80211_scan.o)
coap_add_data                                     ../lib/libwilddog.a(pdu.o)
                                                  ../lib/libwilddog.a(wilddog_conn_coap.o)
coap_add_option                                   ../lib/libwilddog.a(pdu.o)
                                                  ../lib/libwilddog.a(wilddog_conn_coap.o)
coap_add_option_later                             ../lib/libwilddog.a(pdu.o)
coap_add_token                                    ../lib/libwilddog.a(pdu.o)
                                                  ../lib/libwilddog.a(wilddog_conn_coap.o)
coap_check_option                                 ../lib/libwilddog.a(option.o)
                                                  ../lib/libwilddog.a(wilddog_conn_coap.o)
coap_delete_pdu                                   ../lib/libwilddog.a(pdu.o)
                                                  ../lib/libwilddog.a(wilddog_conn_coap.o)
coap_get_data                                     ../lib/libwilddog.a(pdu.o)
                                                  ../lib/libwilddog.a(wilddog_conn_coap.o)
coap_new_pdu                                      ../lib/libwilddog.a(pdu.o)
                                                  ../lib/libwilddog.a(wilddog_conn_coap.o)
coap_opt_delta                                    ../lib/libwilddog.a(option.o)
coap_opt_encode                                   ../lib/libwilddog.a(option.o)
                                                  ../lib/libwilddog.a(pdu.o)
coap_opt_length                                   ../lib/libwilddog.a(option.o)
                                                  ../lib/libwilddog.a(pdu.o)
                                                  ../lib/libwilddog.a(wilddog_conn_coap.o)
coap_opt_parse                                    ../lib/libwilddog.a(option.o)
                                                  ../lib/libwilddog.a(pdu.o)
coap_opt_setheader                                ../lib/libwilddog.a(option.o)
coap_opt_size                                     ../lib/libwilddog.a(option.o)
coap_opt_value                                    ../lib/libwilddog.a(option.o)
                                                  ../lib/libwilddog.a(pdu.o)
                                                  ../lib/libwilddog.a(wilddog_conn_coap.o)
coap_option_iterator_init                         ../lib/libwilddog.a(option.o)
                                                  ../lib/libwilddog.a(pdu.o)
                                                  ../lib/libwilddog.a(wilddog_conn_coap.o)
coap_option_next                                  ../lib/libwilddog.a(option.o)
                                                  ../lib/libwilddog.a(pdu.o)
                                                  ../lib/libwilddog.a(wilddog_conn_coap.o)
coap_pdu_clear                                    ../lib/libwilddog.a(pdu.o)
coap_pdu_init                                     ../lib/libwilddog.a(pdu.o)
                                                  ../lib/libwilddog.a(wilddog_conn_coap.o)
coap_pdu_parse                                    ../lib/libwilddog.a(pdu.o)
                                                  ../lib/libwilddog.a(wilddog_conn_coap.o)
coap_show_pdu                                     ../lib/libwilddog.a(pdu.o)
connect_scan_flag                                 ../lib/libnet80211.a(ieee80211_scan.o)
correct_rf_ana_gain                               ../lib/libphy.a(phy_chip_v6_cal.o)
cpu_overclock                                     ../lib/libmain.a(user_interface.o)
create_tcp_block_counting                         ../lib/libat.a(uart.o)
                                                  ../lib/libat.a(at_ipCmd.o)
crypto_mod_exp                                    ../lib/libcrypto.a(crypto_internal-modexp.o)
                                                  ../lib/libcrypto.a(dh_groups.o)
current_header                                    ../lib/liblwip.a(ip.o)
current_iphdr_dest                                ../lib/liblwip.a(ip.o)
                                                  ../lib/liblwip.a(icmp.o)
                                                  ../lib/liblwip.a(udp.o)
                                                  ../lib/liblwip.a(tcp_in.o)
                                                  ../lib/liblwip.a(raw.o)
current_iphdr_src                                 ../lib/liblwip.a(ip.o)
                                                  ../lib/liblwip.a(icmp.o)
                                                  ../lib/liblwip.a(udp.o)
                                                  ../lib/liblwip.a(tcp_in.o)
                                                  ../lib/liblwip.a(raw.o)
current_netif                                     ../lib/liblwip.a(ip.o)
custom_at_cmd_num                                 ../lib/libat.a(at_port.o)
                                                  ../lib/libat.a(at_cmd.o)
custom_at_cmd_ptr                                 ../lib/libat.a(at_port.o)
                                                  ../lib/libat.a(at_cmd.o)
custom_info                                       ../lib/libat.a(at_baseCmd.o)
dbg_stop_hw_wdt                                   ../lib/libpp.a(pp.o)
dbg_stop_sw_wdt                                   ../lib/libpp.a(pp.o)
dbg_timer_flag                                    ../lib/libmain.a(ets_timer.o)
dcoindex2txbbgain                                 ../lib/libphy.a(phy_chip_v6_cal.o)
debug_timer                                       ../lib/libmain.a(ets_timer.o)
debug_timerfn                                     ../lib/libmain.a(ets_timer.o)
deep_sleep_flag                                   ../lib/libmain.a(user_interface.o)
deep_sleep_set_option                             ../lib/libphy.a(phy_chip_v6.o)
                                                  ../lib/libmain.a(user_interface.o)
def_certificate                                   ../lib/libssl.a(espconn_secure.o)
                                                  ../lib/libssl.a(ssl_loader.o)
def_certificate_len                               ../lib/libssl.a(espconn_secure.o)
                                                  ../lib/libssl.a(ssl_loader.o)
def_private_key                                   ../lib/libssl.a(espconn_secure.o)
                                                  ../lib/libssl.a(ssl_loader.o)
def_private_key_len                               ../lib/libssl.a(espconn_secure.o)
                                                  ../lib/libssl.a(ssl_loader.o)
default_hostname                                  ../lib/libmain.a(eagle_lwip_if.o)
                                                  ../lib/libmain.a(user_interface.o)
default_interface                                 ../lib/libmain.a(user_interface.o)
                                                  ../lib/liblwip.a(espconn_udp.o)
default_ssid                                      ../lib/libmain.a(user_interface.o)
dh5_derive_shared                                 ../lib/libcrypto.a(dh_group5.o)
                                                  ../lib/libwps.a(wps_common.o)
dh5_free                                          ../lib/libcrypto.a(dh_group5.o)
                                                  ../lib/libwps.a(wps_attr_build.o)
                                                  ../lib/libwps.a(wps_common.o)
                                                  ../lib/libwps.a(wps.o)
dh5_init                                          ../lib/libcrypto.a(dh_group5.o)
                                                  ../lib/libwps.a(wps_attr_build.o)
dh_derive_shared                                  ../lib/libcrypto.a(dh_groups.o)
                                                  ../lib/libcrypto.a(dh_group5.o)
dh_groups_get                                     ../lib/libcrypto.a(dh_groups.o)
                                                  ../lib/libcrypto.a(dh_group5.o)
dh_init                                           ../lib/libcrypto.a(dh_groups.o)
                                                  ../lib/libcrypto.a(dh_group5.o)
dhcp_arp_reply                                    ../lib/liblwip.a(dhcp.o)
                                                  ../lib/liblwip.a(etharp.o)
dhcp_bind_check                                   ../lib/libwpa.a(wpa_main.o)
dhcp_cleanup                                      ../lib/liblwip.a(dhcp.o)
                                                  ../lib/libnet80211.a(wl_cnx.o)
                                                  ../lib/libmain.a(user_interface.o)
dhcp_coarse_tmr                                   ../lib/liblwip.a(dhcp.o)
                                                  ../lib/liblwip.a(timers.o)
dhcp_fine_tmr                                     ../lib/liblwip.a(dhcp.o)
                                                  ../lib/liblwip.a(timers.o)
dhcp_inform                                       ../lib/liblwip.a(dhcp.o)
dhcp_network_changed                              ../lib/liblwip.a(dhcp.o)
                                                  ../lib/liblwip.a(netif.o)
dhcp_release                                      ../lib/liblwip.a(dhcp.o)
                                                  ../lib/libnet80211.a(wl_cnx.o)
dhcp_renew                                        ../lib/liblwip.a(dhcp.o)
dhcp_rx_options_given                             ../lib/liblwip.a(dhcp.o)
dhcp_rx_options_val                               ../lib/liblwip.a(dhcp.o)
dhcp_set_struct                                   ../lib/liblwip.a(dhcp.o)
dhcp_start                                        ../lib/liblwip.a(dhcp.o)
                                                  ../lib/libwpa.a(wpa_main.o)
                                                  ../lib/libmain.a(user_interface.o)
dhcp_stop                                         ../lib/liblwip.a(dhcp.o)
                                                  ../lib/libnet80211.a(wl_cnx.o)
                                                  ../lib/libmain.a(user_interface.o)
dhcpc_flag                                        ../lib/libmain.a(user_interface.o)
                                                  ../lib/libwpa.a(wpa_main.o)
dhcps_coarse_tmr                                  ../lib/liblwip.a(dhcpserver.o)
                                                  ../lib/liblwip.a(timers.o)
dhcps_flag                                        ../lib/libmain.a(user_interface.o)
                                                  ../lib/libmain.a(eagle_lwip_if.o)
dhcps_lease_time                                  ../lib/liblwip.a(dhcpserver.o)
dhcps_start                                       ../lib/liblwip.a(dhcpserver.o)
                                                  ../lib/libmain.a(eagle_lwip_if.o)
                                                  ../lib/libmain.a(user_interface.o)
dhcps_stop                                        ../lib/liblwip.a(dhcpserver.o)
                                                  ../lib/libmain.a(eagle_lwip_if.o)
                                                  ../lib/libmain.a(user_interface.o)
disposable_free                                   ../lib/libssl.a(ssl_tls1.o)
                                                  ../lib/libssl.a(ssl_tls1_svr.o)
                                                  ../lib/libssl.a(ssl_tls1_clnt.o)
disposable_new                                    ../lib/libssl.a(ssl_tls1.o)
                                                  ../lib/libssl.a(ssl_tls1_clnt.o)
divide                                            ../lib/libmain.a(eagle_lib.o)
dns_flag                                          user/.output/eagle/debug/lib/libuser.a(WildDog_Drv.o)
                                                  ../lib/libwilddog.a(wilddog_espressif.o)
dns_found                                         ../lib/libwilddog.a(wilddog_espressif.o)
dns_gethostbyname                                 ../lib/liblwip.a(dns.o)
                                                  ../lib/liblwip.a(espconn.o)
dns_getserver                                     ../lib/liblwip.a(dns.o)
dns_init                                          ../lib/liblwip.a(dns.o)
                                                  ../lib/liblwip.a(init.o)
dns_setserver                                     ../lib/liblwip.a(dns.o)
                                                  ../lib/liblwip.a(espconn.o)
                                                  ../lib/liblwip.a(dhcp.o)
dns_tmr                                           ../lib/liblwip.a(dns.o)
                                                  ../lib/liblwip.a(timers.o)
do_client_connect                                 ../lib/libssl.a(ssl_tls1_clnt.o)
                                                  ../lib/libssl.a(ssl_tls1.o)
do_clnt_handshake                                 ../lib/libssl.a(ssl_tls1_clnt.o)
                                                  ../lib/libssl.a(ssl_tls1.o)
do_noisefloor                                     ../lib/libphy.a(phy_chip_v6.o)
do_noisefloor_lsleep_v50                          ../lib/libphy.a(phy_chip_v6.o)
do_pwctrl_flag                                    ../lib/libphy.a(phy_chip_v6.o)
                                                  ../lib/libphy.a(phy_sleep.o)
do_svr_handshake                                  ../lib/libssl.a(ssl_tls1_svr.o)
                                                  ../lib/libssl.a(ssl_tls1.o)
done_cb                                           ../lib/libmain.a(user_interface.o)
                                                  ../lib/libmain.a(app_main.o)
dpd_bypass_original                               ../lib/libphy.a(phy_chip_v6.o)
dpd_mem_write                                     ../lib/libphy.a(phy_chip_v6_cal.o)
dpd_scale_set                                     ../lib/libphy.a(phy_chip_v6_cal.o)
                                                  ../lib/libphy.a(phy_chip_v6.o)
dup_binstr                                        ../lib/libwpa.a(common.o)
eagle_auth_done                                   ../lib/libwpa.a(wpa_main.o)
                                                  ../lib/libnet80211.a(ieee80211_sta.o)
eagle_lwip_getif                                  ../lib/libmain.a(eagle_lwip_if.o)
                                                  ../lib/liblwip.a(mdns.o)
                                                  ../lib/liblwip.a(ip.o)
                                                  ../lib/liblwip.a(espconn_udp.o)
                                                  ../lib/liblwip.a(dhcpserver.o)
                                                  ../lib/libmain.a(user_interface.o)
eagle_lwip_if_alloc                               ../lib/libmain.a(eagle_lwip_if.o)
                                                  ../lib/libnet80211.a(ieee80211_sta.o)
                                                  ../lib/libnet80211.a(ieee80211_hostap.o)
eagle_lwip_if_free                                ../lib/libmain.a(eagle_lwip_if.o)
                                                  ../lib/libnet80211.a(ieee80211_hostap.o)
                                                  ../lib/libmain.a(user_interface.o)
eap_get_id                                        ../lib/libwps.a(eap_common.o)
eap_get_type                                      ../lib/libwps.a(eap_common.o)
eap_hdr_len_valid                                 ../lib/libwps.a(eap_common.o)
eap_hdr_validate                                  ../lib/libwps.a(eap_common.o)
eap_msg_alloc                                     ../lib/libwps.a(eap_common.o)
                                                  ../lib/libwps.a(wps.o)
eap_update_len                                    ../lib/libwps.a(eap_common.o)
eapol_txcb                                        ../lib/libwpa.a(wpa.o)
                                                  ../lib/libwpa.a(wpa_main.o)
echoFlag                                          ../lib/libat.a(at_port.o)
                                                  ../lib/libat.a(at_baseCmd.o)
eloop_cancel_timeout                              ../lib/libwpa.a(wpa_debug.o)
                                                  ../lib/libwpa.a(wpa.o)
                                                  ../lib/libwpa.a(wpa_auth.o)
eloop_register_timeout                            ../lib/libwpa.a(wpa_debug.o)
                                                  ../lib/libwpa.a(wpa.o)
                                                  ../lib/libwpa.a(wpa_auth.o)
esf_buf_alloc                                     ../lib/libpp.a(esf_buf.o)
                                                  ../lib/libnet80211.a(ieee80211_output.o)
                                                  ../lib/libnet80211.a(ieee80211_ets.o)
esf_buf_recycle                                   ../lib/libpp.a(esf_buf.o)
                                                  ../lib/libnet80211.a(ieee80211_power.o)
                                                  ../lib/libnet80211.a(ieee80211_output.o)
                                                  ../lib/libnet80211.a(ieee80211_hostap.o)
                                                  ../lib/libpp.a(pp.o)
esf_buf_setup                                     ../lib/libpp.a(esf_buf.o)
                                                  ../lib/libpp.a(pp.o)
esf_rx_buf_alloc                                  ../lib/libpp.a(esf_buf.o)
                                                  ../lib/libpp.a(wdev.o)
espconn_TaskQueue                                 ../lib/liblwip.a(espconn_tcp.o)
espconn_abort                                     ../lib/liblwip.a(espconn.o)
espconn_accept                                    ../lib/liblwip.a(espconn.o)
                                                  ../lib/libat.a(at_ipCmd.o)
espconn_clear_opt                                 ../lib/liblwip.a(espconn.o)
                                                  ../lib/libat.a(at_ipCmd.o)
espconn_connect                                   ../lib/liblwip.a(espconn.o)
                                                  ../lib/libat.a(at_ipCmd.o)
espconn_copy_partial                              ../lib/liblwip.a(espconn.o)
                                                  ../lib/liblwip.a(espconn_tcp.o)
espconn_create                                    ../lib/liblwip.a(espconn.o)
                                                  ../lib/libwilddog.a(wilddog_espressif.o)
                                                  ../lib/libsmartconfig.a(sc_esptouch.o)
                                                  ../lib/libsmartconfig.a(sc_airkiss.o)
                                                  ../lib/libat.a(at_wifiCmd.o)
                                                  ../lib/libat.a(at_ipCmd.o)
                                                  user/.output/eagle/debug/lib/libuser.a(AirKiss_Drv.o)
espconn_delete                                    ../lib/liblwip.a(espconn.o)
                                                  ../lib/libwilddog.a(wilddog_espressif.o)
                                                  ../lib/libsmartconfig.a(sc_esptouch.o)
                                                  ../lib/libsmartconfig.a(sc_airkiss.o)
                                                  ../lib/libsmartconfig.a(sc_sniffer.o)
                                                  ../lib/libat.a(at_wifiCmd.o)
                                                  ../lib/libat.a(at_ipCmd.o)
espconn_disconnect                                ../lib/liblwip.a(espconn.o)
                                                  ../lib/libat.a(at_ipCmd.o)
espconn_dns_setserver                             ../lib/liblwip.a(espconn.o)
espconn_find_connection                           ../lib/liblwip.a(espconn.o)
                                                  ../lib/libssl.a(espconn_secure.o)
                                                  ../lib/liblwip.a(espconn_tcp.o)
espconn_find_current_pcb                          ../lib/liblwip.a(espconn_tcp.o)
espconn_get_connection_info                       ../lib/liblwip.a(espconn.o)
                                                  ../lib/libssl.a(espconn_ssl.o)
                                                  ../lib/liblwip.a(espconn_tcp.o)
                                                  ../lib/libat.a(at_wifiCmd.o)
                                                  ../lib/libat.a(at_ipCmd.o)
                                                  user/.output/eagle/debug/lib/libuser.a(AirKiss_Drv.o)
espconn_get_keepalive                             ../lib/liblwip.a(espconn.o)
                                                  ../lib/libat.a(at_ipCmd.o)
espconn_get_packet_info                           ../lib/liblwip.a(espconn.o)
                                                  ../lib/libat.a(at_ipCmd.o)
espconn_gethostbyname                             ../lib/liblwip.a(espconn.o)
                                                  ../lib/libwilddog.a(wilddog_espressif.o)
                                                  ../lib/libat.a(at_wifiCmd.o)
                                                  ../lib/libat.a(at_ipCmd.o)
espconn_igmp_join                                 ../lib/liblwip.a(espconn_udp.o)
espconn_igmp_leave                                ../lib/liblwip.a(espconn_udp.o)
espconn_init                                      ../lib/liblwip.a(espconn_tcp.o)
                                                  ../lib/libmain.a(app_main.o)
espconn_kill_oldest_pcb                           ../lib/liblwip.a(espconn_tcp.o)
                                                  ../lib/libssl.a(espconn_ssl.o)
espconn_kill_pcb                                  ../lib/liblwip.a(espconn_tcp.o)
                                                  ../lib/libssl.a(espconn_ssl.o)
espconn_list_creat                                ../lib/liblwip.a(espconn.o)
                                                  ../lib/libssl.a(espconn_ssl.o)
                                                  ../lib/liblwip.a(espconn_udp.o)
                                                  ../lib/liblwip.a(espconn_tcp.o)
espconn_list_delete                               ../lib/liblwip.a(espconn.o)
                                                  ../lib/libssl.a(espconn_ssl.o)
                                                  ../lib/liblwip.a(espconn_udp.o)
                                                  ../lib/liblwip.a(espconn_tcp.o)
espconn_mdns_close                                ../lib/liblwip.a(espconn_mdns.o)
                                                  ../lib/libat.a(at_ipCmd.o)
espconn_mdns_disable                              ../lib/liblwip.a(espconn_mdns.o)
espconn_mdns_enable                               ../lib/liblwip.a(espconn_mdns.o)
espconn_mdns_get_hostname                         ../lib/liblwip.a(espconn_mdns.o)
espconn_mdns_get_servername                       ../lib/liblwip.a(espconn_mdns.o)
espconn_mdns_init                                 ../lib/liblwip.a(espconn_mdns.o)
                                                  ../lib/libat.a(at_ipCmd.o)
espconn_mdns_server_register                      ../lib/liblwip.a(espconn_mdns.o)
espconn_mdns_server_unregister                    ../lib/liblwip.a(espconn_mdns.o)
espconn_mdns_set_hostname                         ../lib/liblwip.a(espconn_mdns.o)
espconn_mdns_set_servername                       ../lib/liblwip.a(espconn_mdns.o)
espconn_pbuf_create                               ../lib/liblwip.a(espconn.o)
espconn_pbuf_delete                               ../lib/liblwip.a(espconn.o)
                                                  ../lib/liblwip.a(espconn_tcp.o)
espconn_port                                      ../lib/liblwip.a(espconn.o)
                                                  ../lib/libwilddog.a(wilddog_espressif.o)
                                                  ../lib/libsmartconfig.a(sc_esptouch.o)
                                                  ../lib/libsmartconfig.a(sc_airkiss.o)
                                                  ../lib/libat.a(at_ipCmd.o)
espconn_recv_hold                                 ../lib/liblwip.a(espconn_tcp.o)
                                                  ../lib/libat.a(uart.o)
espconn_recv_unhold                               ../lib/liblwip.a(espconn_tcp.o)
                                                  ../lib/libat.a(uart.o)
espconn_regist_connectcb                          ../lib/liblwip.a(espconn.o)
                                                  ../lib/libat.a(at_ipCmd.o)
espconn_regist_disconcb                           ../lib/liblwip.a(espconn.o)
                                                  ../lib/libat.a(at_ipCmd.o)
espconn_regist_reconcb                            ../lib/liblwip.a(espconn.o)
                                                  ../lib/libat.a(at_ipCmd.o)
espconn_regist_recvcb                             ../lib/liblwip.a(espconn.o)
                                                  ../lib/libwilddog.a(wilddog_espressif.o)
                                                  ../lib/libsmartconfig.a(sc_esptouch.o)
                                                  ../lib/libat.a(at_wifiCmd.o)
                                                  ../lib/libat.a(at_ipCmd.o)
                                                  user/.output/eagle/debug/lib/libuser.a(AirKiss_Drv.o)
espconn_regist_sentcb                             ../lib/liblwip.a(espconn.o)
                                                  ../lib/libwilddog.a(wilddog_espressif.o)
                                                  ../lib/libsmartconfig.a(sc_esptouch.o)
                                                  ../lib/libsmartconfig.a(sc_airkiss.o)
                                                  ../lib/libat.a(at_ipCmd.o)
espconn_regist_time                               ../lib/liblwip.a(espconn.o)
                                                  ../lib/libat.a(at_ipCmd.o)
espconn_regist_write_finish                       ../lib/liblwip.a(espconn.o)
                                                  ../lib/libat.a(at_ipCmd.o)
espconn_secure_accept                             ../lib/libssl.a(espconn_secure.o)
espconn_secure_ca_disable                         ../lib/libssl.a(espconn_secure.o)
espconn_secure_ca_enable                          ../lib/libssl.a(espconn_secure.o)
espconn_secure_cert_req_disable                   ../lib/libssl.a(espconn_secure.o)
espconn_secure_cert_req_enable                    ../lib/libssl.a(espconn_secure.o)
espconn_secure_connect                            ../lib/libssl.a(espconn_secure.o)
                                                  ../lib/libat.a(at_ipCmd.o)
espconn_secure_delete                             ../lib/libssl.a(espconn_secure.o)
espconn_secure_disconnect                         ../lib/libssl.a(espconn_secure.o)
                                                  ../lib/libat.a(at_ipCmd.o)
espconn_secure_get_size                           ../lib/libssl.a(espconn_secure.o)
                                                  ../lib/libssl.a(espconn_ssl.o)
                                                  ../lib/libat.a(at_ipCmd.o)
espconn_secure_send                               ../lib/libssl.a(espconn_secure.o)
espconn_secure_sent                               ../lib/libssl.a(espconn_secure.o)
                                                  ../lib/libat.a(at_ipCmd.o)
espconn_secure_set_default_certificate            ../lib/libssl.a(espconn_secure.o)
espconn_secure_set_default_private_key            ../lib/libssl.a(espconn_secure.o)
espconn_secure_set_size                           ../lib/libssl.a(espconn_secure.o)
                                                  ../lib/libat.a(at_ipCmd.o)
espconn_send                                      ../lib/liblwip.a(espconn.o)
                                                  ../lib/libat.a(at_wifiCmd.o)
espconn_sendto                                    ../lib/liblwip.a(espconn.o)
                                                  user/.output/eagle/debug/lib/libuser.a(AirKiss_Drv.o)
espconn_sent                                      ../lib/liblwip.a(espconn.o)
                                                  ../lib/libwilddog.a(wilddog_espressif.o)
                                                  ../lib/libsmartconfig.a(sc_esptouch.o)
                                                  ../lib/libsmartconfig.a(sc_airkiss.o)
                                                  ../lib/libat.a(at_ipCmd.o)
espconn_sent_packet                               ../lib/libssl.a(espconn_ssl.o)
espconn_set_keepalive                             ../lib/liblwip.a(espconn.o)
                                                  ../lib/libat.a(at_ipCmd.o)
espconn_set_opt                                   ../lib/liblwip.a(espconn.o)
                                                  ../lib/libat.a(at_ipCmd.o)
espconn_ssl_client                                ../lib/libssl.a(espconn_ssl.o)
                                                  ../lib/libssl.a(espconn_secure.o)
espconn_ssl_delete                                ../lib/libssl.a(espconn_ssl.o)
                                                  ../lib/libssl.a(espconn_secure.o)
espconn_ssl_disconnect                            ../lib/libssl.a(espconn_ssl.o)
                                                  ../lib/libssl.a(espconn_secure.o)
espconn_ssl_read                                  ../lib/libssl.a(espconn_ssl.o)
                                                  ../lib/libssl.a(ssl_tls1.o)
espconn_ssl_read_param_from_flash                 ../lib/libssl.a(espconn_ssl.o)
                                                  ../lib/libssl.a(ssl_crypto_misc.o)
espconn_ssl_sent                                  ../lib/libssl.a(espconn_ssl.o)
                                                  ../lib/libssl.a(espconn_secure.o)
espconn_ssl_server                                ../lib/libssl.a(espconn_ssl.o)
                                                  ../lib/libssl.a(espconn_secure.o)
espconn_tcp_client                                ../lib/liblwip.a(espconn_tcp.o)
                                                  ../lib/liblwip.a(espconn.o)
espconn_tcp_delete                                ../lib/liblwip.a(espconn_tcp.o)
                                                  ../lib/liblwip.a(espconn.o)
espconn_tcp_disconnect                            ../lib/liblwip.a(espconn_tcp.o)
                                                  ../lib/liblwip.a(espconn.o)
espconn_tcp_get_max_con                           ../lib/liblwip.a(espconn.o)
espconn_tcp_get_max_con_allow                     ../lib/liblwip.a(espconn.o)
                                                  ../lib/liblwip.a(espconn_tcp.o)
espconn_tcp_get_max_retran                        ../lib/liblwip.a(espconn.o)
espconn_tcp_get_max_syn                           ../lib/liblwip.a(espconn.o)
espconn_tcp_get_mss                               ../lib/liblwip.a(espconn.o)
                                                  ../lib/libat.a(uart.o)
espconn_tcp_get_wnd                               ../lib/liblwip.a(espconn.o)
espconn_tcp_memp_free                             ../lib/liblwip.a(espconn_tcp.o)
espconn_tcp_sent                                  ../lib/liblwip.a(espconn_tcp.o)
espconn_tcp_server                                ../lib/liblwip.a(espconn_tcp.o)
                                                  ../lib/liblwip.a(espconn.o)
espconn_tcp_set_buf_count                         ../lib/liblwip.a(espconn.o)
                                                  ../lib/liblwip.a(espconn_tcp.o)
espconn_tcp_set_max_con                           ../lib/liblwip.a(espconn.o)
                                                  ../lib/libat.a(at_ipCmd.o)
espconn_tcp_set_max_con_allow                     ../lib/liblwip.a(espconn.o)
espconn_tcp_set_max_retran                        ../lib/liblwip.a(espconn.o)
                                                  ../lib/libat.a(at_ipCmd.o)
espconn_tcp_set_max_syn                           ../lib/liblwip.a(espconn.o)
                                                  ../lib/libat.a(at_ipCmd.o)
espconn_tcp_set_wnd                               ../lib/liblwip.a(espconn.o)
                                                  ../lib/libat.a(uart.o)
espconn_tcp_write                                 ../lib/liblwip.a(espconn_tcp.o)
                                                  ../lib/liblwip.a(espconn.o)
espconn_udp_disconnect                            ../lib/liblwip.a(espconn_udp.o)
                                                  ../lib/liblwip.a(espconn.o)
espconn_udp_sendto                                ../lib/liblwip.a(espconn_udp.o)
                                                  ../lib/liblwip.a(espconn.o)
espconn_udp_sent                                  ../lib/liblwip.a(espconn_udp.o)
                                                  ../lib/liblwip.a(espconn.o)
espconn_udp_server                                ../lib/liblwip.a(espconn_udp.o)
                                                  ../lib/liblwip.a(espconn.o)
esptouch_set_timeout                              ../lib/libsmartconfig.a(sc_sniffer.o)
etharp_cleanup_netif                              ../lib/liblwip.a(etharp.o)
                                                  ../lib/liblwip.a(netif.o)
etharp_find_addr                                  ../lib/liblwip.a(etharp.o)
etharp_output                                     ../lib/liblwip.a(etharp.o)
                                                  ../lib/libmain.a(eagle_lwip_if.o)
etharp_query                                      ../lib/liblwip.a(etharp.o)
                                                  ../lib/liblwip.a(dhcp.o)
etharp_request                                    ../lib/liblwip.a(etharp.o)
                                                  ../lib/liblwip.a(netif.o)
etharp_tmr                                        ../lib/liblwip.a(etharp.o)
                                                  ../lib/liblwip.a(timers.o)
ethbroadcast                                      ../lib/liblwip.a(etharp.o)
                                                  ../lib/libwpa.a(wpa_auth.o)
                                                  ../lib/libnet80211.a(wl_cnx.o)
                                                  ../lib/libnet80211.a(ieee80211_scan.o)
                                                  ../lib/libnet80211.a(ieee80211_output.o)
                                                  ../lib/libnet80211.a(ieee80211_hostap.o)
                                                  ../lib/libnet80211.a(ieee80211.o)
                                                  ../lib/libpp.a(wdev.o)
                                                  ../lib/libmain.a(user_interface.o)
ethernet_input                                    ../lib/liblwip.a(etharp.o)
                                                  ../lib/libmain.a(eagle_lwip_if.o)
ethzero                                           ../lib/liblwip.a(etharp.o)
ets_bzero                                         ../lib/libwps.a(wps.o)
                                                  ../lib/libwpa.a(wpa_main.o)
                                                  ../lib/libwpa.a(wpa.o)
                                                  ../lib/libwpa.a(wpa_auth.o)
                                                  ../lib/libwpa.a(ap_config.o)
                                                  ../lib/liblwip.a(ping.o)
                                                  ../lib/liblwip.a(espconn_tcp.o)
                                                  ../lib/liblwip.a(dhcpserver.o)
                                                  ../lib/libnet80211.a(wl_cnx.o)
                                                  ../lib/libnet80211.a(wl_chm.o)
                                                  ../lib/libnet80211.a(ieee80211_sta.o)
                                                  ../lib/libnet80211.a(ieee80211_scan.o)
                                                  ../lib/libnet80211.a(ieee80211_input.o)
                                                  ../lib/libpp.a(trc.o)
                                                  ../lib/libpp.a(pm.o)
                                                  ../lib/libat.a(at_wifiCmd.o)
                                                  ../lib/libat.a(at_ipCmd.o)
                                                  ../lib/libat.a(at_baseCmd.o)
                                                  ../lib/libmain.a(user_interface.o)
                                                  ../lib/libmain.a(app_main.o)
ets_delay_us                                      ../lib/libwilddog.a(wilddog_espressif.o)
                                                  ../lib/libwpa.a(wpa.o)
                                                  ../lib/libnet80211.a(ieee80211_hostap.o)
                                                  ../lib/libpp.a(wdev.o)
                                                  ../lib/libpp.a(lmac.o)
                                                  ../lib/libphy.a(phy_sleep.o)
                                                  ../lib/libphy.a(phy_chip_v6_cal.o)
                                                  ../lib/libphy.a(phy_chip_v6.o)
                                                  ../lib/libphy.a(phy_chip_v6_ana.o)
                                                  ../lib/libat.a(uart.o)
                                                  ../lib/libat.a(at_baseCmd.o)
                                                  user/.output/eagle/debug/lib/libuser.a(GlobalFunc.o)
                                                  ../lib/libmain.a(user_interface.o)
                                                  ../lib/libmain.a(mem_manager.o)
ets_get_cpu_frequency                             ../lib/libmain.a(user_interface.o)
ets_install_putc1                                 ../lib/libat.a(uart.o)
                                                  ../lib/libmain.a(app_main.o)
ets_intr_lock                                     ../lib/libnet80211.a(wl_cnx.o)
                                                  ../lib/libnet80211.a(wl_chm.o)
                                                  ../lib/libnet80211.a(ieee80211_scan.o)
                                                  ../lib/libnet80211.a(ieee80211_hostap.o)
                                                  ../lib/libpp.a(esf_buf.o)
                                                  ../lib/libpp.a(wdev.o)
                                                  ../lib/libpp.a(pp.o)
                                                  ../lib/libpp.a(pm_for_bcn_only_mode.o)
                                                  ../lib/libpp.a(pm.o)
                                                  ../lib/libpp.a(lmac.o)
                                                  ../lib/libpp.a(if_hwctrl.o)
                                                  ../lib/libmain.a(user_interface.o)
                                                  ../lib/libmain.a(mem_manager.o)
                                                  ../lib/libmain.a(ets_timer.o)
                                                  ../lib/libmain.a(app_main.o)
ets_intr_unlock                                   ../lib/libnet80211.a(wl_cnx.o)
                                                  ../lib/libnet80211.a(wl_chm.o)
                                                  ../lib/libnet80211.a(ieee80211_scan.o)
                                                  ../lib/libnet80211.a(ieee80211_hostap.o)
                                                  ../lib/libpp.a(esf_buf.o)
                                                  ../lib/libpp.a(wdev.o)
                                                  ../lib/libpp.a(pp.o)
                                                  ../lib/libpp.a(pm_for_bcn_only_mode.o)
                                                  ../lib/libpp.a(pm.o)
                                                  ../lib/libpp.a(lmac.o)
                                                  ../lib/libpp.a(if_hwctrl.o)
                                                  ../lib/libmain.a(user_interface.o)
                                                  ../lib/libmain.a(mem_manager.o)
                                                  ../lib/libmain.a(ets_timer.o)
ets_isr_attach                                    ../lib/libat.a(uart.o)
                                                  ../lib/libmain.a(ets_timer.o)
                                                  ../lib/libmain.a(app_main.o)
ets_isr_mask                                      ../lib/libat.a(uart.o)
                                                  ../lib/libat.a(at_wifiCmd.o)
                                                  ../lib/libmain.a(user_interface.o)
ets_isr_unmask                                    ../lib/libat.a(uart.o)
                                                  ../lib/libat.a(at_wifiCmd.o)
                                                  ../lib/libmain.a(ets_timer.o)
                                                  ../lib/libmain.a(app_main.o)
ets_memcmp                                        ../lib/libcrypto.a(dh_groups.o)
                                                  ../lib/libwilddog.a(wilddog_event.o)
                                                  ../lib/libwilddog.a(wilddog_conn_manage.o)
                                                  ../lib/libwilddog.a(wilddog_conn_coap.o)
                                                  ../lib/libsmartconfig.a(sc_esptouch.o)
                                                  ../lib/libsmartconfig.a(sc_airkiss.o)
                                                  ../lib/libsmartconfig.a(sc_sniffer.o)
                                                  ../lib/libwps.a(wps_attr_process.o)
                                                  ../lib/libwps.a(wps_registrar.o)
                                                  ../lib/libwps.a(wps_enrollee.o)
                                                  ../lib/libwps.a(wps.o)
                                                  ../lib/libssl.a(ssl_asn1.o)
                                                  ../lib/libssl.a(ssl_tls1_svr.o)
                                                  ../lib/libssl.a(ssl_tls1.o)
                                                  ../lib/libwpa.a(wpa_common.o)
                                                  ../lib/libwpa.a(wpa.o)
                                                  ../lib/libwpa.a(wpa_auth.o)
                                                  ../lib/libwpa.a(ap_config.o)
                                                  ../lib/liblwip.a(dhcpserver.o)
                                                  ../lib/libnet80211.a(ieee80211_action_vendor.o)
                                                  ../lib/libnet80211.a(wl_cnx.o)
                                                  ../lib/libnet80211.a(ieee80211_sta.o)
                                                  ../lib/libnet80211.a(ieee80211_scan.o)
                                                  ../lib/libnet80211.a(ieee80211_input.o)
                                                  ../lib/libnet80211.a(ieee80211_hostap.o)
                                                  ../lib/libpp.a(trc.o)
                                                  ../lib/libpp.a(pp.o)
                                                  ../lib/libpp.a(pm.o)
                                                  ../lib/libat.a(at_init_para.o)
                                                  ../lib/libat.a(uart.o)
                                                  ../lib/libat.a(at_wifiCmd.o)
                                                  ../lib/libat.a(at_port.o)
                                                  ../lib/libat.a(at_nv_data.o)
                                                  ../lib/libat.a(at_ipCmd.o)
                                                  ../lib/libat.a(at_cmd.o)
                                                  ../lib/libmain.a(user_interface.o)
ets_memcpy                                        ../lib/libcrypto.a(sha256-internal.o)
                                                  ../lib/libcrypto.a(sha256.o)
                                                  ../lib/libcrypto.a(aes-cbc.o)
                                                  ../lib/libwpa.a(wpabuf.o)
                                                  ../lib/libwilddog.a(wilddog_cbor.o)
                                                  ../lib/libwilddog.a(pdu.o)
                                                  ../lib/libwilddog.a(option.o)
                                                  ../lib/libwilddog.a(wilddog_sec_host.o)
                                                  ../lib/libwilddog.a(wilddog_event.o)
                                                  ../lib/libwilddog.a(wilddog_conn_manage.o)
                                                  ../lib/libwilddog.a(wilddog_conn_coap.o)
                                                  ../lib/libwilddog.a(wilddog_store.o)
                                                  ../lib/libwilddog.a(wilddog_node.o)
                                                  ../lib/libwilddog.a(wilddog_espressif.o)
                                                  ../lib/libwilddog.a(wilddog_ct.o)
                                                  ../lib/libwilddog.a(wilddog_common.o)
                                                  ../lib/libsmartconfig.a(sc_esptouch.o)
                                                  ../lib/libsmartconfig.a(sc_airkiss.o)
                                                  ../lib/libsmartconfig.a(sc_sniffer.o)
                                                  ../lib/libwps.a(wps_attr_process.o)
                                                  ../lib/libwps.a(wps_attr_build.o)
                                                  ../lib/libwps.a(wps_registrar.o)
                                                  ../lib/libwps.a(wps_enrollee.o)
                                                  ../lib/libwps.a(wps_dev_attr.o)
                                                  ../lib/libwps.a(wps_common.o)
                                                  ../lib/libwps.a(wps.o)
                                                  ../lib/libssl.a(ssl_rsa.o)
                                                  ../lib/libssl.a(ssl_hmac.o)
                                                  ../lib/libssl.a(ssl_bigint.o)
                                                  ../lib/libssl.a(ssl_asn1.o)
                                                  ../lib/libssl.a(ssl_aes.o)
                                                  ../lib/libssl.a(sha512.o)
                                                  ../lib/libssl.a(sha384.o)
                                                  ../lib/libssl.a(sha256.o)
                                                  ../lib/libssl.a(ssl_x509.o)
                                                  ../lib/libssl.a(ssl_tls1_svr.o)
                                                  ../lib/libssl.a(ssl_tls1.o)
                                                  ../lib/libssl.a(ssl_tls1_clnt.o)
                                                  ../lib/libssl.a(ssl_md5.o)
                                                  ../lib/libssl.a(ssl_loader.o)
                                                  ../lib/libssl.a(espconn_ssl.o)
                                                  ../lib/libssl.a(espconn_secure.o)
                                                  ../lib/libcrypto.a(aes-wrap.o)
                                                  ../lib/libwpa.a(wpas_glue.o)
                                                  ../lib/libwpa.a(wpa_main.o)
                                                  ../lib/libwpa.a(wpa_common.o)
                                                  ../lib/libwpa.a(wpa.o)
                                                  ../lib/libwpa.a(wpa_auth_ie.o)
                                                  ../lib/libwpa.a(wpa_auth.o)
                                                  ../lib/libwpa.a(os_xtensa.o)
                                                  ../lib/libwpa.a(common.o)
                                                  ../lib/libwpa.a(ap_config.o)
                                                  ../lib/liblwip.a(icmp.o)
                                                  ../lib/liblwip.a(tcp_out.o)
                                                  ../lib/liblwip.a(tcp.o)
                                                  ../lib/liblwip.a(pbuf.o)
                                                  ../lib/liblwip.a(mdns.o)
                                                  ../lib/liblwip.a(ip.o)
                                                  ../lib/liblwip.a(etharp.o)
                                                  ../lib/liblwip.a(espconn_tcp.o)
                                                  ../lib/liblwip.a(espconn.o)
                                                  ../lib/liblwip.a(dns.o)
                                                  ../lib/liblwip.a(dhcpserver.o)
                                                  ../lib/libnet80211.a(ieee80211_ie_vendor.o)
                                                  ../lib/libnet80211.a(ieee80211_action_vendor.o)
                                                  ../lib/libnet80211.a(wl_cnx.o)
                                                  ../lib/libnet80211.a(ieee80211_sta.o)
                                                  ../lib/libnet80211.a(ieee80211_scan.o)
                                                  ../lib/libnet80211.a(ieee80211_proto.o)
                                                  ../lib/libnet80211.a(ieee80211_phy.o)
                                                  ../lib/libnet80211.a(ieee80211_output.o)
                                                  ../lib/libnet80211.a(ieee80211_mesh_quick.o)
                                                  ../lib/libnet80211.a(ieee80211_input.o)
                                                  ../lib/libnet80211.a(ieee80211_hostap.o)
                                                  ../lib/libnet80211.a(ieee80211.o)
                                                  ../lib/libpp.a(wdev.o)
                                                  ../lib/libpp.a(trc.o)
                                                  ../lib/libpp.a(pm.o)
                                                  ../lib/libpp.a(if_hwctrl.o)
                                                  ../lib/libat.a(uart.o)
                                                  ../lib/libat.a(at_wifiCmd.o)
                                                  ../lib/libat.a(at_nv_data.o)
                                                  ../lib/libat.a(at_ipCmd.o)
                                                  ../lib/libat.a(at_baseCmd.o)
                                                  user/.output/eagle/debug/lib/libuser.a(WildDog_Drv.o)
                                                  user/.output/eagle/debug/lib/libuser.a(AirKiss_Drv.o)
                                                  ../lib/libmain.a(eagle_lwip_if.o)
                                                  ../lib/libmain.a(user_interface.o)
                                                  ../lib/libmain.a(mem_manager.o)
                                                  ../lib/libmain.a(app_main.o)
ets_memset                                        ../lib/libcrypto.a(sha256.o)
                                                  ../lib/libcrypto.a(aes-internal-dec.o)
                                                  ../lib/libwpa.a(wpabuf.o)
                                                  ../lib/libwilddog.a(wilddog_cbor.o)
                                                  ../lib/libwilddog.a(pdu.o)
                                                  ../lib/libwilddog.a(option.o)
                                                  ../lib/libwilddog.a(wilddog_conn_manage.o)
                                                  ../lib/libwilddog.a(wilddog_conn_coap.o)
                                                  ../lib/libwilddog.a(wilddog_conn.o)
                                                  ../lib/libwilddog.a(wilddog_store.o)
                                                  ../lib/libwilddog.a(wilddog_common.o)
                                                  ../lib/libsmartconfig.a(sc_esptouch.o)
                                                  ../lib/libsmartconfig.a(sc_airkiss.o)
                                                  ../lib/libwps.a(wps_attr_process.o)
                                                  ../lib/libwps.a(wps_attr_parse.o)
                                                  ../lib/libwps.a(wps_attr_build.o)
                                                  ../lib/libwps.a(wps_registrar.o)
                                                  ../lib/libwps.a(wps_enrollee.o)
                                                  ../lib/libwps.a(wps_common.o)
                                                  ../lib/libwps.a(wps.o)
                                                  ../lib/libssl.a(ssl_sha1.o)
                                                  ../lib/libssl.a(ssl_rsa.o)
                                                  ../lib/libssl.a(ssl_hmac.o)
                                                  ../lib/libssl.a(ssl_bigint.o)
                                                  ../lib/libssl.a(ssl_asn1.o)
                                                  ../lib/libssl.a(ssl_tls1.o)
                                                  ../lib/libssl.a(ssl_tls1_clnt.o)
                                                  ../lib/libcrypto.a(aes-internal-enc.o)
                                                  ../lib/libcrypto.a(aes-wrap.o)
                                                  ../lib/libwpa.a(wpas_glue.o)
                                                  ../lib/libwpa.a(wpa_ie.o)
                                                  ../lib/libwpa.a(wpa_common.o)
                                                  ../lib/libwpa.a(wpa.o)
                                                  ../lib/libwpa.a(wpa_auth_ie.o)
                                                  ../lib/libwpa.a(wpa_auth.o)
                                                  ../lib/liblwip.a(udp.o)
                                                  ../lib/liblwip.a(tcp.o)
                                                  ../lib/liblwip.a(raw.o)
                                                  ../lib/liblwip.a(mdns.o)
                                                  ../lib/liblwip.a(ip.o)
                                                  ../lib/liblwip.a(espconn.o)
                                                  ../lib/liblwip.a(dns.o)
                                                  ../lib/liblwip.a(dhcpserver.o)
                                                  ../lib/liblwip.a(dhcp.o)
                                                  ../lib/libnet80211.a(wl_cnx.o)
                                                  ../lib/libnet80211.a(ieee80211_power.o)
                                                  ../lib/libnet80211.a(ieee80211_output.o)
                                                  ../lib/libnet80211.a(ieee80211_input.o)
                                                  ../lib/libnet80211.a(ieee80211_ht.o)
                                                  ../lib/libpp.a(esf_buf.o)
                                                  ../lib/libat.a(at_init_para.o)
                                                  ../lib/libat.a(uart.o)
                                                  ../lib/libat.a(at_wifiCmd.o)
                                                  ../lib/libat.a(at_ipCmd.o)
                                                  user/.output/eagle/debug/lib/libuser.a(WDJson_Drv.o)
                                                  user/.output/eagle/debug/lib/libuser.a(AtCmd_Drv.o)
                                                  ../lib/libmain.a(user_interface.o)
                                                  ../lib/libmain.a(mem_manager.o)
                                                  ../lib/libmain.a(app_main.o)
ets_post                                          ../lib/libssl.a(espconn_ssl.o)
                                                  ../lib/libwpa.a(wpa_main.o)
                                                  ../lib/liblwip.a(espconn_tcp.o)
                                                  ../lib/libnet80211.a(wl_cnx.o)
                                                  ../lib/libnet80211.a(ieee80211_sta.o)
                                                  ../lib/libnet80211.a(ieee80211_input.o)
                                                  ../lib/libnet80211.a(ieee80211_hostap.o)
                                                  ../lib/libpp.a(pp.o)
                                                  ../lib/libpp.a(pm.o)
                                                  ../lib/libpp.a(lmac.o)
                                                  ../lib/libmain.a(user_interface.o)
                                                  ../lib/libmain.a(ets_timer.o)
ets_printf                                        ../lib/libwpa.a(wpabuf.o)
                                                  ../lib/libpp.a(wdev.o)
                                                  ../lib/libpp.a(pp.o)
                                                  ../lib/libpp.a(pm_for_bcn_only_mode.o)
                                                  ../lib/libpp.a(pm.o)
                                                  ../lib/libpp.a(lmac.o)
                                                  ../lib/libmain.a(mem_manager.o)
                                                  ../lib/libmain.a(ets_timer.o)
                                                  ../lib/libmain.a(app_main.o)
ets_putc                                          ../lib/libssl.a(ssl_bigint.o)
ets_run                                           ../lib/libmain.a(app_main.o)
ets_set_idle_cb                                   ../lib/libpp.a(pm_for_bcn_only_mode.o)
                                                  ../lib/libpp.a(pm.o)
ets_snprintf                                      ../lib/libmain.a(eagle_lib.o)
ets_sprintf                                       ../lib/libmain.a(eagle_lib.o)
                                                  ../lib/libwilddog.a(wilddog_conn_manage.o)
                                                  ../lib/libwilddog.a(wilddog_url_parser.o)
                                                  ../lib/libwps.a(wps.o)
                                                  ../lib/liblwip.a(mdns.o)
                                                  ../lib/libat.a(at_wifiCmd.o)
                                                  ../lib/libat.a(at_ipCmd.o)
                                                  ../lib/libat.a(at_baseCmd.o)
                                                  user/.output/eagle/debug/lib/libuser.a(Serial_Drv.o)
                                                  user/.output/eagle/debug/lib/libuser.a(WDJson_Drv.o)
                                                  ../lib/libmain.a(user_interface.o)
ets_strcat                                        ../lib/libmain.a(eagle_lib.o)
                                                  ../lib/liblwip.a(mdns.o)
ets_strchr                                        ../lib/libmain.a(eagle_lib.o)
                                                  ../lib/libwps.a(wps_common.o)
ets_strcmp                                        ../lib/libwilddog.a(wilddog_conn_manage.o)
                                                  ../lib/libwilddog.a(wilddog_url_parser.o)
                                                  ../lib/libwilddog.a(wilddog_node.o)
                                                  ../lib/libwilddog.a(wilddog_ct.o)
                                                  ../lib/libssl.a(ssl_asn1.o)
                                                  ../lib/libat.a(at_init_para.o)
                                                  ../lib/libat.a(at_ipCmd.o)
ets_strcpy                                        ../lib/libwilddog.a(wilddog_url_parser.o)
                                                  ../lib/libwilddog.a(wilddog_node.o)
                                                  ../lib/libssl.a(ssl_tls1.o)
                                                  ../lib/liblwip.a(mdns.o)
                                                  ../lib/libat.a(at_init_para.o)
                                                  ../lib/libmain.a(user_interface.o)
ets_strdup                                        ../lib/libwpa.a(os_xtensa.o)
                                                  ../lib/libwps.a(wps_registrar.o)
                                                  ../lib/libwps.a(wps_dev_attr.o)
ets_strlen                                        ../lib/libcrypto.a(sha256.o)
                                                  ../lib/libwilddog.a(wilddog_cbor.o)
                                                  ../lib/libwilddog.a(wilddog_sec_host.o)
                                                  ../lib/libwilddog.a(wilddog_event.o)
                                                  ../lib/libwilddog.a(wilddog_conn_manage.o)
                                                  ../lib/libwilddog.a(wilddog_conn_coap.o)
                                                  ../lib/libwilddog.a(wilddog_conn.o)
                                                  ../lib/libwilddog.a(wilddog_url_parser.o)
                                                  ../lib/libwilddog.a(wilddog_node.o)
                                                  ../lib/libwilddog.a(wilddog_ct.o)
                                                  ../lib/libwilddog.a(wilddog_common.o)
                                                  ../lib/libsmartconfig.a(sc_esptouch.o)
                                                  ../lib/libsmartconfig.a(sc_airkiss.o)
                                                  ../lib/libwps.a(wps_dev_attr.o)
                                                  ../lib/libwps.a(wps_common.o)
                                                  ../lib/libssl.a(ssl_bigint.o)
                                                  ../lib/libssl.a(ssl_tls1.o)
                                                  ../lib/libssl.a(ssl_loader.o)
                                                  ../lib/libwpa.a(wpa.o)
                                                  ../lib/libwpa.a(os_xtensa.o)
                                                  ../lib/libwpa.a(common.o)
                                                  ../lib/libwpa.a(ap_config.o)
                                                  ../lib/liblwip.a(pbuf.o)
                                                  ../lib/liblwip.a(mdns.o)
                                                  ../lib/liblwip.a(dns.o)
                                                  ../lib/liblwip.a(dhcp.o)
                                                  ../lib/libnet80211.a(wl_cnx.o)
                                                  ../lib/libnet80211.a(ieee80211_scan.o)
                                                  ../lib/libnet80211.a(ieee80211_hostap.o)
                                                  ../lib/libat.a(at_init_para.o)
                                                  ../lib/libat.a(uart.o)
                                                  ../lib/libat.a(at_wifiCmd.o)
                                                  ../lib/libat.a(at_port.o)
                                                  ../lib/libat.a(at_ipCmd.o)
                                                  ../lib/libat.a(at_baseCmd.o)
                                                  user/.output/eagle/debug/lib/libuser.a(AtCmd_Drv.o)
                                                  ../lib/libmain.a(eagle_lib.o)
                                                  ../lib/libmain.a(user_interface.o)
                                                  ../lib/libmain.a(mem_manager.o)
ets_strncmp                                       ../lib/libwilddog.a(wilddog_event.o)
                                                  ../lib/libwilddog.a(wilddog_node.o)
                                                  ../lib/libwilddog.a(wilddog_common.o)
                                                  ../lib/libnet80211.a(ieee80211_scan.o)
                                                  ../lib/libmain.a(user_interface.o)
ets_strncpy                                       ../lib/libwilddog.a(wilddog_url_parser.o)
                                                  ../lib/libwps.a(wps.o)
                                                  ../lib/liblwip.a(mdns.o)
                                                  ../lib/libnet80211.a(ieee80211_scan.o)
                                                  ../lib/libat.a(at_ipCmd.o)
                                                  user/.output/eagle/debug/lib/libuser.a(GlobalFunc.o)
                                                  user/.output/eagle/debug/lib/libuser.a(AtCmd_Drv.o)
ets_strrchr                                       ../lib/libmain.a(eagle_lib.o)
                                                  ../lib/libwpa.a(common.o)
ets_strstr                                        ../lib/libwps.a(wps_common.o)
                                                  ../lib/libssl.a(ssl_crypto_misc.o)
                                                  ../lib/libssl.a(ssl_loader.o)
                                                  ../lib/libssl.a(espconn_ssl.o)
ets_task                                          ../lib/libssl.a(espconn_ssl.o)
                                                  ../lib/liblwip.a(espconn_tcp.o)
                                                  ../lib/libpp.a(pp.o)
                                                  ../lib/libpp.a(pm.o)
                                                  ../lib/libmain.a(eagle_lwip_if.o)
                                                  ../lib/libmain.a(user_interface.o)
                                                  ../lib/libmain.a(ets_timer.o)
ets_timer_arm_new                                 ../lib/libmain.a(ets_timer.o)
                                                  ../lib/libwilddog.a(wilddog_espressif.o)
                                                  ../lib/libsmartconfig.a(sc_esptouch.o)
                                                  ../lib/libsmartconfig.a(sc_airkiss.o)
                                                  ../lib/libsmartconfig.a(sc_sniffer.o)
                                                  ../lib/libwps.a(wps.o)
                                                  ../lib/libwpa.a(wpa_main.o)
                                                  ../lib/libwpa.a(wpa.o)
                                                  ../lib/liblwip.a(mdns.o)
                                                  ../lib/libnet80211.a(wl_cnx.o)
                                                  ../lib/libnet80211.a(wl_chm.o)
                                                  ../lib/libnet80211.a(ieee80211_sta.o)
                                                  ../lib/libnet80211.a(ieee80211_scan.o)
                                                  ../lib/libnet80211.a(ieee80211_proto.o)
                                                  ../lib/libnet80211.a(ieee80211_hostap.o)
                                                  ../lib/libpp.a(pp.o)
                                                  ../lib/libpp.a(pm_for_bcn_only_mode.o)
                                                  ../lib/libpp.a(pm.o)
                                                  ../lib/libpp.a(if_hwctrl.o)
                                                  ../lib/libat.a(at_wifiCmd.o)
                                                  ../lib/libat.a(at_port.o)
                                                  ../lib/libat.a(at_ipCmd.o)
                                                  user/.output/eagle/debug/lib/libuser.a(WDJson_Drv.o)
                                                  user/.output/eagle/debug/lib/libuser.a(GizCmdTest.o)
                                                  user/.output/eagle/debug/lib/libuser.a(WildDog_Drv.o)
                                                  user/.output/eagle/debug/lib/libuser.a(user_tcpclient.o)
                                                  user/.output/eagle/debug/lib/libuser.a(AirKiss_Drv.o)
                                                  user/.output/eagle/debug/lib/libuser.a(AtCmd_Drv.o)
                                                  ../lib/libmain.a(user_interface.o)
                                                  ../lib/libmain.a(app_main.o)
ets_timer_disarm                                  ../lib/libmain.a(ets_timer.o)
                                                  ../lib/libsmartconfig.a(sc_esptouch.o)
                                                  ../lib/libsmartconfig.a(sc_airkiss.o)
                                                  ../lib/libsmartconfig.a(sc_sniffer.o)
                                                  ../lib/libwps.a(wps.o)
                                                  ../lib/libwpa.a(wpa_main.o)
                                                  ../lib/libwpa.a(wpa.o)
                                                  ../lib/liblwip.a(mdns.o)
                                                  ../lib/libnet80211.a(wl_cnx.o)
                                                  ../lib/libnet80211.a(wl_chm.o)
                                                  ../lib/libnet80211.a(ieee80211_sta.o)
                                                  ../lib/libnet80211.a(ieee80211_scan.o)
                                                  ../lib/libnet80211.a(ieee80211_proto.o)
                                                  ../lib/libnet80211.a(ieee80211_hostap.o)
                                                  ../lib/libpp.a(pp.o)
                                                  ../lib/libpp.a(pm_for_bcn_only_mode.o)
                                                  ../lib/libpp.a(pm.o)
                                                  ../lib/libpp.a(if_hwctrl.o)
                                                  ../lib/libat.a(at_wifiCmd.o)
                                                  ../lib/libat.a(at_port.o)
                                                  ../lib/libat.a(at_ipCmd.o)
                                                  user/.output/eagle/debug/lib/libuser.a(WDJson_Drv.o)
                                                  user/.output/eagle/debug/lib/libuser.a(GizCmdTest.o)
                                                  user/.output/eagle/debug/lib/libuser.a(WildDog_Drv.o)
                                                  user/.output/eagle/debug/lib/libuser.a(user_tcpclient.o)
                                                  user/.output/eagle/debug/lib/libuser.a(AirKiss_Drv.o)
                                                  user/.output/eagle/debug/lib/libuser.a(AtCmd_Drv.o)
                                                  ../lib/libmain.a(user_interface.o)
                                                  ../lib/libmain.a(app_main.o)
ets_timer_done                                    ../lib/libmain.a(ets_timer.o)
ets_timer_handler_isr                             ../lib/libmain.a(ets_timer.o)
ets_timer_init                                    ../lib/libmain.a(ets_timer.o)
                                                  ../lib/libmain.a(app_main.o)
ets_timer_setfn                                   ../lib/libmain.a(ets_timer.o)
                                                  ../lib/libsmartconfig.a(sc_esptouch.o)
                                                  ../lib/libsmartconfig.a(sc_airkiss.o)
                                                  ../lib/libsmartconfig.a(sc_sniffer.o)
                                                  ../lib/libwps.a(wps.o)
                                                  ../lib/libwpa.a(wpa_main.o)
                                                  ../lib/libwpa.a(wpa.o)
                                                  ../lib/liblwip.a(mdns.o)
                                                  ../lib/libnet80211.a(wl_cnx.o)
                                                  ../lib/libnet80211.a(wl_chm.o)
                                                  ../lib/libnet80211.a(ieee80211_sta.o)
                                                  ../lib/libnet80211.a(ieee80211_scan.o)
                                                  ../lib/libnet80211.a(ieee80211_proto.o)
                                                  ../lib/libnet80211.a(ieee80211_hostap.o)
                                                  ../lib/libpp.a(pp.o)
                                                  ../lib/libpp.a(pm_for_bcn_only_mode.o)
                                                  ../lib/libpp.a(pm.o)
                                                  ../lib/libpp.a(if_hwctrl.o)
                                                  ../lib/libat.a(at_wifiCmd.o)
                                                  ../lib/libat.a(at_ipCmd.o)
                                                  user/.output/eagle/debug/lib/libuser.a(WDJson_Drv.o)
                                                  user/.output/eagle/debug/lib/libuser.a(GizCmdTest.o)
                                                  user/.output/eagle/debug/lib/libuser.a(WildDog_Drv.o)
                                                  user/.output/eagle/debug/lib/libuser.a(user_tcpclient.o)
                                                  user/.output/eagle/debug/lib/libuser.a(AirKiss_Drv.o)
                                                  user/.output/eagle/debug/lib/libuser.a(AtCmd_Drv.o)
                                                  ../lib/libmain.a(user_interface.o)
                                                  ../lib/libmain.a(app_main.o)
ets_update_cpu_frequency                          ../lib/libwps.a(wps_attr_build.o)
                                                  ../lib/libwps.a(wps_enrollee.o)
                                                  ../lib/libpp.a(pm_for_bcn_only_mode.o)
                                                  ../lib/libpp.a(pm.o)
                                                  ../lib/libphy.a(phy_chip_v6.o)
                                                  ../lib/libmain.a(user_interface.o)
ets_vprintf                                       ../lib/libmain.a(user_interface.o)
ets_vsnprintf                                     ../lib/libmain.a(eagle_lib.o)
                                                  ../lib/libwpa.a(wpabuf.o)
                                                  ../lib/libwps.a(uuid.o)
                                                  ../lib/libwps.a(wps_registrar.o)
                                                  ../lib/libwps.a(wps_common.o)
                                                  ../lib/libwps.a(wps.o)
                                                  ../lib/libwpa.a(wpa_debug.o)
ets_vsprintf                                      ../lib/libmain.a(eagle_lib.o)
ets_write_char                                    ../lib/libmain.a(user_interface.o)
event_TaskQueue                                   ../lib/libmain.a(user_interface.o)
event_cb                                          ../lib/libmain.a(user_interface.o)
                                                  ../lib/libwpa.a(wpa_main.o)
                                                  ../lib/libnet80211.a(wl_cnx.o)
                                                  ../lib/libnet80211.a(ieee80211_sta.o)
                                                  ../lib/libnet80211.a(ieee80211_hostap.o)
fake_main                                         user/.output/eagle/debug/lib/libuser.a(WildDog_Drv.o)
fake_uart_flag                                    ../lib/libat.a(uart.o)
                                                  ../lib/libat.a(at_port.o)
                                                  ../lib/libat.a(at_ipCmd.o)
finished_digest                                   ../lib/libssl.a(ssl_tls1.o)
                                                  ../lib/libssl.a(ssl_tls1_svr.o)
                                                  ../lib/libssl.a(ssl_tls1_clnt.o)
flash_read                                        ../lib/libmain.a(spi_flash.o)
flash_tmp                                         ../lib/libpp.a(pm.o)
                                                  ../lib/libpp.a(pm_for_bcn_only_mode.o)
flashchip                                         ../lib/libpp.a(pp.o)
                                                  ../lib/libpp.a(pm_for_bcn_only_mode.o)
                                                  ../lib/libpp.a(pm.o)
                                                  ../lib/libmain.a(user_interface.o)
                                                  ../lib/libmain.a(spi_flash.o)
                                                  ../lib/libmain.a(mem_manager.o)
                                                  ../lib/libmain.a(app_main.o)
fpm_allow_tx                                      ../lib/libpp.a(pm_for_bcn_only_mode.o)
                                                  ../lib/libnet80211.a(ieee80211_scan.o)
                                                  ../lib/libpp.a(pp.o)
                                                  ../lib/libmain.a(user_interface.o)
fpm_attach                                        ../lib/libpp.a(pm_for_bcn_only_mode.o)
                                                  ../lib/libmain.a(app_main.o)
fpm_auto_sleep_set_in_null_mode                   ../lib/libpp.a(pm_for_bcn_only_mode.o)
fpm_close                                         ../lib/libpp.a(pm_for_bcn_only_mode.o)
                                                  ../lib/libnet80211.a(ieee80211_hostap.o)
                                                  ../lib/libpp.a(pm.o)
fpm_do_sleep                                      ../lib/libpp.a(pm_for_bcn_only_mode.o)
                                                  ../lib/libnet80211.a(ieee80211_hostap.o)
fpm_do_wakeup                                     ../lib/libpp.a(pm_for_bcn_only_mode.o)
                                                  ../lib/libnet80211.a(ieee80211_scan.o)
                                                  ../lib/libpp.a(pp.o)
                                                  ../lib/libmain.a(user_interface.o)
fpm_get_slp_type                                  ../lib/libpp.a(pm_for_bcn_only_mode.o)
fpm_is_open                                       ../lib/libpp.a(pm_for_bcn_only_mode.o)
                                                  ../lib/libnet80211.a(ieee80211_hostap.o)
                                                  ../lib/libpp.a(pm.o)
fpm_open                                          ../lib/libpp.a(pm_for_bcn_only_mode.o)
                                                  ../lib/libnet80211.a(ieee80211_hostap.o)
fpm_rf_is_closed                                  ../lib/libpp.a(pm_for_bcn_only_mode.o)
                                                  ../lib/libpp.a(pp.o)
fpm_set_type_from_upper                           ../lib/libpp.a(pm_for_bcn_only_mode.o)
fpm_set_wakeup_cb                                 ../lib/libpp.a(pm_for_bcn_only_mode.o)
gScanStruct                                       ../lib/libnet80211.a(ieee80211_scan.o)
                                                  ../lib/libnet80211.a(wl_cnx.o)
                                                  ../lib/libnet80211.a(ieee80211_sta.o)
                                                  ../lib/libnet80211.a(ieee80211_hostap.o)
                                                  ../lib/libpp.a(pp.o)
g_ET_TimeOut                                      ../lib/libsmartconfig.a(sc_esptouch.o)
                                                  ../lib/libsmartconfig.a(sc_sniffer.o)
g_SC_Select                                       ../lib/libsmartconfig.a(sc_sniffer.o)
g_cnx_probe_rc_list_cb                            ../lib/libnet80211.a(wl_cnx.o)
g_ic                                              ../lib/libnet80211.a(ieee80211.o)
                                                  ../lib/libnet80211.a(ieee80211_crypto_tkip.o)
                                                  ../lib/libwps.a(wps.o)
                                                  ../lib/libwpa.a(wpa_main.o)
                                                  ../lib/libwpa.a(wpa.o)
                                                  ../lib/libwpa.a(wpa_auth.o)
                                                  ../lib/libwpa.a(ap_config.o)
                                                  ../lib/libnet80211.a(ieee80211_action_vendor.o)
                                                  ../lib/libnet80211.a(wl_cnx.o)
                                                  ../lib/libnet80211.a(wl_chm.o)
                                                  ../lib/libnet80211.a(ieee80211_sta.o)
                                                  ../lib/libnet80211.a(ieee80211_scan.o)
                                                  ../lib/libnet80211.a(ieee80211_rfid.o)
                                                  ../lib/libnet80211.a(ieee80211_proto.o)
                                                  ../lib/libnet80211.a(ieee80211_power.o)
                                                  ../lib/libnet80211.a(ieee80211_phy.o)
                                                  ../lib/libnet80211.a(ieee80211_output.o)
                                                  ../lib/libnet80211.a(ieee80211_mesh_quick.o)
                                                  ../lib/libnet80211.a(ieee80211_input.o)
                                                  ../lib/libnet80211.a(ieee80211_ht.o)
                                                  ../lib/libnet80211.a(ieee80211_hostap.o)
                                                  ../lib/libnet80211.a(ieee80211_crypto.o)
                                                  ../lib/libpp.a(wdev.o)
                                                  ../lib/libpp.a(trc.o)
                                                  ../lib/libpp.a(pp.o)
                                                  ../lib/libpp.a(pm.o)
                                                  ../lib/libpp.a(if_hwctrl.o)
                                                  ../lib/libmain.a(eagle_lwip_if.o)
                                                  ../lib/libmain.a(user_interface.o)
                                                  ../lib/libmain.a(app_main.o)
g_phyFuns                                         ../lib/libphy.a(phy_chip_v6.o)
                                                  ../lib/libpp.a(pm.o)
                                                  ../lib/libphy.a(phy_sleep.o)
                                                  ../lib/libphy.a(phy_chip_v6_cal.o)
                                                  ../lib/libphy.a(phy_chip_v6_ana.o)
gen_rx_gain_table                                 ../lib/libphy.a(phy_chip_v6.o)
generate_master_secret                            ../lib/libssl.a(ssl_tls1.o)
                                                  ../lib/libssl.a(ssl_tls1_svr.o)
                                                  ../lib/libssl.a(ssl_tls1_clnt.o)
getPcb                                            ../lib/liblwip.a(mdns.o)
get_adc_rand                                      ../lib/libphy.a(phy_chip_v6.o)
                                                  ../lib/libphy.a(phy_sleep.o)
get_asn1_length                                   ../lib/libssl.a(ssl_asn1.o)
                                                  ../lib/libssl.a(ssl_x509.o)
get_block_conn                                    ../lib/libat.a(at_ipCmd.o)
                                                  ../lib/libat.a(uart.o)
get_chip_version                                  ../lib/libphy.a(phy_sleep.o)
                                                  ../lib/libphy.a(phy_chip_v6.o)
get_data_from_rtc                                 ../lib/libphy.a(phy_chip_v6.o)
get_dhcp_status                                   ../lib/libat.a(at_wifiCmd.o)
get_fcc_1m2m_pwr_offset                           ../lib/libphy.a(phy_chip_v6_cal.o)
get_file                                          ../lib/libssl.a(ssl_crypto_misc.o)
                                                  ../lib/libssl.a(ssl_loader.o)
get_fpm_auto_sleep_flag                           ../lib/libpp.a(pm_for_bcn_only_mode.o)
                                                  ../lib/libmain.a(user_interface.o)
get_iav_key                                       ../lib/libnet80211.a(ieee80211_action_vendor.o)
get_noisefloor_sat                                ../lib/libphy.a(phy_chip_v6.o)
get_phy_target_power                              ../lib/libphy.a(phy_chip_v6.o)
                                                  ../lib/libphy.a(phy_chip_v6_cal.o)
get_pwctrl_correct                                ../lib/libphy.a(phy_chip_v6_cal.o)
get_random                                        ../lib/libssl.a(ssl_crypto_misc.o)
                                                  ../lib/libssl.a(ssl_tls1_svr.o)
                                                  ../lib/libssl.a(ssl_tls1.o)
                                                  ../lib/libssl.a(ssl_tls1_clnt.o)
get_random_NZ                                     ../lib/libssl.a(ssl_crypto_misc.o)
                                                  ../lib/libssl.a(ssl_rsa.o)
get_rf_gain_qdb                                   ../lib/libphy.a(phy_chip_v6_cal.o)
                                                  ../lib/libphy.a(phy_chip_v6.o)
get_sar_dout                                      ../lib/libphy.a(phy_chip_v6_cal.o)
get_target_power_offset                           ../lib/libphy.a(phy_chip_v6_cal.o)
get_vdd33_offset                                  ../lib/libphy.a(phy_chip_v6.o)
gethost                                           ../lib/libwilddog.a(wilddog_espressif.o)
                                                  user/.output/eagle/debug/lib/libuser.a(WildDog_Drv.o)
gettimeofday                                      ../lib/libssl.a(ssl_os_port.o)
                                                  ../lib/libssl.a(ssl_x509.o)
gpio_output_set                                   ../lib/libnet80211.a(wl_cnx.o)
                                                  ../lib/libnet80211.a(ieee80211_hostap.o)
                                                  ../lib/libphy.a(phy_sleep.o)
                                                  ../lib/libphy.a(phy_chip_v6.o)
                                                  ../lib/libmain.a(user_interface.o)
hardware_reject                                   ../lib/libphy.a(phy_sleep.o)
head                                              ../lib/libwilddog.a(wilddog_espressif.o)
hex2byte                                          ../lib/libwpa.a(common.o)
hex_finish                                        ../lib/libssl.a(ssl_crypto_misc.o)
hex_index                                         ../lib/libssl.a(ssl_crypto_misc.o)
hexstr2bin                                        ../lib/libwpa.a(common.o)
                                                  ../lib/libwps.a(uuid.o)
                                                  ../lib/libwps.a(wps_common.o)
                                                  ../lib/libwpa.a(wpa.o)
                                                  ../lib/libmain.a(user_interface.o)
hmac_md5                                          ../lib/libwpa.a(wpa_common.o)
hmac_sha1                                         ../lib/libwpa.a(wpa_common.o)
hmac_sha1_vector                                  ../lib/libwpa.a(wpa_common.o)
hmac_sha256                                       ../lib/libcrypto.a(sha256.o)
                                                  ../lib/libwps.a(wps_attr_process.o)
                                                  ../lib/libwps.a(wps_attr_build.o)
                                                  ../lib/libwps.a(wps_common.o)
hmac_sha256_vector                                ../lib/libcrypto.a(sha256.o)
                                                  ../lib/libwps.a(wps_attr_process.o)
                                                  ../lib/libwps.a(wps_attr_build.o)
                                                  ../lib/libwps.a(wps_registrar.o)
                                                  ../lib/libwps.a(wps_enrollee.o)
                                                  ../lib/libwps.a(wps_common.o)
hostap_handle_timer                               ../lib/libnet80211.a(ieee80211_hostap.o)
hostap_input                                      ../lib/libnet80211.a(ieee80211_hostap.o)
                                                  ../lib/libpp.a(pp.o)
hostapd_config_defaults                           ../lib/libwpa.a(ap_config.o)
hostapd_config_defaults_bss                       ../lib/libwpa.a(ap_config.o)
hostapd_get_psk                                   ../lib/libwpa.a(ap_config.o)
                                                  ../lib/libwpa.a(wpa_auth.o)
hostapd_mac_comp                                  ../lib/libwpa.a(ap_config.o)
hostapd_mac_comp_empty                            ../lib/libwpa.a(ap_config.o)
hostapd_maclist_found                             ../lib/libwpa.a(ap_config.o)
hostapd_rate_found                                ../lib/libwpa.a(ap_config.o)
hostapd_setup_wpa_psk                             ../lib/libwpa.a(ap_config.o)
                                                  ../lib/libnet80211.a(ieee80211_hostap.o)
hostapd_wep_key_cmp                               ../lib/libwpa.a(ap_config.o)
hostname                                          ../lib/libmain.a(eagle_lwip_if.o)
                                                  ../lib/libmain.a(user_interface.o)
ic_bss_info_update                                ../lib/libpp.a(if_hwctrl.o)
                                                  ../lib/libnet80211.a(ieee80211_sta.o)
                                                  ../lib/libnet80211.a(ieee80211_hostap.o)
ic_disable_interface                              ../lib/libpp.a(if_hwctrl.o)
ic_enable_interface                               ../lib/libpp.a(if_hwctrl.o)
ic_get_addr                                       ../lib/libpp.a(if_hwctrl.o)
                                                  ../lib/libpp.a(pm.o)
ic_get_gtk_alg                                    ../lib/libpp.a(if_hwctrl.o)
                                                  ../lib/libpp.a(pp.o)
ic_get_ptk_alg                                    ../lib/libpp.a(if_hwctrl.o)
                                                  ../lib/libpp.a(pp.o)
ic_get_rssi                                       ../lib/libpp.a(if_hwctrl.o)
                                                  ../lib/libmain.a(user_interface.o)
ic_interface_enabled                              ../lib/libpp.a(if_hwctrl.o)
ic_interface_is_p2p                               ../lib/libpp.a(if_hwctrl.o)
ic_is_pure_sta                                    ../lib/libpp.a(if_hwctrl.o)
                                                  ../lib/libpp.a(pp.o)
ic_remove_key                                     ../lib/libpp.a(if_hwctrl.o)
                                                  ../lib/libwpa.a(wpa_auth.o)
ic_set_gtk_alg                                    ../lib/libpp.a(if_hwctrl.o)
ic_set_key                                        ../lib/libpp.a(if_hwctrl.o)
                                                  ../lib/libwpa.a(wpa_main.o)
                                                  ../lib/libwpa.a(wpa_auth.o)
ic_set_opmode                                     ../lib/libpp.a(if_hwctrl.o)
ic_set_ptk_alg                                    ../lib/libpp.a(if_hwctrl.o)
ic_set_sta                                        ../lib/libpp.a(if_hwctrl.o)
                                                  ../lib/libnet80211.a(wl_cnx.o)
ic_set_vif                                        ../lib/libpp.a(if_hwctrl.o)
                                                  ../lib/libnet80211.a(ieee80211_sta.o)
                                                  ../lib/libnet80211.a(ieee80211_hostap.o)
                                                  ../lib/libmain.a(user_interface.o)
icmp_dest_unreach                                 ../lib/liblwip.a(icmp.o)
                                                  ../lib/liblwip.a(udp.o)
                                                  ../lib/liblwip.a(ip.o)
icmp_input                                        ../lib/liblwip.a(icmp.o)
                                                  ../lib/liblwip.a(ip.o)
idle_timer_reopen_flag                            ../lib/libpp.a(pp.o)
                                                  ../lib/libpp.a(pm.o)
ieee80211_action_vendor_spec_attach               ../lib/libnet80211.a(ieee80211_action_vendor.o)
                                                  ../lib/libnet80211.a(ieee80211.o)
ieee80211_add_action_vendor_spec_esp              ../lib/libnet80211.a(ieee80211_action_vendor.o)
ieee80211_add_htcap                               ../lib/libnet80211.a(ieee80211_ht.o)
                                                  ../lib/libnet80211.a(ieee80211_output.o)
ieee80211_add_htcap_vendor                        ../lib/libnet80211.a(ieee80211_ht.o)
                                                  ../lib/libnet80211.a(ieee80211_output.o)
ieee80211_add_htinfo                              ../lib/libnet80211.a(ieee80211_ht.o)
                                                  ../lib/libnet80211.a(ieee80211_output.o)
ieee80211_add_htinfo_vendor                       ../lib/libnet80211.a(ieee80211_ht.o)
                                                  ../lib/libnet80211.a(ieee80211_output.o)
ieee80211_add_ie_vendor_esp_freq_annon            ../lib/libnet80211.a(ieee80211_ie_vendor.o)
                                                  ../lib/libnet80211.a(ieee80211_output.o)
ieee80211_add_ie_vendor_esp_head                  ../lib/libnet80211.a(ieee80211_ie_vendor.o)
ieee80211_add_ie_vendor_esp_manufacturer          ../lib/libnet80211.a(ieee80211_ie_vendor.o)
                                                  ../lib/libnet80211.a(ieee80211_output.o)
ieee80211_add_ie_vendor_esp_mesh_assoc            ../lib/libnet80211.a(ieee80211_ie_vendor.o)
                                                  ../lib/libnet80211.a(ieee80211_mesh_quick.o)
ieee80211_add_ie_vendor_esp_mesh_group            ../lib/libnet80211.a(ieee80211_ie_vendor.o)
ieee80211_add_ie_vendor_esp_now                   ../lib/libnet80211.a(ieee80211_ie_vendor.o)
                                                  ../lib/libnet80211.a(ieee80211_action_vendor.o)
ieee80211_add_ie_vendor_esp_simple_pair           ../lib/libnet80211.a(ieee80211_ie_vendor.o)
ieee80211_add_ie_vendor_esp_ssid                  ../lib/libnet80211.a(ieee80211_ie_vendor.o)
                                                  ../lib/libnet80211.a(ieee80211_output.o)
ieee80211_add_rates                               ../lib/libnet80211.a(ieee80211_output.o)
ieee80211_add_xrates                              ../lib/libnet80211.a(ieee80211_output.o)
ieee80211_alloc_action_vendor_spec                ../lib/libnet80211.a(ieee80211_action_vendor.o)
ieee80211_alloc_challenge                         ../lib/libnet80211.a(ieee80211_input.o)
                                                  ../lib/libnet80211.a(ieee80211_sta.o)
ieee80211_alloc_deauth                            ../lib/libnet80211.a(ieee80211_output.o)
ieee80211_alloc_proberesp                         ../lib/libnet80211.a(ieee80211_output.o)
ieee80211_beacon_alloc                            ../lib/libnet80211.a(ieee80211_output.o)
                                                  ../lib/libnet80211.a(ieee80211_hostap.o)
ieee80211_chan2ieee                               ../lib/libnet80211.a(ieee80211.o)
                                                  ../lib/libnet80211.a(wl_chm.o)
                                                  ../lib/libnet80211.a(ieee80211_scan.o)
                                                  ../lib/libnet80211.a(ieee80211_output.o)
                                                  ../lib/libnet80211.a(ieee80211_input.o)
                                                  ../lib/libnet80211.a(ieee80211_ht.o)
                                                  ../lib/libnet80211.a(ieee80211_hostap.o)
ieee80211_crypto_attach                           ../lib/libnet80211.a(ieee80211_crypto.o)
                                                  ../lib/libnet80211.a(ieee80211.o)
ieee80211_crypto_available                        ../lib/libnet80211.a(ieee80211_crypto.o)
ieee80211_crypto_decap                            ../lib/libnet80211.a(ieee80211_crypto.o)
                                                  ../lib/libnet80211.a(ieee80211_sta.o)
                                                  ../lib/libnet80211.a(ieee80211_hostap.o)
ieee80211_crypto_encap                            ../lib/libnet80211.a(ieee80211_crypto.o)
                                                  ../lib/libnet80211.a(ieee80211_output.o)
ieee80211_crypto_setkey                           ../lib/libnet80211.a(ieee80211_crypto.o)
ieee80211_decap                                   ../lib/libnet80211.a(ieee80211_input.o)
                                                  ../lib/libnet80211.a(ieee80211_sta.o)
                                                  ../lib/libnet80211.a(ieee80211_hostap.o)
ieee80211_deliver_data                            ../lib/libnet80211.a(ieee80211_input.o)
                                                  ../lib/libnet80211.a(ieee80211_sta.o)
ieee80211_find_channel                            ../lib/libnet80211.a(ieee80211.o)
                                                  ../lib/libnet80211.a(ieee80211_ht.o)
ieee80211_find_channel_byieee                     ../lib/libnet80211.a(ieee80211.o)
ieee80211_freedom_init                            ../lib/libnet80211.a(ieee80211.o)
ieee80211_freedom_inside_cb                       ../lib/libnet80211.a(ieee80211.o)
ieee80211_freedom_output                          ../lib/libnet80211.a(ieee80211_output.o)
                                                  ../lib/libmain.a(user_interface.o)
ieee80211_getcapinfo                              ../lib/libnet80211.a(ieee80211_output.o)
ieee80211_getmgtframe                             ../lib/libnet80211.a(ieee80211_ets.o)
                                                  ../lib/libnet80211.a(ieee80211_action_vendor.o)
                                                  ../lib/libnet80211.a(ieee80211_output.o)
                                                  ../lib/libnet80211.a(ieee80211_ht.o)
                                                  ../lib/libpp.a(pm.o)
ieee80211_hostap_attach                           ../lib/libnet80211.a(ieee80211_hostap.o)
ieee80211_ht_attach                               ../lib/libnet80211.a(ieee80211_ht.o)
                                                  ../lib/libnet80211.a(ieee80211.o)
                                                  ../lib/libmain.a(user_interface.o)
ieee80211_ht_node_cleanup                         ../lib/libnet80211.a(ieee80211_ht.o)
ieee80211_ht_node_init                            ../lib/libnet80211.a(ieee80211_ht.o)
                                                  ../lib/libnet80211.a(ieee80211_sta.o)
ieee80211_ht_updateparams                         ../lib/libnet80211.a(ieee80211_ht.o)
                                                  ../lib/libnet80211.a(wl_cnx.o)
                                                  ../lib/libnet80211.a(ieee80211_sta.o)
ieee80211_ieee2mhz                                ../lib/libnet80211.a(ieee80211.o)
ieee80211_ifattach                                ../lib/libnet80211.a(ieee80211.o)
                                                  ../lib/libmain.a(app_main.o)
ieee80211_iserp_rateset                           ../lib/libnet80211.a(ieee80211_proto.o)
ieee80211_mesh_quick_deinit                       ../lib/libnet80211.a(ieee80211_mesh_quick.o)
ieee80211_mesh_quick_get                          ../lib/libnet80211.a(ieee80211_mesh_quick.o)
                                                  ../lib/libnet80211.a(ieee80211_output.o)
                                                  ../lib/libnet80211.a(ieee80211_hostap.o)
ieee80211_mesh_quick_ie_add                       ../lib/libnet80211.a(ieee80211_mesh_quick.o)
                                                  ../lib/libnet80211.a(ieee80211_output.o)
ieee80211_mesh_quick_init                         ../lib/libnet80211.a(ieee80211_mesh_quick.o)
ieee80211_mesh_quick_set                          ../lib/libnet80211.a(ieee80211_mesh_quick.o)
ieee80211_mgmt_output                             ../lib/libnet80211.a(ieee80211_output.o)
                                                  ../lib/libnet80211.a(ieee80211_ht.o)
ieee80211_mhz2ieee                                ../lib/libnet80211.a(ieee80211.o)
ieee80211_mlme_connect_bss                        ../lib/libnet80211.a(ieee80211_proto.o)
                                                  ../lib/libnet80211.a(wl_cnx.o)
ieee80211_node_pwrsave                            ../lib/libnet80211.a(ieee80211_power.o)
                                                  ../lib/libnet80211.a(ieee80211_hostap.o)
ieee80211_opcap                                   ../lib/libnet80211.a(ieee80211.o)
ieee80211_output_pbuf                             ../lib/libnet80211.a(ieee80211_output.o)
                                                  ../lib/libwps.a(wps.o)
                                                  ../lib/libwpa.a(wpa_main.o)
                                                  ../lib/libwpa.a(wpa_auth.o)
                                                  ../lib/libnet80211.a(ieee80211_hostap.o)
                                                  ../lib/libmain.a(eagle_lwip_if.o)
ieee80211_parse_action                            ../lib/libnet80211.a(ieee80211_input.o)
                                                  ../lib/libnet80211.a(ieee80211_sta.o)
ieee80211_parse_beacon                            ../lib/libnet80211.a(ieee80211_input.o)
                                                  ../lib/libnet80211.a(ieee80211_sta.o)
                                                  ../lib/libnet80211.a(ieee80211_hostap.o)
ieee80211_parse_htcap                             ../lib/libnet80211.a(ieee80211_ht.o)
ieee80211_parse_rsn                               ../lib/libnet80211.a(ieee80211_input.o)
                                                  ../lib/libnet80211.a(ieee80211_scan.o)
ieee80211_parse_wmeparams                         ../lib/libnet80211.a(ieee80211_sta.o)
                                                  ../lib/libnet80211.a(wl_cnx.o)
ieee80211_parse_wpa                               ../lib/libnet80211.a(ieee80211_input.o)
                                                  ../lib/libnet80211.a(ieee80211_scan.o)
ieee80211_phy_init                                ../lib/libnet80211.a(ieee80211_phy.o)
                                                  ../lib/libmain.a(user_interface.o)
                                                  ../lib/libmain.a(app_main.o)
ieee80211_phy_type_get                            ../lib/libnet80211.a(ieee80211_phy.o)
                                                  ../lib/libnet80211.a(wl_cnx.o)
ieee80211_proto_attach                            ../lib/libnet80211.a(ieee80211_proto.o)
                                                  ../lib/libnet80211.a(ieee80211.o)
ieee80211_psq_cleanup                             ../lib/libnet80211.a(ieee80211_power.o)
ieee80211_psq_init                                ../lib/libnet80211.a(ieee80211_power.o)
                                                  ../lib/libnet80211.a(ieee80211_hostap.o)
ieee80211_pwrsave                                 ../lib/libnet80211.a(ieee80211_power.o)
                                                  ../lib/libnet80211.a(ieee80211_output.o)
ieee80211_rate_ref_init                           ../lib/libnet80211.a(ieee80211.o)
ieee80211_recv_action                             ../lib/libnet80211.a(ieee80211_action.o)
                                                  ../lib/libnet80211.a(ieee80211_sta.o)
                                                  ../lib/libnet80211.a(ieee80211_hostap.o)
ieee80211_recv_action_register                    ../lib/libnet80211.a(ieee80211_action.o)
                                                  ../lib/libnet80211.a(ieee80211_action_vendor.o)
                                                  ../lib/libnet80211.a(ieee80211_ht.o)
ieee80211_recv_action_unregister                  ../lib/libnet80211.a(ieee80211_action.o)
ieee80211_recv_action_vendor_spec                 ../lib/libnet80211.a(ieee80211_action_vendor.o)
ieee80211_rfid_locp_recv                          ../lib/libnet80211.a(ieee80211_rfid.o)
                                                  ../lib/libnet80211.a(ieee80211_hostap.o)
ieee80211_rfid_locp_recv_close                    ../lib/libnet80211.a(ieee80211_rfid.o)
                                                  ../lib/libmain.a(user_interface.o)
ieee80211_rfid_locp_recv_open                     ../lib/libnet80211.a(ieee80211_rfid.o)
                                                  ../lib/libmain.a(user_interface.o)
ieee80211_rfid_locp_recv_reset                    ../lib/libnet80211.a(ieee80211_rfid.o)
                                                  ../lib/libnet80211.a(ieee80211.o)
ieee80211_scan_attach                             ../lib/libnet80211.a(ieee80211_scan.o)
                                                  ../lib/libnet80211.a(ieee80211.o)
ieee80211_send_action                             ../lib/libnet80211.a(ieee80211_action.o)
                                                  ../lib/libnet80211.a(ieee80211_ht.o)
ieee80211_send_action_register                    ../lib/libnet80211.a(ieee80211_action.o)
                                                  ../lib/libnet80211.a(ieee80211_ht.o)
ieee80211_send_action_unregister                  ../lib/libnet80211.a(ieee80211_action.o)
ieee80211_send_action_vendor_spec                 ../lib/libnet80211.a(ieee80211_action_vendor.o)
ieee80211_send_deauth                             ../lib/libnet80211.a(ieee80211_output.o)
                                                  ../lib/libnet80211.a(ieee80211_hostap.o)
ieee80211_send_mgmt                               ../lib/libnet80211.a(ieee80211_output.o)
                                                  ../lib/libwpa.a(wpa_main.o)
                                                  ../lib/libnet80211.a(wl_cnx.o)
                                                  ../lib/libnet80211.a(ieee80211_sta.o)
                                                  ../lib/libnet80211.a(ieee80211_hostap.o)
                                                  ../lib/libmain.a(user_interface.o)
ieee80211_send_nulldata                           ../lib/libnet80211.a(ieee80211_output.o)
                                                  ../lib/libnet80211.a(ieee80211_hostap.o)
ieee80211_send_probereq                           ../lib/libnet80211.a(ieee80211_output.o)
                                                  ../lib/libnet80211.a(wl_cnx.o)
                                                  ../lib/libnet80211.a(ieee80211_scan.o)
ieee80211_send_proberesp                          ../lib/libnet80211.a(ieee80211_output.o)
                                                  ../lib/libnet80211.a(ieee80211_hostap.o)
ieee80211_send_setup                              ../lib/libnet80211.a(ieee80211_output.o)
                                                  ../lib/libnet80211.a(ieee80211_action_vendor.o)
                                                  ../lib/libpp.a(pm.o)
ieee80211_set_shortslottime                       ../lib/libnet80211.a(ieee80211_proto.o)
                                                  ../lib/libnet80211.a(wl_cnx.o)
                                                  ../lib/libnet80211.a(ieee80211_sta.o)
ieee80211_set_tim                                 ../lib/libnet80211.a(ieee80211_power.o)
                                                  ../lib/libnet80211.a(ieee80211_hostap.o)
ieee80211_setup_basic_htrates                     ../lib/libnet80211.a(ieee80211_ht.o)
                                                  ../lib/libnet80211.a(ieee80211_sta.o)
ieee80211_setup_htrates                           ../lib/libnet80211.a(ieee80211_ht.o)
                                                  ../lib/libnet80211.a(ieee80211_sta.o)
ieee80211_setup_rates                             ../lib/libnet80211.a(ieee80211_input.o)
                                                  ../lib/libnet80211.a(ieee80211_sta.o)
                                                  ../lib/libnet80211.a(ieee80211_hostap.o)
ieee80211_setup_rateset                           ../lib/libnet80211.a(ieee80211_input.o)
                                                  ../lib/libnet80211.a(wl_cnx.o)
ieee80211_setup_ratetable                         ../lib/libnet80211.a(ieee80211_phy.o)
ieee80211_sta_new_state                           ../lib/libnet80211.a(ieee80211_sta.o)
                                                  ../lib/libwpa.a(wpa_main.o)
                                                  ../lib/libnet80211.a(wl_cnx.o)
                                                  ../lib/libnet80211.a(ieee80211_proto.o)
                                                  ../lib/libmain.a(user_interface.o)
ieee80211_tx_mgt_cb                               ../lib/libnet80211.a(ieee80211_output.o)
                                                  ../lib/libnet80211.a(ieee80211_proto.o)
ieee80211_user_ie_init                            ../lib/libnet80211.a(ieee80211.o)
ieee80211_wme_initparams                          ../lib/libnet80211.a(ieee80211_proto.o)
ieee80211_wme_updateparams                        ../lib/libnet80211.a(ieee80211_proto.o)
                                                  ../lib/libnet80211.a(wl_cnx.o)
                                                  ../lib/libnet80211.a(ieee80211_sta.o)
if_ctrl                                           ../lib/libpp.a(if_hwctrl.o)
igmp_init                                         ../lib/liblwip.a(igmp.o)
                                                  ../lib/liblwip.a(init.o)
igmp_input                                        ../lib/liblwip.a(igmp.o)
                                                  ../lib/liblwip.a(ip.o)
igmp_joingroup                                    ../lib/liblwip.a(igmp.o)
                                                  ../lib/liblwip.a(mdns.o)
                                                  ../lib/liblwip.a(espconn_udp.o)
igmp_leavegroup                                   ../lib/liblwip.a(igmp.o)
                                                  ../lib/liblwip.a(mdns.o)
                                                  ../lib/liblwip.a(espconn_udp.o)
igmp_lookfor_group                                ../lib/liblwip.a(igmp.o)
                                                  ../lib/liblwip.a(ip.o)
igmp_report_groups                                ../lib/liblwip.a(igmp.o)
                                                  ../lib/liblwip.a(netif.o)
igmp_start                                        ../lib/liblwip.a(igmp.o)
                                                  ../lib/liblwip.a(netif.o)
igmp_stop                                         ../lib/liblwip.a(igmp.o)
                                                  ../lib/liblwip.a(netif.o)
igmp_tmr                                          ../lib/liblwip.a(igmp.o)
                                                  ../lib/liblwip.a(timers.o)
inc_byte_array                                    ../lib/libwpa.a(common.o)
                                                  ../lib/libwpa.a(wpa.o)
                                                  ../lib/libwpa.a(wpa_auth.o)
inet_chksum                                       ../lib/liblwip.a(inet_chksum.o)
                                                  ../lib/liblwip.a(icmp.o)
                                                  ../lib/liblwip.a(ping.o)
                                                  ../lib/liblwip.a(ip.o)
                                                  ../lib/liblwip.a(igmp.o)
inet_chksum_pbuf                                  ../lib/liblwip.a(inet_chksum.o)
                                                  ../lib/liblwip.a(icmp.o)
inet_chksum_pseudo                                ../lib/liblwip.a(inet_chksum.o)
                                                  ../lib/liblwip.a(udp.o)
                                                  ../lib/liblwip.a(tcp_out.o)
                                                  ../lib/liblwip.a(tcp_in.o)
inet_chksum_pseudo_partial                        ../lib/liblwip.a(inet_chksum.o)
info                                              ../lib/libmain.a(app_main.o)
                                                  ../lib/libwpa.a(wpa_main.o)
                                                  ../lib/libnet80211.a(ieee80211_sta.o)
                                                  ../lib/libnet80211.a(ieee80211_hostap.o)
                                                  ../lib/libnet80211.a(ieee80211.o)
                                                  ../lib/libmain.a(user_interface.o)
init_cal_dcoffset                                 ../lib/libphy.a(phy_chip_v6_cal.o)
                                                  ../lib/libphy.a(phy_chip_v6.o)
init_rf_no_cal                                    ../lib/libphy.a(phy_chip_v6.o)
                                                  ../lib/libphy.a(phy_chip_v6_ana.o)
int_to_bi                                         ../lib/libssl.a(ssl_bigint.o)
interface_mask                                    ../lib/libpp.a(if_hwctrl.o)
ip4_addr_isbroadcast                              ../lib/liblwip.a(ip_addr.o)
                                                  ../lib/liblwip.a(icmp.o)
                                                  ../lib/liblwip.a(udp.o)
                                                  ../lib/liblwip.a(tcp_in.o)
                                                  ../lib/liblwip.a(ip.o)
                                                  ../lib/liblwip.a(etharp.o)
                                                  ../lib/liblwip.a(espconn_udp.o)
ip4_addr_netmask_valid                            ../lib/liblwip.a(ip_addr.o)
ip_addr_any                                       ../lib/liblwip.a(ip_addr.o)
                                                  ../lib/libssl.a(espconn_ssl.o)
                                                  ../lib/liblwip.a(ping.o)
                                                  ../lib/liblwip.a(mdns.o)
                                                  ../lib/liblwip.a(igmp.o)
                                                  ../lib/liblwip.a(espconn_udp.o)
                                                  ../lib/liblwip.a(espconn_tcp.o)
                                                  ../lib/liblwip.a(dns.o)
                                                  ../lib/liblwip.a(dhcpserver.o)
                                                  ../lib/liblwip.a(dhcp.o)
ip_addr_broadcast                                 ../lib/liblwip.a(ip_addr.o)
                                                  ../lib/liblwip.a(dhcp.o)
ip_input                                          ../lib/liblwip.a(ip.o)
                                                  ../lib/liblwip.a(etharp.o)
ip_output                                         ../lib/liblwip.a(ip.o)
                                                  ../lib/liblwip.a(icmp.o)
                                                  ../lib/liblwip.a(tcp_out.o)
ip_output_if                                      ../lib/liblwip.a(ip.o)
                                                  ../lib/liblwip.a(icmp.o)
                                                  ../lib/liblwip.a(udp.o)
                                                  ../lib/liblwip.a(raw.o)
ip_output_if_opt                                  ../lib/liblwip.a(ip.o)
                                                  ../lib/liblwip.a(igmp.o)
ip_route                                          ../lib/liblwip.a(ip.o)
                                                  ../lib/liblwip.a(udp.o)
                                                  ../lib/liblwip.a(tcp_out.o)
                                                  ../lib/liblwip.a(tcp.o)
                                                  ../lib/liblwip.a(raw.o)
ip_router                                         ../lib/liblwip.a(ip.o)
ipaddr_addr                                       ../lib/liblwip.a(ip_addr.o)
                                                  ../lib/liblwip.a(mdns.o)
                                                  ../lib/liblwip.a(dns.o)
                                                  ../lib/libat.a(at_wifiCmd.o)
                                                  ../lib/libat.a(at_ipCmd.o)
ipaddr_aton                                       ../lib/liblwip.a(ip_addr.o)
ipaddr_ntoa                                       ../lib/liblwip.a(ip_addr.o)
ipaddr_ntoa_r                                     ../lib/liblwip.a(ip_addr.o)
                                                  ../lib/liblwip.a(ping.o)
is_nil_uuid                                       ../lib/libwps.a(uuid.o)
islower                                           /opt/xtensa-lx106-elf/bin/../lib/gcc/xtensa-lx106-elf/4.8.2/libc.a(islower.o)
                                                  ../lib/libat.a(at_wifiCmd.o)
kill_ssl_session                                  ../lib/libssl.a(ssl_tls1.o)
lan_buf                                           user/.output/eagle/debug/lib/libuser.a(AirKiss_Drv.o)
lan_buf_len                                       user/.output/eagle/debug/lib/libuser.a(AirKiss_Drv.o)
last_byte_time                                    ../lib/libat.a(at_port.o)
                                                  ../lib/libat.a(at_ipCmd.o)
lldesc_build_chain                                ../lib/libpp.a(wdev.o)
lldesc_num2link                                   ../lib/libpp.a(pp.o)
lmacConfMib                                       ../lib/libpp.a(lmac.o)
                                                  ../lib/libpp.a(trc.o)
lmacDiscardAgedMSDU                               ../lib/libpp.a(lmac.o)
                                                  ../lib/libpp.a(pp.o)
lmacInit                                          ../lib/libpp.a(lmac.o)
                                                  ../lib/libmain.a(app_main.o)
lmacInitAc                                        ../lib/libpp.a(lmac.o)
lmacIsActive                                      ../lib/libpp.a(lmac.o)
lmacIsIdle                                        ../lib/libpp.a(lmac.o)
                                                  ../lib/libpp.a(pp.o)
lmacMSDUAged                                      ../lib/libpp.a(lmac.o)
                                                  ../lib/libpp.a(pp.o)
lmacProcessAckTimeout                             ../lib/libpp.a(lmac.o)
                                                  ../lib/libpp.a(wdev.o)
lmacProcessAllTxTimeout                           ../lib/libpp.a(lmac.o)
                                                  ../lib/libpp.a(wdev.o)
lmacProcessCollision                              ../lib/libpp.a(lmac.o)
lmacProcessCollisions                             ../lib/libpp.a(lmac.o)
                                                  ../lib/libpp.a(wdev.o)
lmacProcessCtsTimeout                             ../lib/libpp.a(lmac.o)
                                                  ../lib/libpp.a(wdev.o)
lmacProcessRtsStart                               ../lib/libpp.a(lmac.o)
                                                  ../lib/libpp.a(wdev.o)
lmacProcessTXStartData                            ../lib/libpp.a(lmac.o)
                                                  ../lib/libpp.a(wdev.o)
lmacProcessTxError                                ../lib/libpp.a(lmac.o)
                                                  ../lib/libpp.a(wdev.o)
lmacProcessTxRtsError                             ../lib/libpp.a(lmac.o)
                                                  ../lib/libpp.a(wdev.o)
lmacProcessTxSuccess                              ../lib/libpp.a(lmac.o)
                                                  ../lib/libpp.a(wdev.o)
lmacProcessTxTimeout                              ../lib/libpp.a(lmac.o)
                                                  ../lib/libpp.a(pp.o)
lmacRecycleMPDU                                   ../lib/libpp.a(lmac.o)
lmacRxDone                                        ../lib/libpp.a(lmac.o)
                                                  ../lib/libpp.a(wdev.o)
lmacSetAcParam                                    ../lib/libpp.a(lmac.o)
lmacSetRetryLimit                                 ../lib/libpp.a(lmac.o)
lmacTxFrame                                       ../lib/libpp.a(lmac.o)
                                                  ../lib/libpp.a(pp.o)
load_key_certs                                    ../lib/libssl.a(ssl_loader.o)
                                                  ../lib/libssl.a(ssl_tls1.o)
low_power_set                                     ../lib/libphy.a(phy_chip_v6_ana.o)
                                                  ../lib/libphy.a(phy_chip_v6.o)
lslp_mem_opt_8266                                 ../lib/libphy.a(phy_sleep.o)
lwip_init                                         ../lib/liblwip.a(init.o)
                                                  ../lib/libmain.a(app_main.o)
lwip_timer_interval                               ../lib/libmain.a(app_main.o)
                                                  ../lib/libpp.a(pm.o)
mdState                                           ../lib/libat.a(at_wifiCmd.o)
                                                  ../lib/libat.a(at_ipCmd.o)
mdns_close                                        ../lib/liblwip.a(mdns.o)
                                                  ../lib/liblwip.a(espconn_mdns.o)
mdns_disable                                      ../lib/liblwip.a(mdns.o)
                                                  ../lib/liblwip.a(espconn_mdns.o)
mdns_enable                                       ../lib/liblwip.a(mdns.o)
                                                  ../lib/liblwip.a(espconn_mdns.o)
mdns_get_hostname                                 ../lib/liblwip.a(mdns.o)
                                                  ../lib/liblwip.a(espconn_mdns.o)
mdns_get_servername                               ../lib/liblwip.a(mdns.o)
                                                  ../lib/liblwip.a(espconn_mdns.o)
mdns_init                                         ../lib/liblwip.a(mdns.o)
                                                  ../lib/liblwip.a(espconn_mdns.o)
mdns_reg                                          ../lib/liblwip.a(mdns.o)
mdns_server_register                              ../lib/liblwip.a(mdns.o)
                                                  ../lib/liblwip.a(espconn_mdns.o)
mdns_server_unregister                            ../lib/liblwip.a(mdns.o)
                                                  ../lib/liblwip.a(espconn_mdns.o)
mdns_set_hostname                                 ../lib/liblwip.a(mdns.o)
                                                  ../lib/liblwip.a(espconn_mdns.o)
mdns_set_name                                     ../lib/liblwip.a(mdns.o)
mdns_set_servername                               ../lib/liblwip.a(mdns.o)
                                                  ../lib/liblwip.a(espconn_mdns.o)
mdns_timer                                        ../lib/liblwip.a(mdns.o)
meas_tone_pwr_db                                  ../lib/libphy.a(phy_chip_v6_cal.o)
memcmp                                            /opt/xtensa-lx106-elf/bin/../lib/gcc/xtensa-lx106-elf/4.8.2/libc.a(memcmp.o)
                                                  ../lib/libssl.a(ssl_tls1.o)
                                                  user/.output/eagle/debug/lib/libuser.a(AirKiss_Drv.o)
memcpy                                            /opt/xtensa-lx106-elf/bin/../lib/gcc/xtensa-lx106-elf/4.8.2/libc.a(memcpy.o)
                                                  ../lib/libcrypto.a(bignum.o)
                                                  ../lib/libwilddog.a(pdu.o)
                                                  ../lib/libwps.a(wps_common.o)
                                                  ../lib/libssl.a(ssl_sha1.o)
                                                  ../lib/libssl.a(ssl_tls1.o)
                                                  user/.output/eagle/debug/lib/libuser.a(WildDog_Drv.o)
                                                  user/.output/eagle/debug/lib/libuser.a(AirKiss_Drv.o)
                                                  user/.output/eagle/debug/lib/libuser.a(AtCmd_Drv.o)
memp_sizes                                        ../lib/liblwip.a(memp.o)
                                                  ../lib/liblwip.a(udp.o)
                                                  ../lib/liblwip.a(timers.o)
                                                  ../lib/liblwip.a(tcp_out.o)
                                                  ../lib/liblwip.a(tcp.o)
                                                  ../lib/liblwip.a(raw.o)
                                                  ../lib/liblwip.a(pbuf.o)
                                                  ../lib/liblwip.a(igmp.o)
                                                  ../lib/liblwip.a(etharp.o)
memp_sizes_test                                   ../lib/liblwip.a(memp.o)
memset                                            /opt/xtensa-lx106-elf/bin/../lib/gcc/xtensa-lx106-elf/4.8.2/libc.a(memset.o)
                                                  user/.output/eagle/debug/lib/libuser.a(Serial_Drv.o)
                                                  user/.output/eagle/debug/lib/libuser.a(WildDog_Drv.o)
                                                  user/.output/eagle/debug/lib/libuser.a(AirKiss_Drv.o)
my_wifi_is_binding_on                             user/.output/eagle/debug/lib/libuser.a(WifiInterface.o)
                                                  user/.output/eagle/debug/lib/libuser.a(GizCmdTest.o)
my_wifi_is_config_mode_on                         user/.output/eagle/debug/lib/libuser.a(WifiInterface.o)
                                                  user/.output/eagle/debug/lib/libuser.a(GizCmdTest.o)
my_wifi_is_connect_cloud                          user/.output/eagle/debug/lib/libuser.a(WifiInterface.o)
                                                  user/.output/eagle/debug/lib/libuser.a(GizCmdTest.o)
need_save_flag                                    ../lib/libat.a(at_ipCmd.o)
                                                  ../lib/libat.a(at_wifiCmd.o)
netif_add                                         ../lib/liblwip.a(netif.o)
                                                  ../lib/libmain.a(eagle_lwip_if.o)
netif_default                                     ../lib/liblwip.a(netif.o)
                                                  ../lib/liblwip.a(ip.o)
                                                  ../lib/libmain.a(user_interface.o)
netif_find                                        ../lib/liblwip.a(netif.o)
netif_init                                        ../lib/liblwip.a(netif.o)
                                                  ../lib/liblwip.a(init.o)
netif_list                                        ../lib/liblwip.a(netif.o)
                                                  ../lib/liblwip.a(ip.o)
                                                  ../lib/liblwip.a(igmp.o)
                                                  ../lib/liblwip.a(dhcp.o)
netif_remove                                      ../lib/liblwip.a(netif.o)
                                                  ../lib/libmain.a(eagle_lwip_if.o)
netif_set_addr                                    ../lib/liblwip.a(netif.o)
                                                  ../lib/libwpa.a(wpa_main.o)
                                                  ../lib/libmain.a(eagle_lwip_if.o)
                                                  ../lib/libmain.a(user_interface.o)
netif_set_default                                 ../lib/liblwip.a(netif.o)
                                                  ../lib/liblwip.a(mdns.o)
                                                  ../lib/liblwip.a(espconn_udp.o)
                                                  ../lib/libnet80211.a(ieee80211_hostap.o)
                                                  ../lib/libmain.a(user_interface.o)
                                                  ../lib/libmain.a(app_main.o)
netif_set_down                                    ../lib/liblwip.a(netif.o)
                                                  ../lib/liblwip.a(dhcp.o)
                                                  ../lib/libnet80211.a(wl_cnx.o)
                                                  ../lib/libnet80211.a(ieee80211_hostap.o)
netif_set_gw                                      ../lib/liblwip.a(netif.o)
                                                  ../lib/liblwip.a(dhcp.o)
netif_set_ipaddr                                  ../lib/liblwip.a(netif.o)
                                                  ../lib/liblwip.a(dhcp.o)
netif_set_link_down                               ../lib/liblwip.a(netif.o)
netif_set_link_up                                 ../lib/liblwip.a(netif.o)
netif_set_netmask                                 ../lib/liblwip.a(netif.o)
                                                  ../lib/liblwip.a(dhcp.o)
netif_set_up                                      ../lib/liblwip.a(netif.o)
                                                  ../lib/libwpa.a(wpa_main.o)
                                                  ../lib/liblwip.a(dhcp.o)
                                                  ../lib/libnet80211.a(ieee80211_hostap.o)
no_ap_found_index                                 ../lib/libnet80211.a(wl_cnx.o)
                                                  ../lib/libwpa.a(wpa_main.o)
                                                  ../lib/libmain.a(user_interface.o)
node_insert_to_list                               ../lib/liblwip.a(dhcpserver.o)
node_remove_from_list                             ../lib/liblwip.a(dhcpserver.o)
noise_array                                       ../lib/libphy.a(phy_chip_v6.o)
noise_check_loop                                  ../lib/libphy.a(phy_chip_v6.o)
                                                  ../lib/libnet80211.a(ieee80211_hostap.o)
                                                  ../lib/libpp.a(pp.o)
                                                  ../lib/libpp.a(pm_for_bcn_only_mode.o)
                                                  ../lib/libpp.a(pm.o)
                                                  ../lib/libphy.a(phy_sleep.o)
noise_init                                        ../lib/libphy.a(phy_chip_v6.o)
options_start                                     ../lib/libwilddog.a(option.o)
os_get_random                                     ../lib/libwpa.a(os_xtensa.o)
                                                  ../lib/libcrypto.a(dh_groups.o)
                                                  ../lib/libwps.a(wps_attr_build.o)
                                                  ../lib/libwps.a(wps_registrar.o)
                                                  ../lib/libwps.a(wps_enrollee.o)
                                                  ../lib/libssl.a(ssl_crypto_misc.o)
                                                  ../lib/libwpa.a(wpa.o)
                                                  ../lib/libwpa.a(wpa_auth.o)
os_get_time                                       ../lib/libwpa.a(os_xtensa.o)
                                                  ../lib/libwps.a(wps_registrar.o)
                                                  ../lib/libwps.a(wps_common.o)
                                                  ../lib/libwpa.a(common.o)
os_printf_plus                                    ../lib/libmain.a(user_interface.o)
                                                  ../lib/libwilddog.a(wilddog_cbor.o)
                                                  ../lib/libwilddog.a(pdu.o)
                                                  ../lib/libwilddog.a(option.o)
                                                  ../lib/libwilddog.a(wilddog_event.o)
                                                  ../lib/libwilddog.a(wilddog_conn_manage.o)
                                                  ../lib/libwilddog.a(wilddog_conn_coap.o)
                                                  ../lib/libwilddog.a(wilddog_conn.o)
                                                  ../lib/libwilddog.a(wilddog_url_parser.o)
                                                  ../lib/libwilddog.a(wilddog_store.o)
                                                  ../lib/libwilddog.a(wilddog_node.o)
                                                  ../lib/libwilddog.a(wilddog_espressif.o)
                                                  ../lib/libwilddog.a(wilddog_ct.o)
                                                  ../lib/libwilddog.a(wilddog_api.o)
                                                  ../lib/libsmartconfig.a(sc_esptouch.o)
                                                  ../lib/libsmartconfig.a(sc_airkiss.o)
                                                  ../lib/libsmartconfig.a(sc_sniffer.o)
                                                  ../lib/libwps.a(wps_attr_build.o)
                                                  ../lib/libwps.a(wps_enrollee.o)
                                                  ../lib/libwps.a(wps.o)
                                                  ../lib/libssl.a(ssl_asn1.o)
                                                  ../lib/libssl.a(ssl_x509.o)
                                                  ../lib/libssl.a(ssl_tls1.o)
                                                  ../lib/libssl.a(ssl_loader.o)
                                                  ../lib/libssl.a(espconn_ssl.o)
                                                  ../lib/libwpa.a(wpa_main.o)
                                                  ../lib/liblwip.a(ping.o)
                                                  ../lib/liblwip.a(mdns.o)
                                                  ../lib/liblwip.a(ip.o)
                                                  ../lib/liblwip.a(espconn_tcp.o)
                                                  ../lib/liblwip.a(dhcpserver.o)
                                                  ../lib/liblwip.a(dhcp.o)
                                                  ../lib/libnet80211.a(ieee80211_action_vendor.o)
                                                  ../lib/libnet80211.a(wl_cnx.o)
                                                  ../lib/libnet80211.a(ieee80211_sta.o)
                                                  ../lib/libnet80211.a(ieee80211_scan.o)
                                                  ../lib/libnet80211.a(ieee80211_output.o)
                                                  ../lib/libnet80211.a(ieee80211_mesh_quick.o)
                                                  ../lib/libnet80211.a(ieee80211_ht.o)
                                                  ../lib/libnet80211.a(ieee80211_hostap.o)
                                                  ../lib/libnet80211.a(ieee80211.o)
                                                  ../lib/libpp.a(trc.o)
                                                  ../lib/libpp.a(pp.o)
                                                  ../lib/libpp.a(pm_for_bcn_only_mode.o)
                                                  ../lib/libpp.a(pm.o)
                                                  ../lib/libpp.a(lmac.o)
                                                  ../lib/libpp.a(if_hwctrl.o)
                                                  ../lib/libphy.a(phy_chip_v6_cal.o)
                                                  ../lib/libphy.a(phy_chip_v6.o)
                                                  ../lib/libphy.a(phy_chip_v6_ana.o)
                                                  ../lib/libat.a(uart.o)
                                                  ../lib/libat.a(at_wifiCmd.o)
                                                  ../lib/libat.a(at_ipCmd.o)
                                                  user/.output/eagle/debug/lib/libuser.a(WDJson_Drv.o)
                                                  user/.output/eagle/debug/lib/libuser.a(GizCmdTest.o)
                                                  user/.output/eagle/debug/lib/libuser.a(WildDog_Drv.o)
                                                  user/.output/eagle/debug/lib/libuser.a(AirKiss_Drv.o)
                                                  user/.output/eagle/debug/lib/libuser.a(AtCmd_Drv.o)
                                                  ../lib/libmain.a(eagle_lwip_if.o)
                                                  ../lib/libmain.a(spi_flash.o)
                                                  ../lib/libmain.a(ets_timer.o)
                                                  ../lib/libmain.a(app_main.o)
os_random                                         ../lib/libwpa.a(os_xtensa.o)
                                                  ../lib/libwps.a(wps_common.o)
                                                  ../lib/liblwip.a(tcp.o)
                                                  ../lib/liblwip.a(espconn.o)
                                                  ../lib/liblwip.a(dns.o)
our_tx_eb                                         ../lib/libpp.a(lmac.o)
                                                  ../lib/libpp.a(wdev.o)
pAKGuideGlob                                      ../lib/libsmartconfig.a(sc_airkiss.o)
                                                  ../lib/libsmartconfig.a(sc_sniffer.o)
pAPListHead                                       ../lib/libsmartconfig.a(sc_sniffer.o)
                                                  ../lib/libsmartconfig.a(sc_esptouch.o)
                                                  ../lib/libsmartconfig.a(sc_airkiss.o)
pAPListTral                                       ../lib/libsmartconfig.a(sc_sniffer.o)
pAkDiret                                          ../lib/libsmartconfig.a(sc_airkiss.o)
                                                  ../lib/libsmartconfig.a(sc_sniffer.o)
pAkTrans                                          ../lib/libsmartconfig.a(sc_airkiss.o)
                                                  ../lib/libsmartconfig.a(sc_sniffer.o)
pCHListHead                                       ../lib/libsmartconfig.a(sc_esptouch.o)
pCHListTral                                       ../lib/libsmartconfig.a(sc_esptouch.o)
pDataLine                                         ../lib/libat.a(at_port.o)
                                                  ../lib/libat.a(at_ipCmd.o)
pETGuideGlob                                      ../lib/libsmartconfig.a(sc_esptouch.o)
                                                  ../lib/libsmartconfig.a(sc_sniffer.o)
pKissConn                                         ../lib/libsmartconfig.a(sc_airkiss.o)
                                                  ../lib/libsmartconfig.a(sc_sniffer.o)
pLink                                             ../lib/libat.a(at_ipCmd.o)
                                                  ../lib/libat.a(at_port.o)
pTouchConn                                        ../lib/libsmartconfig.a(sc_esptouch.o)
                                                  ../lib/libsmartconfig.a(sc_sniffer.o)
pTouchGlob                                        ../lib/libsmartconfig.a(sc_esptouch.o)
                                                  ../lib/libsmartconfig.a(sc_sniffer.o)
p_l_cmControl                                     ../lib/libwilddog.a(wilddog_conn_manage.o)
parse_url                                         ../lib/libwilddog.a(wilddog_url_parser.o)
parsed_url_free                                   ../lib/libwilddog.a(wilddog_url_parser.o)
pbkdf2_sha1                                       ../lib/libwpa.a(wpa.o)
                                                  ../lib/libmain.a(user_interface.o)
pbuf_alloc                                        ../lib/liblwip.a(pbuf.o)
                                                  ../lib/libwps.a(wps.o)
                                                  ../lib/libwpa.a(wpas_glue.o)
                                                  ../lib/libwpa.a(wpa_auth.o)
                                                  ../lib/liblwip.a(icmp.o)
                                                  ../lib/liblwip.a(udp.o)
                                                  ../lib/liblwip.a(tcp_out.o)
                                                  ../lib/liblwip.a(raw.o)
                                                  ../lib/liblwip.a(ping.o)
                                                  ../lib/liblwip.a(mdns.o)
                                                  ../lib/liblwip.a(igmp.o)
                                                  ../lib/liblwip.a(etharp.o)
                                                  ../lib/liblwip.a(espconn_udp.o)
                                                  ../lib/liblwip.a(dns.o)
                                                  ../lib/liblwip.a(dhcpserver.o)
                                                  ../lib/liblwip.a(dhcp.o)
                                                  ../lib/libnet80211.a(ieee80211_input.o)
                                                  ../lib/libnet80211.a(ieee80211_hostap.o)
pbuf_cat                                          ../lib/liblwip.a(pbuf.o)
                                                  ../lib/liblwip.a(tcp_out.o)
                                                  ../lib/liblwip.a(tcp_in.o)
pbuf_chain                                        ../lib/liblwip.a(pbuf.o)
                                                  ../lib/liblwip.a(udp.o)
                                                  ../lib/liblwip.a(raw.o)
pbuf_clen                                         ../lib/liblwip.a(pbuf.o)
                                                  ../lib/liblwip.a(tcp_out.o)
                                                  ../lib/liblwip.a(tcp_in.o)
pbuf_coalesce                                     ../lib/liblwip.a(pbuf.o)
pbuf_copy                                         ../lib/liblwip.a(pbuf.o)
                                                  ../lib/liblwip.a(icmp.o)
                                                  ../lib/liblwip.a(mdns.o)
                                                  ../lib/liblwip.a(etharp.o)
                                                  ../lib/liblwip.a(espconn_udp.o)
pbuf_copy_partial                                 ../lib/liblwip.a(pbuf.o)
                                                  ../lib/liblwip.a(tcp_out.o)
                                                  ../lib/liblwip.a(mdns.o)
                                                  ../lib/liblwip.a(espconn_udp.o)
                                                  ../lib/liblwip.a(espconn_tcp.o)
                                                  ../lib/liblwip.a(dns.o)
                                                  ../lib/liblwip.a(dhcp.o)
pbuf_dechain                                      ../lib/liblwip.a(pbuf.o)
pbuf_free                                         ../lib/liblwip.a(pbuf.o)
                                                  ../lib/libssl.a(espconn_ssl.o)
                                                  ../lib/liblwip.a(icmp.o)
                                                  ../lib/liblwip.a(udp.o)
                                                  ../lib/liblwip.a(tcp_out.o)
                                                  ../lib/liblwip.a(tcp.o)
                                                  ../lib/liblwip.a(tcp_in.o)
                                                  ../lib/liblwip.a(raw.o)
                                                  ../lib/liblwip.a(ping.o)
                                                  ../lib/liblwip.a(mdns.o)
                                                  ../lib/liblwip.a(ip.o)
                                                  ../lib/liblwip.a(igmp.o)
                                                  ../lib/liblwip.a(etharp.o)
                                                  ../lib/liblwip.a(espconn_udp.o)
                                                  ../lib/liblwip.a(espconn_tcp.o)
                                                  ../lib/liblwip.a(dns.o)
                                                  ../lib/liblwip.a(dhcpserver.o)
                                                  ../lib/liblwip.a(dhcp.o)
                                                  ../lib/libnet80211.a(ieee80211_power.o)
                                                  ../lib/libnet80211.a(ieee80211_hostap.o)
                                                  ../lib/libpp.a(pp.o)
                                                  ../lib/libmain.a(eagle_lwip_if.o)
pbuf_free_ooseq_new                               ../lib/liblwip.a(pbuf.o)
                                                  ../lib/liblwip.a(tcp_in.o)
pbuf_get_at                                       ../lib/liblwip.a(pbuf.o)
pbuf_header                                       ../lib/liblwip.a(pbuf.o)
                                                  ../lib/liblwip.a(icmp.o)
                                                  ../lib/liblwip.a(udp.o)
                                                  ../lib/liblwip.a(tcp_out.o)
                                                  ../lib/liblwip.a(tcp_in.o)
                                                  ../lib/liblwip.a(raw.o)
                                                  ../lib/liblwip.a(ping.o)
                                                  ../lib/liblwip.a(ip.o)
                                                  ../lib/liblwip.a(igmp.o)
                                                  ../lib/liblwip.a(etharp.o)
pbuf_memcmp                                       ../lib/liblwip.a(pbuf.o)
pbuf_memfind                                      ../lib/liblwip.a(pbuf.o)
pbuf_realloc                                      ../lib/liblwip.a(pbuf.o)
                                                  ../lib/liblwip.a(tcp_in.o)
                                                  ../lib/liblwip.a(mdns.o)
                                                  ../lib/liblwip.a(ip.o)
                                                  ../lib/liblwip.a(dns.o)
                                                  ../lib/liblwip.a(dhcp.o)
pbuf_ref                                          ../lib/liblwip.a(pbuf.o)
                                                  ../lib/liblwip.a(tcp.o)
                                                  ../lib/liblwip.a(etharp.o)
                                                  ../lib/libnet80211.a(ieee80211_output.o)
pbuf_strstr                                       ../lib/liblwip.a(pbuf.o)
pbuf_take                                         ../lib/liblwip.a(pbuf.o)
pbus_set_rxbbgain                                 ../lib/libphy.a(phy_chip_v6.o)
pend_flag_noise_check                             ../lib/libpp.a(pp.o)
                                                  ../lib/libpp.a(pm_for_bcn_only_mode.o)
                                                  ../lib/libpp.a(pm.o)
pend_flag_periodic_cal                            ../lib/libpp.a(pp.o)
                                                  ../lib/libpp.a(pm_for_bcn_only_mode.o)
                                                  ../lib/libpp.a(pm.o)
periodic_cal                                      ../lib/libphy.a(phy_chip_v6.o)
                                                  ../lib/libphy.a(phy_sleep.o)
periodic_cal_dc_num                               ../lib/libphy.a(phy_chip_v6.o)
periodic_cal_flag                                 ../lib/libphy.a(phy_chip_v6.o)
                                                  ../lib/libphy.a(phy_sleep.o)
periodic_cal_sat                                  ../lib/libphy.a(phy_sleep.o)
periodic_cal_top                                  ../lib/libphy.a(phy_chip_v6.o)
                                                  ../lib/libnet80211.a(ieee80211_hostap.o)
                                                  ../lib/libpp.a(pp.o)
                                                  ../lib/libpp.a(pm_for_bcn_only_mode.o)
                                                  ../lib/libpp.a(pm.o)
                                                  ../lib/libphy.a(phy_chip_v6_cal.o)
pfile_param                                       ../lib/libssl.a(espconn_ssl.o)
                                                  ../lib/libssl.a(ssl_crypto_misc.o)
phy_adc_read_fast                                 ../lib/libphy.a(phy_chip_v6_ana.o)
                                                  ../lib/libmain.a(user_interface.o)
phy_after_init_enrx                               ../lib/libphy.a(phy_chip_v6.o)
                                                  ../lib/libphy.a(phy_chip_v6_ana.o)
phy_afterwake_set_rfoption                        ../lib/libphy.a(phy_chip_v6.o)
                                                  ../lib/libmain.a(user_interface.o)
phy_bb_rx_cfg                                     ../lib/libphy.a(phy_chip_v6.o)
phy_change_channel                                ../lib/libphy.a(phy.o)
                                                  ../lib/libnet80211.a(wl_chm.o)
phy_check_data_table                              ../lib/libphy.a(phy_chip_v6.o)
phy_debug_print                                   ../lib/libphy.a(phy_chip_v6.o)
phy_delete_channel                                ../lib/libphy.a(phy.o)
phy_dig_spur_prot                                 ../lib/libphy.a(phy_chip_v6.o)
                                                  ../lib/libphy.a(phy_chip_v6_ana.o)
phy_dig_spur_set                                  ../lib/libphy.a(phy_chip_v6.o)
                                                  ../lib/libphy.a(phy_chip_v6_ana.o)
phy_disable_agc                                   ../lib/libphy.a(phy.o)
                                                  ../lib/libmain.a(app_main.o)
phy_enable_agc                                    ../lib/libphy.a(phy.o)
                                                  ../lib/libmain.a(app_main.o)
phy_freq_offset                                   ../lib/libphy.a(phy_chip_v6.o)
                                                  ../lib/libphy.a(phy_chip_v6_ana.o)
phy_get_bb_evm                                    ../lib/libphy.a(phy_chip_v6_cal.o)
phy_get_bb_freqoffset                             ../lib/libphy.a(phy_chip_v6_cal.o)
                                                  ../lib/libpp.a(wdev.o)
phy_get_check_flag                                ../lib/libphy.a(phy_chip_v6_ana.o)
                                                  ../lib/libmain.a(user_interface.o)
phy_get_freq_param                                ../lib/libphy.a(phy_chip_v6.o)
phy_get_mactime                                   ../lib/libphy.a(phy.o)
phy_get_rand                                      ../lib/libphy.a(phy_chip_v6.o)
                                                  ../lib/libwpa.a(os_xtensa.o)
phy_get_romfuncs                                  ../lib/libphy.a(phy_chip_v6.o)
phy_get_rxnf_param                                ../lib/libphy.a(phy_chip_v6.o)
phy_get_txpwr_param                               ../lib/libphy.a(phy_chip_v6.o)
phy_get_vdd33                                     ../lib/libphy.a(phy_chip_v6_ana.o)
                                                  ../lib/libmain.a(user_interface.o)
phy_gpio_cfg                                      ../lib/libphy.a(phy_chip_v6.o)
phy_in_most_power                                 ../lib/libphy.a(phy_chip_v6.o)
phy_in_vdd33_offset                               ../lib/libphy.a(phy_chip_v6.o)
                                                  ../lib/libphy.a(phy_chip_v6_cal.o)
phy_init                                          ../lib/libphy.a(phy.o)
phy_initialize_bb                                 ../lib/libphy.a(phy.o)
phy_meas_freq_offset                              ../lib/libphy.a(phy_chip_v6_cal.o)
                                                  ../lib/libphy.a(phy_chip_v6.o)
phy_pbus_soc_cfg                                  ../lib/libphy.a(phy_chip_v6.o)
phy_rx_gain_dc_flag                               ../lib/libphy.a(phy_chip_v6.o)
                                                  ../lib/libpp.a(pm_for_bcn_only_mode.o)
                                                  ../lib/libpp.a(pm.o)
                                                  ../lib/libmain.a(app_main.o)
phy_rx_gain_dc_table                              ../lib/libphy.a(phy_chip_v6.o)
                                                  ../lib/libpp.a(pm_for_bcn_only_mode.o)
                                                  ../lib/libpp.a(pm.o)
                                                  ../lib/libmain.a(app_main.o)
phy_set_most_tpw                                  ../lib/libphy.a(phy_chip_v6.o)
                                                  ../lib/libmain.a(user_interface.o)
phy_set_most_tpw_disbg                            ../lib/libphy.a(phy_chip_v6.o)
                                                  ../lib/libphy.a(phy_chip_v6_cal.o)
phy_set_most_tpw_index                            ../lib/libphy.a(phy_chip_v6.o)
                                                  ../lib/libphy.a(phy_chip_v6_cal.o)
phy_set_powerup_option                            ../lib/libphy.a(phy_chip_v6.o)
                                                  ../lib/libmain.a(user_interface.o)
phy_set_rx11b_reg                                 ../lib/libphy.a(phy_chip_v6.o)
phy_set_sense                                     ../lib/libphy.a(phy.o)
phy_tx_power_out                                  ../lib/libphy.a(phy_chip_v6_cal.o)
phy_tx_pwctrl_cali                                ../lib/libphy.a(phy_chip_v6.o)
phy_tx_pwr_error                                  ../lib/libphy.a(phy_chip_v6_cal.o)
                                                  ../lib/libphy.a(phy_chip_v6.o)
phy_txpwr_diff_flash                              ../lib/libphy.a(phy_chip_v6.o)
phy_vdd33_set_tpw                                 ../lib/libphy.a(phy_chip_v6.o)
                                                  ../lib/libmain.a(user_interface.o)
phytype2mode                                      ../lib/libpp.a(trc.o)
ping_regist_recv                                  ../lib/liblwip.a(ping.o)
                                                  ../lib/libat.a(at_wifiCmd.o)
ping_regist_sent                                  ../lib/liblwip.a(ping.o)
                                                  ../lib/libat.a(at_wifiCmd.o)
ping_start                                        ../lib/liblwip.a(ping.o)
                                                  ../lib/libat.a(at_wifiCmd.o)
pktinfo                                           ../lib/liblwip.a(espconn.o)
                                                  ../lib/liblwip.a(espconn_tcp.o)
plink_active                                      ../lib/liblwip.a(espconn.o)
                                                  ../lib/libssl.a(espconn_ssl.o)
                                                  ../lib/liblwip.a(espconn_udp.o)
                                                  ../lib/liblwip.a(espconn_tcp.o)
plink_server                                      ../lib/libssl.a(espconn_ssl.o)
pm_allow_tx                                       ../lib/libpp.a(pm.o)
                                                  ../lib/libpp.a(pp.o)
pm_assoc_parse                                    ../lib/libpp.a(pm.o)
                                                  ../lib/libpp.a(pp.o)
pm_attach                                         ../lib/libpp.a(pm.o)
                                                  ../lib/libmain.a(app_main.o)
pm_check_mac_idle                                 ../lib/libphy.a(phy_sleep.o)
pm_enable_gpio_wakeup                             ../lib/libpp.a(pm.o)
                                                  ../lib/libpp.a(pp.o)
pm_force_scan_unlock                              ../lib/libpp.a(pm.o)
                                                  ../lib/libnet80211.a(ieee80211_scan.o)
                                                  ../lib/libpp.a(if_hwctrl.o)
pm_get_ck170_period                               ../lib/libpp.a(pm.o)
                                                  ../lib/libpp.a(pm_for_bcn_only_mode.o)
pm_get_idle_wait_time                             ../lib/libpp.a(pm.o)
pm_get_sleep_type                                 ../lib/libpp.a(pm.o)
                                                  ../lib/libmain.a(user_interface.o)
pm_goto_sleep                                     ../lib/libphy.a(phy_sleep.o)
                                                  ../lib/libpp.a(pm_for_bcn_only_mode.o)
                                                  ../lib/libpp.a(pm.o)
pm_idle_sleep                                     ../lib/libpp.a(pm.o)
pm_is_open                                        ../lib/libpp.a(pm.o)
                                                  ../lib/libnet80211.a(ieee80211_scan.o)
                                                  ../lib/libpp.a(pm_for_bcn_only_mode.o)
                                                  ../lib/libmain.a(user_interface.o)
pm_is_waked                                       ../lib/libpp.a(pm.o)
                                                  ../lib/libnet80211.a(ieee80211_scan.o)
                                                  ../lib/libpp.a(pp.o)
                                                  ../lib/libmain.a(user_interface.o)
pm_onBcnRx                                        ../lib/libpp.a(pm.o)
                                                  ../lib/libpp.a(pp.o)
pm_open                                           ../lib/libpp.a(pm.o)
                                                  ../lib/libpp.a(if_hwctrl.o)
pm_open_rf                                        ../lib/libphy.a(phy_sleep.o)
                                                  ../lib/libmain.a(user_interface.o)
pm_post                                           ../lib/libpp.a(pm.o)
                                                  ../lib/libnet80211.a(ieee80211_scan.o)
                                                  ../lib/libpp.a(pp.o)
                                                  ../lib/libmain.a(user_interface.o)
pm_prepare_to_sleep                               ../lib/libphy.a(phy_sleep.o)
pm_reset_idle_sleep                               ../lib/libpp.a(pm.o)
pm_rf_is_closed                                   ../lib/libpp.a(pm.o)
                                                  ../lib/libpp.a(pp.o)
pm_rtc2usec                                       ../lib/libphy.a(phy_sleep.o)
                                                  ../lib/libpp.a(pm_for_bcn_only_mode.o)
                                                  ../lib/libpp.a(pm.o)
pm_rtc_clock_cali                                 ../lib/libphy.a(phy_sleep.o)
                                                  ../lib/libpp.a(pm.o)
pm_rtc_clock_cali_proc                            ../lib/libpp.a(pm.o)
                                                  ../lib/libpp.a(pm_for_bcn_only_mode.o)
                                                  ../lib/libmain.a(user_interface.o)
pm_scan_lock                                      ../lib/libpp.a(pm.o)
                                                  ../lib/libnet80211.a(ieee80211_scan.o)
pm_scan_unlocked                                  ../lib/libpp.a(pm.o)
                                                  ../lib/libpp.a(pp.o)
pm_sdio_nidle                                     ../lib/libphy.a(phy_sleep.o)
pm_send_nullfunc                                  ../lib/libpp.a(pm.o)
pm_set_addr                                       ../lib/libpp.a(pm.o)
                                                  ../lib/libpp.a(pp.o)
pm_set_pll_xtal_wait_time                         ../lib/libphy.a(phy_sleep.o)
pm_set_sleep_btco                                 ../lib/libphy.a(phy_sleep.o)
pm_set_sleep_cycles                               ../lib/libphy.a(phy_sleep.o)
                                                  ../lib/libpp.a(pm_for_bcn_only_mode.o)
                                                  ../lib/libpp.a(pm.o)
                                                  ../lib/libphy.a(phy_chip_v6.o)
pm_set_sleep_mode                                 ../lib/libphy.a(phy_sleep.o)
                                                  ../lib/libpp.a(pm_for_bcn_only_mode.o)
                                                  ../lib/libpp.a(pm.o)
                                                  ../lib/libphy.a(phy_chip_v6.o)
                                                  ../lib/libphy.a(phy_chip_v6_ana.o)
pm_set_sleep_time                                 ../lib/libpp.a(pm.o)
                                                  ../lib/libmain.a(user_interface.o)
pm_set_sleep_type_from_upper                      ../lib/libpp.a(pm.o)
                                                  ../lib/libmain.a(user_interface.o)
pm_set_wakeup_btco                                ../lib/libphy.a(phy_sleep.o)
pm_set_wakeup_mac                                 ../lib/libphy.a(phy_sleep.o)
pm_shutdown                                       ../lib/libpp.a(pm.o)
                                                  ../lib/libpp.a(pm_for_bcn_only_mode.o)
                                                  ../lib/libpp.a(if_hwctrl.o)
pm_sleep_for                                      ../lib/libpp.a(pm.o)
                                                  ../lib/libpp.a(pp.o)
pm_sleep_opt                                      ../lib/libphy.a(phy_sleep.o)
pm_sleep_opt_bb_off                               ../lib/libphy.a(phy_sleep.o)
pm_sleep_opt_bb_on                                ../lib/libphy.a(phy_sleep.o)
pm_sleep_set_mac                                  ../lib/libphy.a(phy_sleep.o)
pm_suspend                                        ../lib/libpp.a(pm.o)
pm_try_scan_unlock                                ../lib/libpp.a(pm.o)
pm_unmask_bt                                      ../lib/libphy.a(phy_sleep.o)
pm_usec2rtc                                       ../lib/libphy.a(phy_sleep.o)
                                                  ../lib/libpp.a(pm_for_bcn_only_mode.o)
                                                  ../lib/libpp.a(pm.o)
pm_wait4wakeup                                    ../lib/libphy.a(phy_sleep.o)
                                                  ../lib/libpp.a(pm_for_bcn_only_mode.o)
                                                  ../lib/libpp.a(pm.o)
                                                  ../lib/libphy.a(phy_chip_v6.o)
pm_wakeup_init                                    ../lib/libphy.a(phy_sleep.o)
                                                  ../lib/libpp.a(pm_for_bcn_only_mode.o)
                                                  ../lib/libpp.a(pm.o)
                                                  ../lib/libphy.a(phy_chip_v6.o)
                                                  ../lib/libphy.a(phy_chip_v6_ana.o)
pm_wakeup_opt                                     ../lib/libphy.a(phy_sleep.o)
                                                  ../lib/libpp.a(pm_for_bcn_only_mode.o)
                                                  ../lib/libpp.a(pm.o)
                                                  ../lib/libphy.a(phy_chip_v6.o)
pmc                                               ../lib/libpp.a(pm.o)
ppCalFrameTimes                                   ../lib/libpp.a(pp.o)
                                                  ../lib/libpp.a(lmac.o)
ppCalTxop                                         ../lib/libpp.a(pp.o)
                                                  ../lib/libpp.a(lmac.o)
ppCheckTxIdle                                     ../lib/libpp.a(pp.o)
                                                  ../lib/libnet80211.a(ieee80211_scan.o)
                                                  ../lib/libpp.a(pm_for_bcn_only_mode.o)
                                                  ../lib/libpp.a(pm.o)
ppDequeueTxQ                                      ../lib/libpp.a(pp.o)
                                                  ../lib/libpp.a(lmac.o)
ppDiscardMPDU                                     ../lib/libpp.a(pp.o)
ppEnqueueRxq                                      ../lib/libpp.a(pp.o)
                                                  ../lib/libpp.a(lmac.o)
ppEnqueueTxDone                                   ../lib/libpp.a(pp.o)
                                                  ../lib/libpp.a(lmac.o)
ppFetchTxQFirstAvail                              ../lib/libpp.a(pp.o)
                                                  ../lib/libpp.a(lmac.o)
ppGetTxQFirstAvail_Locked                         ../lib/libpp.a(pp.o)
                                                  ../lib/libpp.a(lmac.o)
ppInstallKey                                      ../lib/libwpa.a(wpa_main.o)
                                                  ../lib/libnet80211.a(wl_cnx.o)
ppPeocessRxPktHdr                                 ../lib/libpp.a(pp.o)
ppProcessTxQ                                      ../lib/libpp.a(pp.o)
                                                  ../lib/libpp.a(lmac.o)
ppProcessWaitQ                                    ../lib/libpp.a(pp.o)
                                                  ../lib/libpp.a(pm_for_bcn_only_mode.o)
                                                  ../lib/libpp.a(pm.o)
ppRecordBarRRC                                    ../lib/libpp.a(pp.o)
                                                  ../lib/libpp.a(lmac.o)
ppRecycleRxPkt                                    ../lib/libpp.a(pp.o)
                                                  ../lib/libnet80211.a(ieee80211_sta.o)
                                                  ../lib/libnet80211.a(ieee80211_input.o)
                                                  ../lib/libnet80211.a(ieee80211_hostap.o)
                                                  ../lib/libmain.a(eagle_lwip_if.o)
                                                  ../lib/libmain.a(user_interface.o)
ppRegisterTxCallback                              ../lib/libpp.a(pp.o)
                                                  ../lib/libwpa.a(wpa_main.o)
                                                  ../lib/libnet80211.a(wl_cnx.o)
                                                  ../lib/libnet80211.a(ieee80211_proto.o)
                                                  ../lib/libnet80211.a(ieee80211_hostap.o)
                                                  ../lib/libnet80211.a(ieee80211.o)
                                                  ../lib/libpp.a(pm.o)
ppRollBackTxQ                                     ../lib/libpp.a(pp.o)
                                                  ../lib/libpp.a(lmac.o)
ppTxPkt                                           ../lib/libpp.a(pp.o)
                                                  ../lib/libnet80211.a(ieee80211_action_vendor.o)
                                                  ../lib/libnet80211.a(ieee80211_scan.o)
                                                  ../lib/libnet80211.a(ieee80211_power.o)
                                                  ../lib/libnet80211.a(ieee80211_output.o)
                                                  ../lib/libnet80211.a(ieee80211_hostap.o)
                                                  ../lib/libpp.a(pm.o)
ppTxqUpdateBitmap                                 ../lib/libpp.a(pp.o)
                                                  ../lib/libpp.a(lmac.o)
ppUnregisterTxCallback                            ../lib/libpp.a(pp.o)
pp_attach                                         ../lib/libpp.a(pp.o)
                                                  ../lib/libmain.a(app_main.o)
pp_disable_idle_timer                             ../lib/libpp.a(pp.o)
                                                  ../lib/libpp.a(pm.o)
pp_disable_noise_timer                            ../lib/libpp.a(pp.o)
                                                  ../lib/libnet80211.a(ieee80211_hostap.o)
                                                  ../lib/libpp.a(pm_for_bcn_only_mode.o)
pp_enable_idle_timer                              ../lib/libpp.a(pp.o)
                                                  ../lib/libpp.a(pm.o)
pp_enable_noise_timer                             ../lib/libpp.a(pp.o)
pp_michael_mic_failure                            ../lib/libwpa.a(wpa.o)
pp_noise_test                                     ../lib/libpp.a(pp.o)
pp_post                                           ../lib/libpp.a(pp.o)
                                                  ../lib/libwps.a(wps.o)
                                                  ../lib/libpp.a(lmac.o)
pp_post2                                          ../lib/libpp.a(pp.o)
                                                  ../lib/libpp.a(wdev.o)
pp_soft_wdt_feed                                  ../lib/libpp.a(pp.o)
                                                  ../lib/libmain.a(spi_flash.o)
pp_soft_wdt_feed_local                            ../lib/libpp.a(pp.o)
pp_soft_wdt_init                                  ../lib/libpp.a(pp.o)
                                                  ../lib/libmain.a(app_main.o)
pp_soft_wdt_restart                               ../lib/libpp.a(pp.o)
                                                  ../lib/libwps.a(wps_attr_build.o)
                                                  ../lib/libwps.a(wps_enrollee.o)
                                                  ../lib/libpp.a(pm_for_bcn_only_mode.o)
                                                  ../lib/libpp.a(pm.o)
pp_soft_wdt_stop                                  ../lib/libpp.a(pp.o)
                                                  ../lib/libwps.a(wps_attr_build.o)
                                                  ../lib/libwps.a(wps_enrollee.o)
                                                  ../lib/libpp.a(pm_for_bcn_only_mode.o)
                                                  ../lib/libpp.a(pm.o)
pp_try_enable_idle_timer                          ../lib/libpp.a(pp.o)
                                                  ../lib/libpp.a(pm.o)
pp_tx_idle_timeout                                ../lib/libpp.a(pp.o)
premot                                            ../lib/liblwip.a(espconn.o)
print_blob                                        ../lib/libssl.a(ssl_crypto_misc.o)
print_readable                                    ../lib/libwilddog.a(pdu.o)
process_certificate                               ../lib/libssl.a(ssl_tls1.o)
                                                  ../lib/libssl.a(ssl_tls1_svr.o)
                                                  ../lib/libssl.a(ssl_tls1_clnt.o)
process_finished                                  ../lib/libssl.a(ssl_tls1.o)
                                                  ../lib/libssl.a(ssl_tls1_svr.o)
                                                  ../lib/libssl.a(ssl_tls1_clnt.o)
promiscuous_cb                                    ../lib/libmain.a(user_interface.o)
                                                  ../lib/libpp.a(pp.o)
prvInsertBlockIntoUsedList                        ../lib/libmain.a(mem_manager.o)
prvRemoveBlockFromUsedList                        ../lib/libmain.a(mem_manager.o)
pserver_list                                      ../lib/liblwip.a(espconn.o)
                                                  ../lib/liblwip.a(espconn_tcp.o)
pvPortCalloc                                      ../lib/libmain.a(mem_manager.o)
pvPortMalloc                                      ../lib/libmain.a(mem_manager.o)
                                                  ../lib/libcrypto.a(bignum.o)
                                                  ../lib/libcrypto.a(aes-internal-dec.o)
                                                  ../lib/libwilddog.a(wilddog_common.o)
                                                  ../lib/libwps.a(wps_registrar.o)
                                                  ../lib/libwps.a(wps_dev_attr.o)
                                                  ../lib/libwps.a(wps.o)
                                                  ../lib/libssl.a(ssl_rsa.o)
                                                  ../lib/libssl.a(ssl_bigint.o)
                                                  ../lib/libssl.a(ssl_asn1.o)
                                                  ../lib/libssl.a(ssl_x509.o)
                                                  ../lib/libssl.a(ssl_tls1.o)
                                                  ../lib/libssl.a(ssl_loader.o)
                                                  ../lib/libcrypto.a(aes-internal-enc.o)
                                                  ../lib/libwpa.a(wpa_main.o)
                                                  ../lib/libwpa.a(wpa_auth_ie.o)
                                                  ../lib/libwpa.a(wpa_auth.o)
                                                  ../lib/libwpa.a(os_xtensa.o)
                                                  ../lib/libwpa.a(common.o)
                                                  ../lib/liblwip.a(udp.o)
                                                  ../lib/liblwip.a(timers.o)
                                                  ../lib/liblwip.a(tcp_out.o)
                                                  ../lib/liblwip.a(tcp.o)
                                                  ../lib/liblwip.a(raw.o)
                                                  ../lib/liblwip.a(pbuf.o)
                                                  ../lib/liblwip.a(igmp.o)
                                                  ../lib/liblwip.a(etharp.o)
                                                  ../lib/liblwip.a(dhcp.o)
                                                  ../lib/libnet80211.a(ieee80211_input.o)
                                                  ../lib/libpp.a(esf_buf.o)
                                                  ../lib/libpp.a(wdev.o)
                                                  ../lib/libat.a(uart.o)
                                                  ../lib/libat.a(at_wifiCmd.o)
                                                  ../lib/libat.a(at_port.o)
                                                  ../lib/libat.a(at_ipCmd.o)
                                                  ../lib/libmain.a(eagle_lwip_if.o)
                                                  ../lib/libmain.a(user_interface.o)
                                                  ../lib/libmain.a(app_main.o)
pvPortRealloc                                     ../lib/libmain.a(mem_manager.o)
                                                  ../lib/libcrypto.a(bignum.o)
                                                  ../lib/libwpa.a(wpabuf.o)
                                                  ../lib/libssl.a(ssl_bigint.o)
                                                  ../lib/libssl.a(ssl_x509.o)
                                                  ../lib/libssl.a(ssl_loader.o)
pvPortZalloc                                      ../lib/libmain.a(mem_manager.o)
                                                  ../lib/libcrypto.a(bignum.o)
                                                  ../lib/libwpa.a(wpabuf.o)
                                                  ../lib/libsmartconfig.a(sc_esptouch.o)
                                                  ../lib/libsmartconfig.a(sc_airkiss.o)
                                                  ../lib/libsmartconfig.a(sc_sniffer.o)
                                                  ../lib/libwps.a(wps_registrar.o)
                                                  ../lib/libwps.a(wps.o)
                                                  ../lib/libssl.a(ssl_rsa.o)
                                                  ../lib/libssl.a(ssl_crypto_misc.o)
                                                  ../lib/libssl.a(ssl_bigint.o)
                                                  ../lib/libssl.a(ssl_x509.o)
                                                  ../lib/libssl.a(ssl_tls1.o)
                                                  ../lib/libssl.a(ssl_loader.o)
                                                  ../lib/libssl.a(espconn_ssl.o)
                                                  ../lib/libssl.a(espconn_secure.o)
                                                  ../lib/libwpa.a(wpa_main.o)
                                                  ../lib/libwpa.a(wpa_auth.o)
                                                  ../lib/libwpa.a(ap_config.o)
                                                  ../lib/liblwip.a(ping.o)
                                                  ../lib/liblwip.a(mdns.o)
                                                  ../lib/liblwip.a(espconn_udp.o)
                                                  ../lib/liblwip.a(espconn_tcp.o)
                                                  ../lib/liblwip.a(espconn.o)
                                                  ../lib/liblwip.a(dns.o)
                                                  ../lib/liblwip.a(dhcpserver.o)
                                                  ../lib/libnet80211.a(wl_cnx.o)
                                                  ../lib/libnet80211.a(ieee80211_sta.o)
                                                  ../lib/libnet80211.a(ieee80211_scan.o)
                                                  ../lib/libnet80211.a(ieee80211_phy.o)
                                                  ../lib/libnet80211.a(ieee80211_mesh_quick.o)
                                                  ../lib/libnet80211.a(ieee80211_hostap.o)
                                                  ../lib/libnet80211.a(ieee80211.o)
                                                  ../lib/libpp.a(esf_buf.o)
                                                  ../lib/libpp.a(pm_for_bcn_only_mode.o)
                                                  ../lib/libpp.a(pm.o)
                                                  ../lib/libat.a(at_init_para.o)
                                                  ../lib/libat.a(uart.o)
                                                  ../lib/libat.a(at_wifiCmd.o)
                                                  ../lib/libat.a(at_nv_data.o)
                                                  ../lib/libat.a(at_ipCmd.o)
                                                  ../lib/libat.a(at_baseCmd.o)
                                                  ../lib/libmain.a(user_interface.o)
                                                  ../lib/libmain.a(app_main.o)
pvShowMalloc                                      ../lib/libmain.a(mem_manager.o)
pwrsave_flushq                                    ../lib/libnet80211.a(ieee80211_power.o)
                                                  ../lib/libnet80211.a(wl_cnx.o)
                                                  ../lib/libnet80211.a(ieee80211_hostap.o)
r_rand                                            ../lib/libwpa.a(os_xtensa.o)
                                                  ../lib/libssl.a(ssl_crypto_misc.o)
                                                  ../lib/liblwip.a(igmp.o)
ram_ana_inf_gating_en                             ../lib/libphy.a(phy_chip_v6_ana.o)
                                                  ../lib/libphy.a(phy_chip_v6.o)
ram_cal_tos_v60                                   ../lib/libphy.a(phy_chip_v6_cal.o)
                                                  ../lib/libphy.a(phy_chip_v6.o)
ram_chip_v6_rx_init                               ../lib/libphy.a(phy_chip_v6_ana.o)
                                                  ../lib/libphy.a(phy_chip_v6.o)
ram_get_bb_atten                                  ../lib/libphy.a(phy_chip_v6_cal.o)
ram_get_corr_power                                ../lib/libphy.a(phy_chip_v6.o)
ram_get_fm_sar_dout                               ../lib/libphy.a(phy_chip_v6_cal.o)
                                                  ../lib/libphy.a(phy_chip_v6.o)
ram_get_noisefloor                                ../lib/libphy.a(phy_chip_v6.o)
ram_pbus_debugmode                                ../lib/libphy.a(phy_chip_v6_ana.o)
                                                  ../lib/libphy.a(phy_chip_v6.o)
ram_pbus_set_rxgain                               ../lib/libphy.a(phy_chip_v6_ana.o)
                                                  ../lib/libphy.a(phy_chip_v6.o)
ram_pbus_xpd_tx_on                                ../lib/libphy.a(phy_chip_v6_ana.o)
                                                  ../lib/libphy.a(phy_chip_v6_cal.o)
                                                  ../lib/libphy.a(phy_chip_v6.o)
ram_restart_cal                                   ../lib/libphy.a(phy_chip_v6_ana.o)
                                                  ../lib/libphy.a(phy_chip_v6.o)
ram_rfcal_pwrctrl                                 ../lib/libphy.a(phy_chip_v6_cal.o)
                                                  ../lib/libphy.a(phy_chip_v6.o)
ram_rfcal_rxiq                                    ../lib/libphy.a(phy_chip_v6_cal.o)
                                                  ../lib/libphy.a(phy_chip_v6.o)
ram_rfcal_txcap                                   ../lib/libphy.a(phy_chip_v6_cal.o)
                                                  ../lib/libphy.a(phy_chip_v6.o)
ram_rfcal_txiq                                    ../lib/libphy.a(phy_chip_v6_cal.o)
                                                  ../lib/libphy.a(phy_chip_v6.o)
ram_rfpll_set_freq                                ../lib/libphy.a(phy_chip_v6_ana.o)
ram_rxiq_cover_mg_mp                              ../lib/libphy.a(phy_chip_v6_cal.o)
                                                  ../lib/libphy.a(phy_chip_v6.o)
ram_rxiq_get_mis                                  ../lib/libphy.a(phy_chip_v6_cal.o)
                                                  ../lib/libphy.a(phy_chip_v6.o)
ram_set_channel_freq                              ../lib/libphy.a(phy_chip_v6_ana.o)
ram_set_noise_floor                               ../lib/libphy.a(phy_chip_v6.o)
ram_set_txbb_atten                                ../lib/libphy.a(phy_chip_v6_cal.o)
                                                  ../lib/libphy.a(phy_chip_v6.o)
ram_start_noisefloor                              ../lib/libphy.a(phy_chip_v6.o)
ram_tx_mac_disable                                ../lib/libphy.a(phy_chip_v6.o)
ram_tx_mac_enable                                 ../lib/libphy.a(phy_chip_v6.o)
rand                                              /opt/xtensa-lx106-elf/bin/../lib/gcc/xtensa-lx106-elf/4.8.2/libc.a(rand.o)
                                                  ../lib/libwilddog.a(wilddog_conn_manage.o)
raw_bind                                          ../lib/liblwip.a(raw.o)
                                                  ../lib/liblwip.a(ping.o)
raw_connect                                       ../lib/liblwip.a(raw.o)
raw_input                                         ../lib/liblwip.a(raw.o)
                                                  ../lib/liblwip.a(ip.o)
raw_new                                           ../lib/liblwip.a(raw.o)
                                                  ../lib/liblwip.a(ping.o)
raw_recv                                          ../lib/liblwip.a(raw.o)
                                                  ../lib/liblwip.a(ping.o)
raw_remove                                        ../lib/liblwip.a(raw.o)
                                                  ../lib/liblwip.a(ping.o)
raw_send                                          ../lib/liblwip.a(raw.o)
raw_sendto                                        ../lib/liblwip.a(raw.o)
                                                  ../lib/liblwip.a(ping.o)
rc4_skip                                          ../lib/libwpa.a(wpa.o)
                                                  ../lib/libwpa.a(wpa_auth.o)
rcAttach                                          ../lib/libpp.a(trc.o)
                                                  ../lib/libpp.a(lmac.o)
rcGetRate                                         ../lib/libpp.a(trc.o)
                                                  ../lib/libpp.a(lmac.o)
rcGetSched                                        ../lib/libpp.a(trc.o)
                                                  ../lib/libpp.a(pp.o)
rcGetTrc                                          ../lib/libpp.a(trc.o)
rcReachRetryLimit                                 ../lib/libpp.a(trc.o)
                                                  ../lib/libpp.a(lmac.o)
rcUpdateDataRxDone                                ../lib/libpp.a(trc.o)
                                                  ../lib/libpp.a(wdev.o)
rcUpdatePhyMode                                   ../lib/libpp.a(trc.o)
                                                  ../lib/libpp.a(if_hwctrl.o)
rcUpdateRxDone                                    ../lib/libpp.a(trc.o)
                                                  ../lib/libpp.a(pp.o)
rcUpdateTxDone                                    ../lib/libpp.a(trc.o)
                                                  ../lib/libpp.a(lmac.o)
rc_cal                                            ../lib/libphy.a(phy_chip_v6_cal.o)
                                                  ../lib/libphy.a(phy_chip_v6.o)
rc_disable_trc                                    ../lib/libpp.a(trc.o)
                                                  ../lib/libpp.a(if_hwctrl.o)
rc_disable_trc_by_interface                       ../lib/libpp.a(trc.o)
                                                  ../lib/libpp.a(if_hwctrl.o)
rc_enable_trc                                     ../lib/libpp.a(trc.o)
                                                  ../lib/libpp.a(if_hwctrl.o)
rc_get_mask                                       ../lib/libpp.a(trc.o)
                                                  ../lib/libpp.a(pm.o)
rc_get_sta_trc                                    ../lib/libpp.a(trc.o)
                                                  ../lib/libpp.a(pm.o)
rc_get_trc                                        ../lib/libpp.a(trc.o)
                                                  ../lib/libpp.a(pp.o)
                                                  ../lib/libpp.a(pm.o)
                                                  ../lib/libpp.a(if_hwctrl.o)
rc_get_trc_by_index                               ../lib/libpp.a(trc.o)
                                                  ../lib/libnet80211.a(ieee80211_output.o)
                                                  ../lib/libnet80211.a(ieee80211_ht.o)
rc_only_sta_trc                                   ../lib/libpp.a(trc.o)
                                                  ../lib/libpp.a(if_hwctrl.o)
rc_set_rate_limit_id                              ../lib/libpp.a(trc.o)
                                                  ../lib/libmain.a(user_interface.o)
rcons                                             ../lib/libcrypto.a(aes-internal.o)
read_from_flash_flag                              ../lib/libat.a(at_wifiCmd.o)
read_hw_noisefloor                                ../lib/libphy.a(phy_chip_v6.o)
                                                  ../lib/libpp.a(pp.o)
read_sar_dout                                     ../lib/libphy.a(phy_chip_v6_cal.o)
                                                  ../lib/libphy.a(phy_chip_v6_ana.o)
readvdd33                                         ../lib/libphy.a(phy_chip_v6_ana.o)
reconnect_flag                                    ../lib/libnet80211.a(wl_cnx.o)
                                                  ../lib/libnet80211.a(ieee80211_sta.o)
reconnect_internal                                ../lib/libmain.a(user_interface.o)
reduce_current_init                               ../lib/libphy.a(phy_chip_v6.o)
register_chipv6_phy                               ../lib/libphy.a(phy_chip_v6.o)
                                                  ../lib/libphy.a(phy_sleep.o)
                                                  ../lib/libmain.a(app_main.o)
register_chipv6_phy_init_param                    ../lib/libphy.a(phy_chip_v6.o)
register_get_phy_addr                             ../lib/libphy.a(phy.o)
                                                  ../lib/libphy.a(phy_chip_v6.o)
register_ieee80211_action_vendor_get_key_cb       ../lib/libnet80211.a(ieee80211_action_vendor.o)
register_ieee80211_action_vendor_spec_cb          ../lib/libnet80211.a(ieee80211_action_vendor.o)
register_ieee80211_rfid_locp_recv_cb              ../lib/libnet80211.a(ieee80211_rfid.o)
                                                  ../lib/libmain.a(user_interface.o)
register_phy_ops                                  ../lib/libphy.a(phy.o)
                                                  ../lib/libphy.a(phy_chip_v6.o)
remove_ca_certs                                   ../lib/libssl.a(ssl_asn1.o)
                                                  ../lib/libssl.a(ssl_tls1.o)
reset_noise_timer                                 ../lib/libpp.a(pp.o)
                                                  ../lib/libnet80211.a(ieee80211_hostap.o)
                                                  ../lib/libpp.a(pm_for_bcn_only_mode.o)
                                                  ../lib/libpp.a(pm.o)
reset_tcp_block                                   ../lib/libat.a(uart.o)
                                                  ../lib/libat.a(at_ipCmd.o)
rf_init                                           ../lib/libphy.a(phy.o)
rfcal_bb_atten_init                               ../lib/libphy.a(phy_chip_v6_cal.o)
                                                  ../lib/libphy.a(phy_chip_v6.o)
rijndaelEncrypt                                   ../lib/libcrypto.a(aes-internal-enc.o)
rijndaelKeySetupEnc                               ../lib/libcrypto.a(aes-internal.o)
                                                  ../lib/libcrypto.a(aes-internal-dec.o)
                                                  ../lib/libcrypto.a(aes-internal-enc.o)
rom_chip_v5_disable_cca                           ../lib/libphy.a(phy_chip_v6.o)
rom_chip_v5_enable_cca                            ../lib/libphy.a(phy_chip_v6.o)
roundup2                                          ../lib/libnet80211.a(ieee80211_ets.o)
                                                  ../lib/libpp.a(wdev.o)
rsn_cipher_put_suites                             ../lib/libwpa.a(wpa_common.o)
                                                  ../lib/libwpa.a(wpa_auth_ie.o)
rsn_pmkid                                         ../lib/libwpa.a(wpa_common.o)
                                                  ../lib/libwpa.a(wpa_auth.o)
rst_if                                            ../lib/libmain.a(user_interface.o)
                                                  ../lib/libmain.a(app_main.o)
rtc_get_reset_reason                              ../lib/libmain.a(app_main.o)
rtc_mem_backup                                    ../lib/libphy.a(phy_chip_v6.o)
                                                  ../lib/libphy.a(phy_chip_v6_cal.o)
rtc_mem_check                                     ../lib/libphy.a(phy_chip_v6.o)
rtc_mem_recovery                                  ../lib/libphy.a(phy_chip_v6.o)
rx_buff_deq                                       ../lib/libat.a(uart.o)
                                                  ../lib/libat.a(at_port.o)
rx_buff_enq                                       ../lib/libat.a(uart.o)
rx_gain_swp                                       ../lib/libphy.a(phy_chip_v6.o)
rx_table_renew_en                                 ../lib/libphy.a(phy_chip_v6.o)
rxiq_compute_num                                  ../lib/libphy.a(phy_chip_v6.o)
rxiq_cover_fail_num                               ../lib/libphy.a(phy_chip_v6_cal.o)
rxmax_ext_level                                   ../lib/libphy.a(phy_chip_v6.o)
                                                  ../lib/libphy.a(phy_chip_v6_ana.o)
sc_PackCallback                                   ../lib/libsmartconfig.a(sc_sniffer.o)
sc_channel_timer_cb                               ../lib/libsmartconfig.a(sc_sniffer.o)
                                                  ../lib/libsmartconfig.a(sc_esptouch.o)
                                                  ../lib/libsmartconfig.a(sc_airkiss.o)
sc_free_snif_glob                                 ../lib/libsmartconfig.a(sc_sniffer.o)
sc_init_snif_glob                                 ../lib/libsmartconfig.a(sc_sniffer.o)
sc_smartconfig_restart                            ../lib/libsmartconfig.a(sc_sniffer.o)
                                                  ../lib/libsmartconfig.a(sc_esptouch.o)
                                                  ../lib/libsmartconfig.a(sc_airkiss.o)
sc_system_init_done                               ../lib/libsmartconfig.a(sc_sniffer.o)
sc_wifi_scan_done                                 ../lib/libsmartconfig.a(sc_sniffer.o)
scan_add_bssid                                    ../lib/libnet80211.a(ieee80211_scan.o)
                                                  ../lib/libnet80211.a(wl_cnx.o)
scan_add_probe_ssid                               ../lib/libnet80211.a(ieee80211_scan.o)
                                                  ../lib/libnet80211.a(wl_cnx.o)
scan_cancel                                       ../lib/libnet80211.a(ieee80211_scan.o)
                                                  ../lib/libmain.a(user_interface.o)
scan_check_hidden                                 ../lib/libnet80211.a(ieee80211_scan.o)
scan_clear_channles                               ../lib/libnet80211.a(ieee80211_scan.o)
scan_connect_state                                ../lib/libnet80211.a(ieee80211_scan.o)
                                                  ../lib/libpp.a(pp.o)
scan_get_type                                     ../lib/libnet80211.a(ieee80211_scan.o)
                                                  ../lib/libnet80211.a(wl_cnx.o)
scan_hidden_ssid                                  ../lib/libnet80211.a(ieee80211_scan.o)
                                                  ../lib/libnet80211.a(wl_cnx.o)
scan_parse_beacon                                 ../lib/libnet80211.a(ieee80211_scan.o)
                                                  ../lib/libnet80211.a(ieee80211_sta.o)
scan_pm_channel_op_cb                             ../lib/libnet80211.a(ieee80211_scan.o)
scan_profile_check                                ../lib/libnet80211.a(ieee80211_scan.o)
scan_remove_bssid                                 ../lib/libnet80211.a(ieee80211_scan.o)
                                                  ../lib/libnet80211.a(wl_cnx.o)
scan_remove_probe_ssid                            ../lib/libnet80211.a(ieee80211_scan.o)
                                                  ../lib/libnet80211.a(wl_cnx.o)
scan_set_desChan                                  ../lib/libnet80211.a(ieee80211_scan.o)
                                                  ../lib/libnet80211.a(wl_cnx.o)
scan_start                                        ../lib/libnet80211.a(ieee80211_scan.o)
                                                  ../lib/libnet80211.a(wl_cnx.o)
scannum                                           ../lib/libnet80211.a(ieee80211_scan.o)
                                                  ../lib/libmain.a(user_interface.o)
sdt_on_noise_start                                ../lib/libphy.a(phy_chip_v6.o)
send_alert                                        ../lib/libssl.a(ssl_tls1.o)
send_certificate                                  ../lib/libssl.a(ssl_tls1.o)
                                                  ../lib/libssl.a(ssl_tls1_svr.o)
                                                  ../lib/libssl.a(ssl_tls1_clnt.o)
send_change_cipher_spec                           ../lib/libssl.a(ssl_tls1.o)
                                                  ../lib/libssl.a(ssl_tls1_svr.o)
                                                  ../lib/libssl.a(ssl_tls1_clnt.o)
send_finished                                     ../lib/libssl.a(ssl_tls1.o)
                                                  ../lib/libssl.a(ssl_tls1_svr.o)
                                                  ../lib/libssl.a(ssl_tls1_clnt.o)
send_mode                                         ../lib/libat.a(at_ipCmd.o)
send_packet                                       ../lib/libssl.a(ssl_tls1.o)
                                                  ../lib/libssl.a(ssl_tls1_svr.o)
                                                  ../lib/libssl.a(ssl_tls1_clnt.o)
sendingID                                         ../lib/libat.a(at_ipCmd.o)
                                                  ../lib/libat.a(at_port.o)
set_cal_rxdc                                      ../lib/libphy.a(phy_chip_v6.o)
set_crystal_uart                                  ../lib/libphy.a(phy_chip_v6.o)
set_dhcp                                          ../lib/libat.a(at_wifiCmd.o)
                                                  ../lib/libat.a(at_init_para.o)
set_dpd_bypass                                    ../lib/libphy.a(phy_chip_v6.o)
set_most_pwr_reg                                  ../lib/libphy.a(phy_chip_v6.o)
set_rf_freq_offset                                ../lib/libphy.a(phy_chip_v6_ana.o)
set_rf_gain_stage10                               ../lib/libphy.a(phy_chip_v6.o)
set_rfanagain_dc_reg                              ../lib/libphy.a(phy_chip_v6_cal.o)
                                                  ../lib/libphy.a(phy_chip_v6.o)
set_rx_gain_cal_iq                                ../lib/libphy.a(phy_chip_v6.o)
set_rx_gain_testchip_50                           ../lib/libphy.a(phy_chip_v6.o)
set_tcp_block                                     ../lib/libat.a(uart.o)
set_txcap_reg                                     ../lib/libphy.a(phy_chip_v6_ana.o)
                                                  ../lib/libphy.a(phy_chip_v6.o)
set_txdc_pbus                                     ../lib/libphy.a(phy_chip_v6_cal.o)
                                                  ../lib/libphy.a(phy_chip_v6.o)
sha1_prf                                          ../lib/libwpa.a(wpa_common.o)
                                                  ../lib/libwpa.a(wpa_auth.o)
sha1_vector                                       ../lib/libwps.a(wps_common.o)
sha256_prf                                        ../lib/libcrypto.a(sha256.o)
sha256_vector                                     ../lib/libcrypto.a(sha256-internal.o)
                                                  ../lib/libcrypto.a(sha256.o)
                                                  ../lib/libwps.a(wps_common.o)
show_buf                                          ../lib/libwps.a(wps.o)
skip_atoi                                         ../lib/libmain.a(eagle_lib.o)
sleep_mode_flag                                   ../lib/libphy.a(phy_chip_v6_ana.o)
                                                  ../lib/libphy.a(phy_sleep.o)
sleep_opt_8266                                    ../lib/libphy.a(phy_sleep.o)
sleep_opt_bb_on_8266                              ../lib/libphy.a(phy_sleep.o)
sleep_reset_analog_rtcreg_8266                    ../lib/libphy.a(phy_sleep.o)
                                                  ../lib/libmain.a(app_main.o)
sleep_start_wait_time                             ../lib/libpp.a(pp.o)
                                                  ../lib/libpp.a(pm.o)
smart_scanning                                    ../lib/libat.a(at_wifiCmd.o)
smartconfig_cb                                    ../lib/libsmartconfig.a(sc_sniffer.o)
                                                  ../lib/libsmartconfig.a(sc_esptouch.o)
                                                  ../lib/libsmartconfig.a(sc_airkiss.o)
smartconfig_done                                  ../lib/libat.a(at_wifiCmd.o)
smartconfig_get_status                            ../lib/libsmartconfig.a(sc_sniffer.o)
smartconfig_get_version                           ../lib/libsmartconfig.a(sc_sniffer.o)
smartconfig_set_type                              ../lib/libsmartconfig.a(sc_sniffer.o)
                                                  ../lib/libat.a(at_wifiCmd.o)
                                                  user/.output/eagle/debug/lib/libuser.a(AirKiss_Drv.o)
smartconfig_start                                 ../lib/libsmartconfig.a(sc_sniffer.o)
                                                  ../lib/libat.a(at_wifiCmd.o)
                                                  user/.output/eagle/debug/lib/libuser.a(AirKiss_Drv.o)
smartconfig_stop                                  ../lib/libsmartconfig.a(sc_sniffer.o)
                                                  ../lib/libat.a(at_wifiCmd.o)
                                                  user/.output/eagle/debug/lib/libuser.a(AirKiss_Drv.o)
soft_wdt_interval                                 ../lib/libpp.a(pp.o)
software_slp_reject                               ../lib/libphy.a(phy_sleep.o)
specialAtState                                    ../lib/libat.a(at_port.o)
                                                  ../lib/libat.a(at_wifiCmd.o)
                                                  ../lib/libat.a(at_ipCmd.o)
spi_flash_erase_sector                            ../lib/libmain.a(spi_flash.o)
                                                  ../lib/libat.a(at_nv_data.o)
                                                  ../lib/libmain.a(user_interface.o)
spi_flash_get_id                                  ../lib/libmain.a(spi_flash.o)
                                                  ../lib/libmain.a(app_main.o)
spi_flash_get_unique_id                           ../lib/libmain.a(spi_flash.o)
spi_flash_issi_enable_QIO_mode                    ../lib/libmain.a(spi_flash.o)
                                                  ../lib/libmain.a(app_main.o)
spi_flash_read                                    ../lib/libmain.a(spi_flash.o)
                                                  ../lib/libssl.a(espconn_ssl.o)
                                                  ../lib/libpp.a(pm_for_bcn_only_mode.o)
                                                  ../lib/libpp.a(pm.o)
                                                  ../lib/libmain.a(user_interface.o)
                                                  ../lib/libmain.a(app_main.o)
spi_flash_read_status                             ../lib/libmain.a(spi_flash.o)
spi_flash_set_read_func                           ../lib/libmain.a(spi_flash.o)
spi_flash_write                                   ../lib/libmain.a(spi_flash.o)
                                                  ../lib/libmain.a(user_interface.o)
spi_flash_write_status                            ../lib/libmain.a(spi_flash.o)
srand                                             /opt/xtensa-lx106-elf/bin/../lib/gcc/xtensa-lx106-elf/4.8.2/libc.a(rand.o)
                                                  ../lib/libwilddog.a(wilddog_conn_manage.o)
ssl_ctx_free                                      ../lib/libssl.a(ssl_tls1.o)
                                                  ../lib/libssl.a(espconn_ssl.o)
ssl_ctx_new                                       ../lib/libssl.a(ssl_tls1.o)
                                                  ../lib/libssl.a(espconn_ssl.o)
ssl_display_error                                 ../lib/libssl.a(ssl_tls1.o)
                                                  ../lib/libssl.a(espconn_ssl.o)
ssl_free                                          ../lib/libssl.a(ssl_tls1.o)
                                                  ../lib/libssl.a(ssl_tls1_clnt.o)
                                                  ../lib/libssl.a(espconn_ssl.o)
ssl_get_cert_dn                                   ../lib/libssl.a(ssl_tls1.o)
                                                  ../lib/libssl.a(espconn_ssl.o)
ssl_get_cert_subject_alt_dnsname                  ../lib/libssl.a(ssl_tls1.o)
ssl_get_cipher_id                                 ../lib/libssl.a(ssl_tls1.o)
                                                  ../lib/libssl.a(espconn_ssl.o)
ssl_get_config                                    ../lib/libssl.a(ssl_tls1.o)
                                                  ../lib/libssl.a(ssl_crypto_misc.o)
                                                  ../lib/libssl.a(espconn_ssl.o)
ssl_get_session_id                                ../lib/libssl.a(ssl_tls1.o)
                                                  ../lib/libssl.a(espconn_ssl.o)
ssl_get_session_id_size                           ../lib/libssl.a(ssl_tls1.o)
                                                  ../lib/libssl.a(espconn_ssl.o)
ssl_handshake_status                              ../lib/libssl.a(ssl_tls1.o)
                                                  ../lib/libssl.a(espconn_ssl.o)
ssl_hmac_md5                                      ../lib/libssl.a(ssl_hmac.o)
                                                  ../lib/libssl.a(ssl_tls1.o)
ssl_hmac_sha1                                     ../lib/libssl.a(ssl_hmac.o)
                                                  ../lib/libssl.a(ssl_tls1.o)
ssl_new_context                                   ../lib/libssl.a(ssl_tls1.o)
                                                  ../lib/libssl.a(ssl_tls1_svr.o)
                                                  ../lib/libssl.a(ssl_tls1_clnt.o)
ssl_obj_free                                      ../lib/libssl.a(ssl_loader.o)
ssl_obj_load                                      ../lib/libssl.a(ssl_loader.o)
                                                  ../lib/libssl.a(espconn_ssl.o)
ssl_obj_memory_load                               ../lib/libssl.a(ssl_loader.o)
ssl_option                                        ../lib/libssl.a(espconn_secure.o)
                                                  ../lib/libssl.a(ssl_tls1.o)
                                                  ../lib/libssl.a(espconn_ssl.o)
ssl_prot_prefs                                    ../lib/libssl.a(ssl_tls1.o)
                                                  ../lib/libssl.a(ssl_tls1_svr.o)
                                                  ../lib/libssl.a(ssl_tls1_clnt.o)
ssl_read                                          ../lib/libssl.a(ssl_tls1.o)
                                                  ../lib/libssl.a(espconn_ssl.o)
ssl_renegotiate                                   ../lib/libssl.a(ssl_tls1.o)
ssl_session_update                                ../lib/libssl.a(ssl_tls1.o)
                                                  ../lib/libssl.a(ssl_tls1_svr.o)
                                                  ../lib/libssl.a(ssl_tls1_clnt.o)
ssl_verify_cert                                   ../lib/libssl.a(ssl_tls1.o)
ssl_version                                       ../lib/libssl.a(ssl_tls1.o)
ssl_write                                         ../lib/libssl.a(ssl_tls1.o)
                                                  ../lib/libssl.a(espconn_ssl.o)
sslserver_new                                     ../lib/libssl.a(ssl_tls1_svr.o)
                                                  ../lib/libssl.a(espconn_ssl.o)
sta_con_timer                                     ../lib/libnet80211.a(wl_cnx.o)
                                                  ../lib/libmain.a(user_interface.o)
sta_input                                         ../lib/libnet80211.a(ieee80211_sta.o)
                                                  ../lib/libpp.a(pp.o)
sta_status_set                                    ../lib/libnet80211.a(ieee80211_sta.o)
                                                  ../lib/libnet80211.a(wl_cnx.o)
start_dig_rx                                      ../lib/libphy.a(phy_chip_v6.o)
                                                  ../lib/libphy.a(phy_chip_v6_ana.o)
status_led_output_level                           ../lib/libmain.a(user_interface.o)
stop_dig_rx                                       ../lib/libphy.a(phy_chip_v6.o)
                                                  ../lib/libphy.a(phy_chip_v6_ana.o)
str_2_mac                                         ../lib/libat.a(at_wifiCmd.o)
str_to_digit_ex                                   ../lib/libat.a(at_wifiCmd.o)
strchr                                            /opt/xtensa-lx106-elf/bin/../lib/gcc/xtensa-lx106-elf/4.8.2/libc.a(strchr.o)
                                                  ../lib/libwilddog.a(wilddog_url_parser.o)
strtol                                            /opt/xtensa-lx106-elf/bin/../lib/gcc/xtensa-lx106-elf/4.8.2/libc.a(strtol.o)
                                                  /opt/xtensa-lx106-elf/bin/../lib/gcc/xtensa-lx106-elf/4.8.2/libc.a(atoi.o)
sw_scan_mode                                      ../lib/libphy.a(phy_chip_v6.o)
sys_check_timeouts                                ../lib/liblwip.a(timers.o)
                                                  ../lib/libmain.a(app_main.o)
sys_restart_timeouts                              ../lib/liblwip.a(timers.o)
sys_timeout                                       ../lib/liblwip.a(timers.o)
                                                  ../lib/libwps.a(wps_registrar.o)
                                                  ../lib/liblwip.a(ping.o)
sys_timeouts_init                                 ../lib/liblwip.a(timers.o)
                                                  ../lib/liblwip.a(init.o)
sys_untimeout                                     ../lib/liblwip.a(timers.o)
                                                  ../lib/libwps.a(wps_registrar.o)
                                                  ../lib/liblwip.a(ping.o)
system_adc_read                                   ../lib/libmain.a(user_interface.o)
system_adc_read_fast                              ../lib/libmain.a(user_interface.o)
system_deep_sleep                                 ../lib/libmain.a(user_interface.o)
                                                  ../lib/libat.a(at_baseCmd.o)
system_deep_sleep_instant                         ../lib/libmain.a(user_interface.o)
system_deep_sleep_local_2                         ../lib/libmain.a(user_interface.o)
system_deep_sleep_set_option                      ../lib/libmain.a(user_interface.o)
system_get_boot_mode                              ../lib/libmain.a(user_interface.o)
system_get_boot_version                           ../lib/libmain.a(user_interface.o)
system_get_checksum                               ../lib/libmain.a(user_interface.o)
                                                  ../lib/libmain.a(app_main.o)
system_get_chip_id                                ../lib/libmain.a(user_interface.o)
system_get_cpu_freq                               ../lib/libmain.a(user_interface.o)
system_get_data_of_array_16                       ../lib/libmain.a(user_interface.o)
system_get_data_of_array_8                        ../lib/libmain.a(user_interface.o)
                                                  ../lib/liblwip.a(tcp.o)
system_get_flash_size_map                         ../lib/libmain.a(user_interface.o)
                                                  ../lib/libat.a(at_init_para.o)
system_get_free_heap_size                         ../lib/libmain.a(user_interface.o)
                                                  ../lib/libsmartconfig.a(sc_sniffer.o)
                                                  ../lib/libssl.a(espconn_ssl.o)
                                                  ../lib/libssl.a(espconn_secure.o)
                                                  ../lib/libat.a(uart.o)
                                                  user/.output/eagle/debug/lib/libuser.a(WDJson_Drv.o)
system_get_os_print                               ../lib/libmain.a(user_interface.o)
system_get_rst_info                               ../lib/libmain.a(user_interface.o)
system_get_rtc_time                               ../lib/libmain.a(user_interface.o)
system_get_sdk_version                            ../lib/libmain.a(user_interface.o)
                                                  ../lib/libat.a(at_baseCmd.o)
                                                  user/.output/eagle/debug/lib/libuser.a(WildDog_Drv.o)
system_get_string_from_flash                      ../lib/libmain.a(user_interface.o)
                                                  ../lib/libwpa.a(wpa_common.o)
                                                  ../lib/libwpa.a(wpa.o)
                                                  ../lib/libwpa.a(wpa_auth.o)
                                                  ../lib/libmain.a(mem_manager.o)
system_get_test_result                            ../lib/libmain.a(user_interface.o)
system_get_time                                   ../lib/libmain.a(user_interface.o)
                                                  ../lib/libssl.a(ssl_os_port.o)
                                                  ../lib/liblwip.a(ping.o)
                                                  ../lib/libat.a(uart.o)
                                                  user/.output/eagle/debug/lib/libuser.a(WDJson_Drv.o)
                                                  user/.output/eagle/debug/lib/libuser.a(GlobalFunc.o)
                                                  ../lib/libmain.a(app_main.o)
system_get_userbin_addr                           ../lib/libmain.a(user_interface.o)
system_get_vdd33                                  ../lib/libmain.a(user_interface.o)
                                                  ../lib/libat.a(at_baseCmd.o)
system_init_done_cb                               ../lib/libmain.a(user_interface.o)
                                                  ../lib/libsmartconfig.a(sc_sniffer.o)
system_mktime                                     ../lib/libmain.a(user_interface.o)
system_os_post                                    ../lib/libmain.a(user_interface.o)
                                                  ../lib/libat.a(uart.o)
                                                  ../lib/libat.a(at_port.o)
                                                  ../lib/libat.a(at_ipCmd.o)
system_os_task                                    ../lib/libmain.a(user_interface.o)
                                                  ../lib/libat.a(at_port.o)
system_overclock                                  ../lib/libmain.a(user_interface.o)
                                                  ../lib/libssl.a(espconn_ssl.o)
                                                  ../lib/libwpa.a(wpa.o)
system_param_load                                 ../lib/libmain.a(user_interface.o)
                                                  ../lib/libat.a(at_nv_data.o)
system_param_save_with_protect                    ../lib/libmain.a(user_interface.o)
                                                  ../lib/libat.a(at_nv_data.o)
system_phy_set_max_tpw                            ../lib/libmain.a(user_interface.o)
                                                  ../lib/libat.a(at_baseCmd.o)
system_phy_set_powerup_option                     ../lib/libmain.a(user_interface.o)
system_phy_set_rfoption                           ../lib/libmain.a(user_interface.o)
system_phy_set_tpw_via_vdd33                      ../lib/libmain.a(user_interface.o)
                                                  ../lib/libat.a(at_baseCmd.o)
system_phy_temperature_alert                      ../lib/libmain.a(user_interface.o)
system_pp_recycle_rx_pkt                          ../lib/libmain.a(user_interface.o)
                                                  ../lib/liblwip.a(pbuf.o)
system_print_meminfo                              ../lib/libmain.a(user_interface.o)
system_relative_time                              ../lib/libmain.a(user_interface.o)
                                                  ../lib/liblwip.a(ping.o)
system_restart                                    ../lib/libmain.a(user_interface.o)
                                                  ../lib/libat.a(at_port.o)
                                                  ../lib/libat.a(at_ipCmd.o)
                                                  ../lib/libat.a(at_baseCmd.o)
system_restart_core                               ../lib/libmain.a(user_interface.o)
system_restart_enhance                            ../lib/libmain.a(user_interface.o)
system_restart_hook                               ../lib/libmain.a(user_interface.o)
system_restart_local                              ../lib/libmain.a(user_interface.o)
                                                  ../lib/libpp.a(pp.o)
                                                  ../lib/libmain.a(app_main.o)
system_restore                                    ../lib/libmain.a(user_interface.o)
                                                  ../lib/libat.a(at_baseCmd.o)
system_restoreclock                               ../lib/libmain.a(user_interface.o)
                                                  ../lib/libssl.a(espconn_ssl.o)
                                                  ../lib/libwpa.a(wpa.o)
system_rtc_clock_cali_proc                        ../lib/libmain.a(user_interface.o)
system_rtc_mem_read                               ../lib/libmain.a(user_interface.o)
                                                  ../lib/libmain.a(app_main.o)
system_rtc_mem_write                              ../lib/libmain.a(user_interface.o)
                                                  ../lib/libpp.a(pp.o)
                                                  ../lib/libmain.a(app_main.o)
system_save_sys_param                             ../lib/libmain.a(user_interface.o)
system_set_os_print                               ../lib/libmain.a(user_interface.o)
system_show_malloc                                ../lib/libmain.a(mem_manager.o)
                                                  user/.output/eagle/debug/lib/libuser.a(WDJson_Drv.o)
system_soft_wdt_feed                              ../lib/libpp.a(pp.o)
system_soft_wdt_restart                           ../lib/libpp.a(pp.o)
system_soft_wdt_stop                              ../lib/libpp.a(pp.o)
system_station_got_ip_set                         ../lib/libmain.a(user_interface.o)
                                                  ../lib/libwpa.a(wpa_main.o)
                                                  ../lib/liblwip.a(dhcp.o)
system_timer_reinit                               ../lib/libmain.a(user_interface.o)
system_uart_de_swap                               ../lib/libmain.a(user_interface.o)
                                                  ../lib/libmain.a(app_main.o)
system_uart_swap                                  ../lib/libmain.a(user_interface.o)
                                                  ../lib/libmain.a(app_main.o)
system_update_cpu_freq                            ../lib/libmain.a(user_interface.o)
system_upgrade_flag_check                         ../lib/libmain.a(user_interface.o)
system_upgrade_flag_set                           ../lib/libmain.a(user_interface.o)
system_upgrade_reboot                             ../lib/libmain.a(user_interface.o)
system_upgrade_userbin_check                      ../lib/libmain.a(user_interface.o)
system_upgrade_userbin_set                        ../lib/libmain.a(user_interface.o)
target_power_add_backoff                          ../lib/libphy.a(phy_chip_v6.o)
target_power_backoff                              ../lib/libphy.a(phy_chip_v6.o)
tcb                                               ../lib/libpp.a(pp.o)
tcp_abandon                                       ../lib/liblwip.a(tcp.o)
                                                  ../lib/libssl.a(espconn_ssl.o)
                                                  ../lib/liblwip.a(tcp_in.o)
                                                  ../lib/liblwip.a(espconn_tcp.o)
tcp_abort                                         ../lib/liblwip.a(tcp.o)
                                                  ../lib/liblwip.a(tcp_in.o)
                                                  ../lib/liblwip.a(netif.o)
                                                  ../lib/liblwip.a(espconn_tcp.o)
tcp_accept                                        ../lib/liblwip.a(tcp.o)
                                                  ../lib/libssl.a(espconn_ssl.o)
                                                  ../lib/liblwip.a(espconn_tcp.o)
tcp_active_pcbs                                   ../lib/liblwip.a(tcp.o)
                                                  ../lib/libssl.a(espconn_ssl.o)
                                                  ../lib/liblwip.a(timers.o)
                                                  ../lib/liblwip.a(tcp_in.o)
                                                  ../lib/liblwip.a(pbuf.o)
                                                  ../lib/liblwip.a(netif.o)
                                                  ../lib/liblwip.a(espconn_tcp.o)
tcp_alloc                                         ../lib/liblwip.a(tcp.o)
                                                  ../lib/liblwip.a(tcp_in.o)
tcp_arg                                           ../lib/liblwip.a(tcp.o)
                                                  ../lib/libssl.a(espconn_ssl.o)
                                                  ../lib/liblwip.a(espconn_tcp.o)
tcp_backoff                                       ../lib/liblwip.a(tcp.o)
tcp_bind                                          ../lib/liblwip.a(tcp.o)
                                                  ../lib/libssl.a(espconn_ssl.o)
                                                  ../lib/liblwip.a(espconn_tcp.o)
tcp_bound_pcbs                                    ../lib/liblwip.a(tcp.o)
tcp_close                                         ../lib/liblwip.a(tcp.o)
                                                  ../lib/libssl.a(espconn_ssl.o)
                                                  ../lib/liblwip.a(espconn_tcp.o)
tcp_connect                                       ../lib/liblwip.a(tcp.o)
                                                  ../lib/libssl.a(espconn_ssl.o)
                                                  ../lib/liblwip.a(espconn_tcp.o)
tcp_eff_send_mss                                  ../lib/liblwip.a(tcp.o)
                                                  ../lib/liblwip.a(tcp_in.o)
tcp_enqueue_flags                                 ../lib/liblwip.a(tcp_out.o)
                                                  ../lib/liblwip.a(tcp.o)
                                                  ../lib/liblwip.a(tcp_in.o)
tcp_err                                           ../lib/liblwip.a(tcp.o)
                                                  ../lib/libssl.a(espconn_ssl.o)
                                                  ../lib/liblwip.a(espconn_tcp.o)
tcp_fasttmr                                       ../lib/liblwip.a(tcp.o)
tcp_input                                         ../lib/liblwip.a(tcp_in.o)
                                                  ../lib/liblwip.a(ip.o)
tcp_input_pcb                                     ../lib/liblwip.a(tcp_in.o)
                                                  ../lib/liblwip.a(tcp_out.o)
tcp_keepalive                                     ../lib/liblwip.a(tcp_out.o)
                                                  ../lib/liblwip.a(tcp.o)
tcp_listen_pcbs                                   ../lib/liblwip.a(tcp.o)
                                                  ../lib/liblwip.a(tcp_in.o)
                                                  ../lib/liblwip.a(netif.o)
tcp_listen_with_backlog                           ../lib/liblwip.a(tcp.o)
                                                  ../lib/libssl.a(espconn_ssl.o)
                                                  ../lib/liblwip.a(espconn_tcp.o)
tcp_new                                           ../lib/liblwip.a(tcp.o)
                                                  ../lib/libssl.a(espconn_ssl.o)
                                                  ../lib/liblwip.a(espconn_tcp.o)
tcp_next_iss                                      ../lib/liblwip.a(tcp.o)
tcp_output                                        ../lib/liblwip.a(tcp_out.o)
                                                  ../lib/libssl.a(ssl_tls1.o)
                                                  ../lib/libssl.a(espconn_ssl.o)
                                                  ../lib/liblwip.a(tcp.o)
                                                  ../lib/liblwip.a(tcp_in.o)
                                                  ../lib/liblwip.a(espconn_tcp.o)
tcp_pcb_lists                                     ../lib/liblwip.a(tcp.o)
                                                  ../lib/liblwip.a(espconn_tcp.o)
tcp_pcb_purge                                     ../lib/liblwip.a(tcp.o)
                                                  ../lib/liblwip.a(tcp_in.o)
                                                  ../lib/liblwip.a(espconn_tcp.o)
tcp_pcb_remove                                    ../lib/liblwip.a(tcp.o)
                                                  ../lib/liblwip.a(tcp_in.o)
                                                  ../lib/liblwip.a(espconn_tcp.o)
tcp_persist_backoff                               ../lib/liblwip.a(tcp.o)
tcp_poll                                          ../lib/liblwip.a(tcp.o)
                                                  ../lib/libssl.a(espconn_ssl.o)
                                                  ../lib/liblwip.a(espconn_tcp.o)
tcp_recv                                          ../lib/liblwip.a(tcp.o)
                                                  ../lib/libssl.a(espconn_ssl.o)
                                                  ../lib/liblwip.a(espconn_tcp.o)
tcp_recv_null                                     ../lib/liblwip.a(tcp.o)
                                                  ../lib/liblwip.a(tcp_in.o)
tcp_recved                                        ../lib/liblwip.a(tcp.o)
                                                  ../lib/libssl.a(espconn_ssl.o)
                                                  ../lib/liblwip.a(espconn_tcp.o)
tcp_rexmit                                        ../lib/liblwip.a(tcp_out.o)
                                                  ../lib/liblwip.a(tcp_in.o)
tcp_rexmit_fast                                   ../lib/liblwip.a(tcp_out.o)
                                                  ../lib/liblwip.a(tcp_in.o)
tcp_rexmit_rto                                    ../lib/liblwip.a(tcp_out.o)
                                                  ../lib/liblwip.a(tcp.o)
tcp_rst                                           ../lib/liblwip.a(tcp_out.o)
                                                  ../lib/liblwip.a(tcp.o)
                                                  ../lib/liblwip.a(tcp_in.o)
tcp_seg_copy                                      ../lib/liblwip.a(tcp.o)
                                                  ../lib/liblwip.a(tcp_in.o)
tcp_seg_free                                      ../lib/liblwip.a(tcp.o)
                                                  ../lib/liblwip.a(tcp_out.o)
                                                  ../lib/liblwip.a(tcp_in.o)
                                                  ../lib/liblwip.a(pbuf.o)
tcp_segs_free                                     ../lib/liblwip.a(tcp.o)
                                                  ../lib/liblwip.a(tcp_out.o)
                                                  ../lib/liblwip.a(tcp_in.o)
tcp_send_empty_ack                                ../lib/liblwip.a(tcp_out.o)
                                                  ../lib/liblwip.a(tcp_in.o)
tcp_send_fin                                      ../lib/liblwip.a(tcp_out.o)
                                                  ../lib/liblwip.a(tcp.o)
tcp_sent                                          ../lib/liblwip.a(tcp.o)
                                                  ../lib/libssl.a(espconn_ssl.o)
                                                  ../lib/liblwip.a(espconn_tcp.o)
tcp_server_ip                                     user/.output/eagle/debug/lib/libuser.a(user_tcpclient.o)
tcp_setprio                                       ../lib/liblwip.a(tcp.o)
tcp_shutdown                                      ../lib/liblwip.a(tcp.o)
tcp_slowtmr                                       ../lib/liblwip.a(tcp.o)
tcp_ticks                                         ../lib/liblwip.a(tcp.o)
                                                  ../lib/liblwip.a(tcp_out.o)
                                                  ../lib/liblwip.a(tcp_in.o)
                                                  ../lib/liblwip.a(espconn_tcp.o)
tcp_timer_needed                                  ../lib/liblwip.a(timers.o)
                                                  ../lib/liblwip.a(tcp.o)
                                                  ../lib/liblwip.a(tcp_in.o)
tcp_tmp_pcb                                       ../lib/liblwip.a(tcp.o)
                                                  ../lib/liblwip.a(tcp_in.o)
tcp_tmr                                           ../lib/liblwip.a(tcp.o)
                                                  ../lib/liblwip.a(timers.o)
tcp_tw_pcbs                                       ../lib/liblwip.a(tcp.o)
                                                  ../lib/libssl.a(espconn_ssl.o)
                                                  ../lib/liblwip.a(timers.o)
                                                  ../lib/liblwip.a(tcp_in.o)
                                                  ../lib/liblwip.a(espconn_tcp.o)
tcp_update_rcv_ann_wnd                            ../lib/liblwip.a(tcp.o)
                                                  ../lib/liblwip.a(tcp_in.o)
tcp_write                                         ../lib/liblwip.a(tcp_out.o)
                                                  ../lib/libssl.a(ssl_tls1.o)
                                                  ../lib/libssl.a(espconn_ssl.o)
                                                  ../lib/liblwip.a(espconn_tcp.o)
tcp_zero_window_probe                             ../lib/liblwip.a(tcp_out.o)
                                                  ../lib/liblwip.a(tcp.o)
test_print_time                                   ../lib/libphy.a(phy_chip_v6.o)
test_rffreq_txcap                                 ../lib/libphy.a(phy_chip_v6.o)
test_timer1                                       user/.output/eagle/debug/lib/libuser.a(WildDog_Drv.o)
                                                  ../lib/libwilddog.a(wilddog_espressif.o)
test_timer2                                       user/.output/eagle/debug/lib/libuser.a(WildDog_Drv.o)
test_tout                                         ../lib/libphy.a(phy_chip_v6_ana.o)
                                                  ../lib/libmain.a(user_interface.o)
timer2_ms_flag                                    ../lib/libmain.a(user_interface.o)
                                                  ../lib/liblwip.a(timers.o)
                                                  ../lib/libpp.a(pm_for_bcn_only_mode.o)
                                                  ../lib/libpp.a(pm.o)
                                                  ../lib/libmain.a(ets_timer.o)
timer_list                                        ../lib/libmain.a(ets_timer.o)
                                                  ../lib/libpp.a(pm_for_bcn_only_mode.o)
                                                  ../lib/libpp.a(pm.o)
tkip                                              ../lib/libnet80211.a(ieee80211_crypto_tkip.o)
                                                  ../lib/libwpa.a(wpa_main.o)
                                                  ../lib/libwpa.a(wpa_auth.o)
total_buffed_eb_num                               ../lib/libpp.a(pp.o)
                                                  ../lib/libnet80211.a(ieee80211_hostap.o)
tout_dis_txpwr_track                              ../lib/libphy.a(phy_chip_v6_ana.o)
                                                  ../lib/libphy.a(phy_chip_v6_cal.o)
trans_client_connect                              ../lib/libat.a(at_ipCmd.o)
trans_client_init                                 ../lib/libat.a(at_ipCmd.o)
                                                  ../lib/libat.a(at_init_para.o)
trans_config_reinit                               ../lib/libat.a(at_ipCmd.o)
trc_NeedRTS                                       ../lib/libpp.a(trc.o)
trc_onDisconnect                                  ../lib/libpp.a(trc.o)
trc_onScanDone                                    ../lib/libpp.a(trc.o)
trc_onScanStart                                   ../lib/libpp.a(trc.o)
tsen_meas                                         ../lib/libphy.a(phy_chip_v6_ana.o)
tx_atten_set_interp                               ../lib/libphy.a(phy_chip_v6.o)
                                                  ../lib/libphy.a(phy_chip_v6_cal.o)
                                                  ../lib/libphy.a(phy_chip_v6_ana.o)
tx_buff_enq                                       ../lib/libat.a(uart.o)
                                                  ../lib/libat.a(at_ipCmd.o)
tx_cap_init                                       ../lib/libphy.a(phy_chip_v6.o)
tx_cont_cfg                                       ../lib/libphy.a(phy_chip_v6.o)
tx_cont_dis                                       ../lib/libphy.a(phy_chip_v6.o)
tx_cont_en                                        ../lib/libphy.a(phy_chip_v6.o)
tx_pwctrl_background                              ../lib/libphy.a(phy_chip_v6_cal.o)
                                                  ../lib/libpp.a(pp.o)
tx_pwctrl_bg_init                                 ../lib/libphy.a(phy_chip_v6_cal.o)
                                                  ../lib/libphy.a(phy_chip_v6.o)
tx_pwctrl_cal                                     ../lib/libphy.a(phy_chip_v6_cal.o)
tx_pwctrl_init                                    ../lib/libphy.a(phy_chip_v6.o)
tx_pwctrl_init_cal                                ../lib/libphy.a(phy_chip_v6.o)
tx_pwctrl_pk_num                                  ../lib/libphy.a(phy_chip_v6_cal.o)
tx_pwctrl_track_num                               ../lib/libphy.a(phy_chip_v6_cal.o)
tx_pwr_backoff                                    ../lib/libphy.a(phy_chip_v6_cal.o)
                                                  ../lib/libphy.a(phy_chip_v6.o)
tx_rf_ana_gain                                    ../lib/libphy.a(phy_chip_v6.o)
                                                  ../lib/libphy.a(phy_chip_v6_cal.o)
tx_start_uart_buffer                              ../lib/libat.a(uart.o)
                                                  ../lib/libat.a(at_port.o)
txbbgain2dcoindex                                 ../lib/libphy.a(phy_chip_v6_cal.o)
txbk_dpdby_flag                                   ../lib/libphy.a(phy_chip_v6.o)
txiq_cover                                        ../lib/libphy.a(phy_chip_v6_cal.o)
txiq_get_mis_pwr                                  ../lib/libphy.a(phy_chip_v6_cal.o)
txpwr_offset                                      ../lib/libphy.a(phy_chip_v6_ana.o)
                                                  ../lib/libphy.a(phy_chip_v6.o)
uart0_rx_intr_handler_for_user                    ../lib/libat.a(uart.o)
uart1_sendStr_no_wait                             ../lib/libat.a(uart.o)
uart_buf_free                                     ../lib/libat.a(uart.o)
uart_buff_switch                                  ../lib/libphy.a(phy_chip_v6.o)
uart_div_modify                                   ../lib/libat.a(uart.o)
                                                  ../lib/libat.a(at_baseCmd.o)
                                                  ../lib/libmain.a(app_main.o)
uart_init                                         ../lib/libat.a(uart.o)
                                                  ../lib/libat.a(at_init_para.o)
uart_reattach                                     ../lib/libat.a(uart.o)
uart_rx_intr_disable                              ../lib/libat.a(uart.o)
uart_rx_intr_enable                               ../lib/libat.a(uart.o)
                                                  ../lib/libat.a(at_port.o)
uart_rx_soft_buf_state                            ../lib/libat.a(uart.o)
                                                  ../lib/libat.a(at_port.o)
uart_set_rx_buf_state                             ../lib/libat.a(uart.o)
                                                  ../lib/libat.a(at_ipCmd.o)
uart_tx_buffer_get_size                           ../lib/libat.a(uart.o)
uart_tx_buffer_set_size                           ../lib/libat.a(uart.o)
                                                  ../lib/libat.a(at_ipCmd.o)
uart_tx_flush                                     ../lib/libpp.a(pm.o)
                                                  ../lib/libphy.a(phy_chip_v6.o)
uart_tx_one_char                                  ../lib/libat.a(uart.o)
uart_tx_one_char_no_wait                          ../lib/libat.a(uart.o)
uart_wait_idle                                    ../lib/libphy.a(phy_chip_v6.o)
udp_bind                                          ../lib/liblwip.a(udp.o)
                                                  ../lib/liblwip.a(mdns.o)
                                                  ../lib/liblwip.a(espconn_udp.o)
                                                  ../lib/liblwip.a(dns.o)
                                                  ../lib/liblwip.a(dhcpserver.o)
                                                  ../lib/liblwip.a(dhcp.o)
udp_connect                                       ../lib/liblwip.a(udp.o)
                                                  ../lib/liblwip.a(dns.o)
                                                  ../lib/liblwip.a(dhcp.o)
udp_disconnect                                    ../lib/liblwip.a(udp.o)
                                                  ../lib/liblwip.a(espconn_udp.o)
                                                  ../lib/liblwip.a(dhcpserver.o)
udp_input                                         ../lib/liblwip.a(udp.o)
                                                  ../lib/liblwip.a(ip.o)
udp_new                                           ../lib/liblwip.a(udp.o)
                                                  ../lib/liblwip.a(mdns.o)
                                                  ../lib/liblwip.a(espconn_udp.o)
                                                  ../lib/liblwip.a(dns.o)
                                                  ../lib/liblwip.a(dhcpserver.o)
                                                  ../lib/liblwip.a(dhcp.o)
udp_pcbs                                          ../lib/liblwip.a(udp.o)
udp_recv                                          ../lib/liblwip.a(udp.o)
                                                  ../lib/liblwip.a(mdns.o)
                                                  ../lib/liblwip.a(espconn_udp.o)
                                                  ../lib/liblwip.a(dns.o)
                                                  ../lib/liblwip.a(dhcpserver.o)
                                                  ../lib/liblwip.a(dhcp.o)
udp_remove                                        ../lib/liblwip.a(udp.o)
                                                  ../lib/liblwip.a(mdns.o)
                                                  ../lib/liblwip.a(espconn_udp.o)
                                                  ../lib/liblwip.a(dhcpserver.o)
                                                  ../lib/liblwip.a(dhcp.o)
udp_send                                          ../lib/liblwip.a(udp.o)
                                                  ../lib/liblwip.a(espconn_udp.o)
udp_sendto                                        ../lib/liblwip.a(udp.o)
                                                  ../lib/liblwip.a(mdns.o)
                                                  ../lib/liblwip.a(espconn_udp.o)
                                                  ../lib/liblwip.a(dns.o)
                                                  ../lib/liblwip.a(dhcpserver.o)
udp_sendto_if                                     ../lib/liblwip.a(udp.o)
                                                  ../lib/liblwip.a(dhcp.o)
udp_sent_cnt                                      user/.output/eagle/debug/lib/libuser.a(AirKiss_Drv.o)
unregister_ieee80211_action_vendor_get_key_cb     ../lib/libnet80211.a(ieee80211_action_vendor.o)
unregister_ieee80211_action_vendor_spec_cb        ../lib/libnet80211.a(ieee80211_action_vendor.o)
unregister_ieee80211_rfid_locp_recv_cb            ../lib/libnet80211.a(ieee80211_rfid.o)
                                                  ../lib/libmain.a(user_interface.o)
unsign_to_sign                                    ../lib/libphy.a(phy_chip_v6_cal.o)
unsupported_str                                   ../lib/libssl.a(ssl_crypto_misc.o)
user_check_ip                                     user/.output/eagle/debug/lib/libuser.a(user_tcpclient.o)
user_init                                         user/.output/eagle/debug/lib/libuser.a(user_main.o)
                                                  ../lib/libmain.a(app_main.o)
user_init_flag                                    ../lib/libmain.a(app_main.o)
                                                  ../lib/libsmartconfig.a(sc_sniffer.o)
                                                  ../lib/libwps.a(wps.o)
                                                  ../lib/libmain.a(user_interface.o)
user_rf_pre_init                                  user/.output/eagle/debug/lib/libuser.a(user_main.o)
                                                  ../lib/libmain.a(app_main.o)
user_set_station_config                           user/.output/eagle/debug/lib/libuser.a(user_tcpclient.o)
                                                  user/.output/eagle/debug/lib/libuser.a(user_main.o)
user_system_init_from_flash                       ../lib/libat.a(at_init_para.o)
                                                  ../lib/libat.a(at_port.o)
user_uart_wait_tx_fifo_empty                      ../lib/libmain.a(app_main.o)
                                                  ../lib/libmain.a(user_interface.o)
uuid_bin2str                                      ../lib/libwps.a(uuid.o)
                                                  ../lib/libwps.a(wps_registrar.o)
uuid_gen_mac_addr                                 ../lib/libwps.a(wps_common.o)
                                                  ../lib/libwps.a(wps.o)
uuid_str2bin                                      ../lib/libwps.a(uuid.o)
vPortFree                                         ../lib/libmain.a(mem_manager.o)
                                                  ../lib/libcrypto.a(bignum.o)
                                                  ../lib/libcrypto.a(aes-internal-dec.o)
                                                  ../lib/libwpa.a(wpabuf.o)
                                                  ../lib/libwilddog.a(wilddog_common.o)
                                                  ../lib/libsmartconfig.a(sc_esptouch.o)
                                                  ../lib/libsmartconfig.a(sc_airkiss.o)
                                                  ../lib/libsmartconfig.a(sc_sniffer.o)
                                                  ../lib/libwps.a(wps_registrar.o)
                                                  ../lib/libwps.a(wps_dev_attr.o)
                                                  ../lib/libwps.a(wps.o)
                                                  ../lib/libssl.a(ssl_rsa.o)
                                                  ../lib/libssl.a(ssl_bigint.o)
                                                  ../lib/libssl.a(ssl_asn1.o)
                                                  ../lib/libssl.a(ssl_x509.o)
                                                  ../lib/libssl.a(ssl_tls1.o)
                                                  ../lib/libssl.a(ssl_loader.o)
                                                  ../lib/libssl.a(espconn_ssl.o)
                                                  ../lib/libssl.a(espconn_secure.o)
                                                  ../lib/libcrypto.a(aes-internal-enc.o)
                                                  ../lib/libwpa.a(wpa_main.o)
                                                  ../lib/libwpa.a(wpa_auth_ie.o)
                                                  ../lib/libwpa.a(wpa_auth.o)
                                                  ../lib/libwpa.a(common.o)
                                                  ../lib/libwpa.a(ap_config.o)
                                                  ../lib/liblwip.a(udp.o)
                                                  ../lib/liblwip.a(timers.o)
                                                  ../lib/liblwip.a(tcp.o)
                                                  ../lib/liblwip.a(tcp_in.o)
                                                  ../lib/liblwip.a(raw.o)
                                                  ../lib/liblwip.a(ping.o)
                                                  ../lib/liblwip.a(pbuf.o)
                                                  ../lib/liblwip.a(mdns.o)
                                                  ../lib/liblwip.a(igmp.o)
                                                  ../lib/liblwip.a(etharp.o)
                                                  ../lib/liblwip.a(espconn_udp.o)
                                                  ../lib/liblwip.a(espconn_tcp.o)
                                                  ../lib/liblwip.a(dns.o)
                                                  ../lib/liblwip.a(dhcpserver.o)
                                                  ../lib/liblwip.a(dhcp.o)
                                                  ../lib/libnet80211.a(wl_cnx.o)
                                                  ../lib/libnet80211.a(ieee80211_sta.o)
                                                  ../lib/libnet80211.a(ieee80211_scan.o)
                                                  ../lib/libnet80211.a(ieee80211_phy.o)
                                                  ../lib/libnet80211.a(ieee80211_mesh_quick.o)
                                                  ../lib/libnet80211.a(ieee80211_hostap.o)
                                                  ../lib/libnet80211.a(ieee80211.o)
                                                  ../lib/libpp.a(esf_buf.o)
                                                  ../lib/libpp.a(wdev.o)
                                                  ../lib/libpp.a(pp.o)
                                                  ../lib/libpp.a(pm_for_bcn_only_mode.o)
                                                  ../lib/libpp.a(pm.o)
                                                  ../lib/libat.a(at_init_para.o)
                                                  ../lib/libat.a(uart.o)
                                                  ../lib/libat.a(at_wifiCmd.o)
                                                  ../lib/libat.a(at_port.o)
                                                  ../lib/libat.a(at_nv_data.o)
                                                  ../lib/libat.a(at_ipCmd.o)
                                                  ../lib/libat.a(at_baseCmd.o)
                                                  user/.output/eagle/debug/lib/libuser.a(WDJson_Drv.o)
                                                  ../lib/libmain.a(eagle_lwip_if.o)
                                                  ../lib/libmain.a(user_interface.o)
                                                  ../lib/libmain.a(app_main.o)
vPortInitialiseBlocks                             ../lib/libmain.a(mem_manager.o)
wDevCtrl                                          ../lib/libpp.a(wdev.o)
                                                  ../lib/libpp.a(esf_buf.o)
                                                  ../lib/libpp.a(pp.o)
wDevDisableRx                                     ../lib/libpp.a(wdev.o)
                                                  ../lib/libnet80211.a(ieee80211_hostap.o)
                                                  ../lib/libpp.a(if_hwctrl.o)
                                                  ../lib/libmain.a(user_interface.o)
wDevEnableRx                                      ../lib/libpp.a(wdev.o)
                                                  ../lib/libpp.a(if_hwctrl.o)
                                                  ../lib/libmain.a(user_interface.o)
                                                  ../lib/libmain.a(app_main.o)
wDevForceAck6M                                    ../lib/libpp.a(wdev.o)
wDev_AppendRxAmpduLensBlocks                      ../lib/libpp.a(wdev.o)
wDev_AppendRxBlocks                               ../lib/libpp.a(wdev.o)
                                                  ../lib/libpp.a(pp.o)
wDev_ClearBssid                                   ../lib/libpp.a(wdev.o)
wDev_ClearTxqCollisions                           ../lib/libpp.a(wdev.o)
                                                  ../lib/libpp.a(lmac.o)
wDev_ClearWaitingQueue                            ../lib/libpp.a(wdev.o)
                                                  ../lib/libpp.a(lmac.o)
wDev_Crypto_Conf                                  ../lib/libpp.a(wdev.o)
                                                  ../lib/libpp.a(if_hwctrl.o)
wDev_Crypto_Disable                               ../lib/libpp.a(wdev.o)
                                                  ../lib/libpp.a(if_hwctrl.o)
wDev_DisableTransmit                              ../lib/libpp.a(wdev.o)
wDev_Disable_Beacon_Tsf                           ../lib/libpp.a(wdev.o)
wDev_EnableTransmit                               ../lib/libpp.a(wdev.o)
                                                  ../lib/libpp.a(lmac.o)
wDev_Enable_Beacon_Tsf                            ../lib/libpp.a(wdev.o)
wDev_GetBAInfo                                    ../lib/libpp.a(wdev.o)
                                                  ../lib/libpp.a(lmac.o)
wDev_GetTxqCollisions                             ../lib/libpp.a(wdev.o)
                                                  ../lib/libpp.a(lmac.o)
wDev_Get_Next_TBTT                                ../lib/libpp.a(wdev.o)
                                                  ../lib/libnet80211.a(ieee80211_hostap.o)
wDev_Initialize                                   ../lib/libpp.a(wdev.o)
                                                  ../lib/libmain.a(app_main.o)
wDev_Insert_KeyEntry                              ../lib/libpp.a(wdev.o)
                                                  ../lib/libpp.a(if_hwctrl.o)
wDev_MacTim1Arm                                   ../lib/libpp.a(wdev.o)
                                                  ../lib/libpp.a(pp.o)
wDev_MacTim1SetFunc                               ../lib/libpp.a(wdev.o)
                                                  ../lib/libpp.a(pp.o)
wDev_Option_Init                                  ../lib/libpp.a(wdev.o)
wDev_ProcessCollision                             ../lib/libpp.a(wdev.o)
                                                  ../lib/libpp.a(lmac.o)
wDev_ProcessFiq                                   ../lib/libpp.a(wdev.o)
                                                  ../lib/libmain.a(app_main.o)
wDev_Reset_TBTT                                   ../lib/libpp.a(wdev.o)
                                                  ../lib/libnet80211.a(ieee80211_hostap.o)
wDev_SetBssid                                     ../lib/libpp.a(wdev.o)
wDev_SetFrameAckType                              ../lib/libpp.a(wdev.o)
                                                  ../lib/libpp.a(lmac.o)
wDev_SetMacAddress                                ../lib/libpp.a(wdev.o)
                                                  ../lib/libpp.a(if_hwctrl.o)
                                                  ../lib/libmain.a(user_interface.o)
wDev_SetRxPolicy                                  ../lib/libpp.a(wdev.o)
                                                  ../lib/libnet80211.a(wl_cnx.o)
                                                  ../lib/libnet80211.a(ieee80211_scan.o)
                                                  ../lib/libnet80211.a(ieee80211_hostap.o)
                                                  ../lib/libpp.a(if_hwctrl.o)
wDev_SetWaitingQueue                              ../lib/libpp.a(wdev.o)
                                                  ../lib/libpp.a(lmac.o)
wDev_Set_Beacon_Int                               ../lib/libpp.a(wdev.o)
                                                  ../lib/libnet80211.a(ieee80211_hostap.o)
                                                  ../lib/libmain.a(user_interface.o)
                                                  ../lib/libmain.a(app_main.o)
wDev_remove_KeyEntry                              ../lib/libpp.a(wdev.o)
                                                  ../lib/libwpa.a(wpa_main.o)
                                                  ../lib/libnet80211.a(wl_cnx.o)
                                                  ../lib/libpp.a(if_hwctrl.o)
wDev_remove_KeyEntry_all_cnx                      ../lib/libpp.a(wdev.o)
                                                  ../lib/libnet80211.a(wl_cnx.o)
                                                  ../lib/libnet80211.a(ieee80211_hostap.o)
wait_for_buffer                                   ../lib/libat.a(at_ipCmd.o)
                                                  ../lib/libat.a(at_port.o)
wait_rfpll_cal_end                                ../lib/libphy.a(phy_chip_v6_ana.o)
                                                  ../lib/libphy.a(phy_chip_v6.o)
wdev_exit_sniffer                                 ../lib/libpp.a(wdev.o)
                                                  ../lib/libmain.a(user_interface.o)
wdev_go_sniffer                                   ../lib/libpp.a(wdev.o)
                                                  ../lib/libmain.a(user_interface.o)
wdev_set_sniffer_addr                             ../lib/libpp.a(wdev.o)
wdt_feed                                          ../lib/libmain.a(app_main.o)
wdt_init                                          ../lib/libmain.a(app_main.o)
weixin_ip                                         ../lib/libsmartconfig.a(sc_airkiss.o)
weixin_timer                                      ../lib/libsmartconfig.a(sc_airkiss.o)
                                                  ../lib/libsmartconfig.a(sc_sniffer.o)
wep                                               ../lib/libnet80211.a(ieee80211_crypto_wep.o)
                                                  ../lib/libwpa.a(wpa_main.o)
                                                  ../lib/libwpa.a(wpa_auth.o)
wfree                                             ../lib/libwilddog.a(wilddog_common.o)
                                                  ../lib/libwilddog.a(wilddog_cbor.o)
                                                  ../lib/libwilddog.a(pdu.o)
                                                  ../lib/libwilddog.a(wilddog_event.o)
                                                  ../lib/libwilddog.a(wilddog_conn_manage.o)
                                                  ../lib/libwilddog.a(wilddog_conn_coap.o)
                                                  ../lib/libwilddog.a(wilddog_conn.o)
                                                  ../lib/libwilddog.a(wilddog_url_parser.o)
                                                  ../lib/libwilddog.a(wilddog_store.o)
                                                  ../lib/libwilddog.a(wilddog_node.o)
                                                  ../lib/libwilddog.a(wilddog_espressif.o)
                                                  ../lib/libwilddog.a(wilddog_ct.o)
wifi_enable_6m_rate                               ../lib/libmain.a(user_interface.o)
wifi_event_handler_cb                             ../lib/libat.a(at_ipCmd.o)
                                                  ../lib/libat.a(at_port.o)
wifi_fpm_auto_sleep_set_in_null_mode              ../lib/libpp.a(pm_for_bcn_only_mode.o)
wifi_fpm_close                                    ../lib/libpp.a(pm_for_bcn_only_mode.o)
wifi_fpm_do_sleep                                 ../lib/libpp.a(pm_for_bcn_only_mode.o)
                                                  ../lib/libmain.a(user_interface.o)
wifi_fpm_do_wakeup                                ../lib/libpp.a(pm_for_bcn_only_mode.o)
wifi_fpm_get_sleep_type                           ../lib/libpp.a(pm_for_bcn_only_mode.o)
wifi_fpm_open                                     ../lib/libpp.a(pm_for_bcn_only_mode.o)
                                                  ../lib/libmain.a(user_interface.o)
wifi_fpm_set_sleep_type                           ../lib/libpp.a(pm_for_bcn_only_mode.o)
                                                  ../lib/libmain.a(user_interface.o)
wifi_fpm_set_wakeup_cb                            ../lib/libpp.a(pm_for_bcn_only_mode.o)
wifi_get_broadcast_if                             ../lib/libmain.a(user_interface.o)
                                                  ../lib/liblwip.a(mdns.o)
wifi_get_channel                                  ../lib/libmain.a(user_interface.o)
                                                  ../lib/libsmartconfig.a(sc_esptouch.o)
                                                  ../lib/libsmartconfig.a(sc_airkiss.o)
                                                  ../lib/libat.a(at_wifiCmd.o)
wifi_get_ip_info                                  ../lib/libmain.a(user_interface.o)
                                                  ../lib/libsmartconfig.a(sc_esptouch.o)
                                                  ../lib/libsmartconfig.a(sc_airkiss.o)
                                                  ../lib/libssl.a(espconn_secure.o)
                                                  ../lib/liblwip.a(mdns.o)
                                                  ../lib/liblwip.a(espconn_udp.o)
                                                  ../lib/liblwip.a(espconn.o)
                                                  ../lib/liblwip.a(dhcpserver.o)
                                                  ../lib/libat.a(at_init_para.o)
                                                  ../lib/libat.a(at_wifiCmd.o)
                                                  ../lib/libat.a(at_ipCmd.o)
                                                  user/.output/eagle/debug/lib/libuser.a(WildDog_Drv.o)
                                                  user/.output/eagle/debug/lib/libuser.a(user_tcpclient.o)
                                                  user/.output/eagle/debug/lib/libuser.a(AirKiss_Drv.o)
wifi_get_macaddr                                  ../lib/libmain.a(user_interface.o)
                                                  ../lib/libsmartconfig.a(sc_esptouch.o)
                                                  ../lib/libsmartconfig.a(sc_airkiss.o)
                                                  ../lib/libwps.a(wps.o)
                                                  ../lib/libnet80211.a(ieee80211_output.o)
                                                  ../lib/libnet80211.a(ieee80211_hostap.o)
                                                  ../lib/libat.a(at_wifiCmd.o)
                                                  ../lib/libat.a(at_ipCmd.o)
wifi_get_opmode                                   ../lib/libmain.a(user_interface.o)
                                                  ../lib/libsmartconfig.a(sc_sniffer.o)
                                                  ../lib/libwps.a(wps.o)
                                                  ../lib/libssl.a(espconn_secure.o)
                                                  ../lib/liblwip.a(mdns.o)
                                                  ../lib/liblwip.a(espconn_udp.o)
                                                  ../lib/liblwip.a(espconn.o)
                                                  ../lib/liblwip.a(dhcpserver.o)
                                                  ../lib/libnet80211.a(wl_cnx.o)
                                                  ../lib/libnet80211.a(ieee80211_scan.o)
                                                  ../lib/libnet80211.a(ieee80211_hostap.o)
                                                  ../lib/libpp.a(pm_for_bcn_only_mode.o)
                                                  ../lib/libat.a(at_init_para.o)
                                                  ../lib/libat.a(at_wifiCmd.o)
                                                  ../lib/libat.a(at_port.o)
                                                  ../lib/libat.a(at_ipCmd.o)
                                                  user/.output/eagle/debug/lib/libuser.a(GizCmdTest.o)
                                                  user/.output/eagle/debug/lib/libuser.a(user_tcpclient.o)
wifi_get_opmode_default                           ../lib/libmain.a(user_interface.o)
                                                  ../lib/libat.a(at_wifiCmd.o)
wifi_get_phy_mode                                 ../lib/libmain.a(user_interface.o)
wifi_get_sleep_type                               ../lib/libmain.a(user_interface.o)
                                                  ../lib/libat.a(at_baseCmd.o)
wifi_get_user_fixed_rate                          ../lib/libmain.a(user_interface.o)
wifi_get_user_ie                                  ../lib/libmain.a(user_interface.o)
wifi_get_user_limit_rate_mask                     ../lib/libmain.a(user_interface.o)
wifi_mode_set                                     ../lib/libnet80211.a(ieee80211.o)
                                                  ../lib/libmain.a(user_interface.o)
                                                  ../lib/libmain.a(app_main.o)
wifi_param_save_protect_with_check                ../lib/libmain.a(user_interface.o)
                                                  ../lib/libpp.a(pm_for_bcn_only_mode.o)
                                                  ../lib/libpp.a(pm.o)
                                                  ../lib/libmain.a(app_main.o)
wifi_promiscuous_enable                           ../lib/libmain.a(user_interface.o)
                                                  ../lib/libsmartconfig.a(sc_esptouch.o)
                                                  ../lib/libsmartconfig.a(sc_airkiss.o)
                                                  ../lib/libsmartconfig.a(sc_sniffer.o)
wifi_promiscuous_set_mac                          ../lib/libmain.a(user_interface.o)
wifi_register_rfid_locp_recv_cb                   ../lib/libmain.a(user_interface.o)
wifi_register_send_pkt_freedom_cb                 ../lib/libmain.a(user_interface.o)
wifi_register_user_ie_manufacturer_recv_cb        ../lib/libmain.a(user_interface.o)
wifi_rfid_locp_recv_close                         ../lib/libmain.a(user_interface.o)
wifi_rfid_locp_recv_open                          ../lib/libmain.a(user_interface.o)
wifi_send_pkt_freedom                             ../lib/libmain.a(user_interface.o)
wifi_set_broadcast_if                             ../lib/libmain.a(user_interface.o)
                                                  ../lib/libat.a(at_init_para.o)
wifi_set_channel                                  ../lib/libmain.a(user_interface.o)
                                                  ../lib/libsmartconfig.a(sc_esptouch.o)
                                                  ../lib/libsmartconfig.a(sc_airkiss.o)
                                                  ../lib/libsmartconfig.a(sc_sniffer.o)
wifi_set_event_handler_cb                         ../lib/libmain.a(user_interface.o)
                                                  ../lib/libat.a(at_port.o)
wifi_set_ip_info                                  ../lib/libmain.a(user_interface.o)
                                                  ../lib/libat.a(at_init_para.o)
                                                  ../lib/libat.a(at_wifiCmd.o)
                                                  ../lib/libat.a(at_ipCmd.o)
wifi_set_macaddr                                  ../lib/libmain.a(user_interface.o)
                                                  ../lib/libat.a(at_init_para.o)
                                                  ../lib/libat.a(at_wifiCmd.o)
wifi_set_opmode                                   ../lib/libmain.a(user_interface.o)
                                                  ../lib/libat.a(at_wifiCmd.o)
                                                  user/.output/eagle/debug/lib/libuser.a(WildDog_Drv.o)
                                                  user/.output/eagle/debug/lib/libuser.a(user_tcpclient.o)
                                                  user/.output/eagle/debug/lib/libuser.a(AirKiss_Drv.o)
wifi_set_opmode_current                           ../lib/libmain.a(user_interface.o)
                                                  ../lib/libat.a(at_init_para.o)
                                                  ../lib/libat.a(at_wifiCmd.o)
wifi_set_phy_mode                                 ../lib/libmain.a(user_interface.o)
wifi_set_promiscuous_rx_cb                        ../lib/libmain.a(user_interface.o)
                                                  ../lib/libsmartconfig.a(sc_sniffer.o)
wifi_set_sleep_type                               ../lib/libmain.a(user_interface.o)
                                                  ../lib/libat.a(at_baseCmd.o)
wifi_set_status_led_output_level                  ../lib/libmain.a(user_interface.o)
wifi_set_user_fixed_rate                          ../lib/libmain.a(user_interface.o)
wifi_set_user_ie                                  ../lib/libmain.a(user_interface.o)
wifi_set_user_limit_rate_mask                     ../lib/libmain.a(user_interface.o)
wifi_set_user_rate_limit                          ../lib/libmain.a(user_interface.o)
wifi_set_user_sup_rate                            ../lib/libmain.a(user_interface.o)
wifi_set_wps_cb                                   ../lib/libwps.a(wps.o)
                                                  ../lib/libat.a(at_wifiCmd.o)
wifi_softap_cacl_mac                              ../lib/libmain.a(user_interface.o)
                                                  ../lib/libmain.a(app_main.o)
wifi_softap_deauth                                ../lib/libmain.a(user_interface.o)
                                                  ../lib/libnet80211.a(ieee80211_scan.o)
wifi_softap_dhcps_client_leave                    ../lib/liblwip.a(dhcpserver.o)
wifi_softap_dhcps_client_update                   ../lib/liblwip.a(dhcpserver.o)
wifi_softap_dhcps_start                           ../lib/libmain.a(user_interface.o)
                                                  ../lib/libat.a(at_wifiCmd.o)
                                                  ../lib/libat.a(at_ipCmd.o)
wifi_softap_dhcps_status                          ../lib/libmain.a(user_interface.o)
                                                  ../lib/liblwip.a(dhcpserver.o)
                                                  ../lib/libat.a(at_wifiCmd.o)
                                                  ../lib/libat.a(at_ipCmd.o)
wifi_softap_dhcps_stop                            ../lib/libmain.a(user_interface.o)
                                                  ../lib/libat.a(at_wifiCmd.o)
                                                  ../lib/libat.a(at_ipCmd.o)
wifi_softap_free_station_info                     ../lib/libmain.a(user_interface.o)
wifi_softap_get_beacon_only_mode                  ../lib/libmain.a(user_interface.o)
wifi_softap_get_config                            ../lib/libmain.a(user_interface.o)
                                                  ../lib/libat.a(at_wifiCmd.o)
wifi_softap_get_config_default                    ../lib/libmain.a(user_interface.o)
                                                  ../lib/libat.a(at_wifiCmd.o)
wifi_softap_get_dhcps_lease                       ../lib/liblwip.a(dhcpserver.o)
                                                  ../lib/libat.a(at_wifiCmd.o)
wifi_softap_get_dhcps_lease_time                  ../lib/liblwip.a(dhcpserver.o)
                                                  ../lib/libat.a(at_wifiCmd.o)
wifi_softap_get_station_info                      ../lib/libmain.a(user_interface.o)
                                                  ../lib/libat.a(at_wifiCmd.o)
wifi_softap_get_station_num                       ../lib/libmain.a(user_interface.o)
wifi_softap_reset_dhcps_lease_time                ../lib/liblwip.a(dhcpserver.o)
                                                  ../lib/libat.a(at_wifiCmd.o)
wifi_softap_set_beacon_only_mode                  ../lib/libmain.a(user_interface.o)
wifi_softap_set_config                            ../lib/libmain.a(user_interface.o)
                                                  ../lib/libat.a(at_wifiCmd.o)
wifi_softap_set_config_current                    ../lib/libmain.a(user_interface.o)
                                                  ../lib/libat.a(at_wifiCmd.o)
wifi_softap_set_default_ssid                      ../lib/libmain.a(user_interface.o)
                                                  ../lib/libmain.a(app_main.o)
wifi_softap_set_dhcps_lease                       ../lib/liblwip.a(dhcpserver.o)
                                                  ../lib/libat.a(at_init_para.o)
                                                  ../lib/libat.a(at_wifiCmd.o)
wifi_softap_set_dhcps_lease_time                  ../lib/liblwip.a(dhcpserver.o)
                                                  ../lib/libat.a(at_init_para.o)
                                                  ../lib/libat.a(at_wifiCmd.o)
wifi_softap_set_dhcps_offer_option                ../lib/liblwip.a(dhcpserver.o)
wifi_softap_set_station_info                      ../lib/libmain.a(user_interface.o)
                                                  ../lib/liblwip.a(dhcpserver.o)
wifi_softap_staconnected_event_policy             ../lib/libnet80211.a(wl_cnx.o)
wifi_softap_start                                 ../lib/libnet80211.a(ieee80211_hostap.o)
                                                  ../lib/libmain.a(user_interface.o)
                                                  ../lib/libmain.a(app_main.o)
wifi_softap_stop                                  ../lib/libnet80211.a(ieee80211_hostap.o)
                                                  ../lib/libmain.a(user_interface.o)
wifi_softap_toomany_deny                          ../lib/libnet80211.a(wl_cnx.o)
wifi_station_ap_change                            ../lib/libmain.a(user_interface.o)
wifi_station_ap_check                             ../lib/libmain.a(user_interface.o)
wifi_station_ap_number_set                        ../lib/libmain.a(user_interface.o)
wifi_station_connect                              ../lib/libmain.a(user_interface.o)
                                                  ../lib/libwps.a(wps.o)
                                                  ../lib/libat.a(at_wifiCmd.o)
                                                  ../lib/libat.a(at_ipCmd.o)
                                                  user/.output/eagle/debug/lib/libuser.a(AirKiss_Drv.o)
                                                  ../lib/libmain.a(app_main.o)
wifi_station_dhcpc_event                          ../lib/libmain.a(user_interface.o)
                                                  ../lib/libmain.a(eagle_lwip_if.o)
wifi_station_dhcpc_set_maxtry                     ../lib/libmain.a(user_interface.o)
                                                  ../lib/libat.a(at_ipCmd.o)
wifi_station_dhcpc_start                          ../lib/libmain.a(user_interface.o)
                                                  ../lib/libat.a(at_wifiCmd.o)
                                                  user/.output/eagle/debug/lib/libuser.a(user_tcpclient.o)
wifi_station_dhcpc_status                         ../lib/libmain.a(user_interface.o)
                                                  ../lib/libsmartconfig.a(sc_sniffer.o)
                                                  ../lib/libat.a(at_wifiCmd.o)
                                                  user/.output/eagle/debug/lib/libuser.a(user_tcpclient.o)
                                                  ../lib/libmain.a(eagle_lwip_if.o)
wifi_station_dhcpc_stop                           ../lib/libmain.a(user_interface.o)
                                                  ../lib/libat.a(at_wifiCmd.o)
wifi_station_disconnect                           ../lib/libmain.a(user_interface.o)
                                                  ../lib/libsmartconfig.a(sc_sniffer.o)
                                                  ../lib/libwps.a(wps.o)
                                                  ../lib/libnet80211.a(ieee80211_sta.o)
                                                  ../lib/libnet80211.a(ieee80211_scan.o)
                                                  ../lib/libat.a(at_wifiCmd.o)
                                                  ../lib/libat.a(at_ipCmd.o)
                                                  user/.output/eagle/debug/lib/libuser.a(AirKiss_Drv.o)
wifi_station_get_ap_info                          ../lib/libmain.a(user_interface.o)
wifi_station_get_auto_connect                     ../lib/libmain.a(user_interface.o)
                                                  ../lib/libat.a(at_wifiCmd.o)
                                                  ../lib/libmain.a(app_main.o)
wifi_station_get_config                           ../lib/libmain.a(user_interface.o)
                                                  ../lib/libnet80211.a(wl_cnx.o)
                                                  ../lib/libat.a(at_wifiCmd.o)
                                                  user/.output/eagle/debug/lib/libuser.a(WifiInterface.o)
wifi_station_get_config_default                   ../lib/libmain.a(user_interface.o)
                                                  ../lib/libat.a(at_wifiCmd.o)
                                                  user/.output/eagle/debug/lib/libuser.a(WifiInterface.o)
                                                  user/.output/eagle/debug/lib/libuser.a(AirKiss_Drv.o)
wifi_station_get_connect_status                   ../lib/libmain.a(user_interface.o)
                                                  ../lib/libsmartconfig.a(sc_esptouch.o)
                                                  ../lib/libsmartconfig.a(sc_airkiss.o)
                                                  ../lib/libssl.a(espconn_secure.o)
                                                  ../lib/liblwip.a(espconn.o)
                                                  ../lib/libat.a(at_wifiCmd.o)
                                                  ../lib/libat.a(at_ipCmd.o)
                                                  user/.output/eagle/debug/lib/libuser.a(GizCmdTest.o)
                                                  user/.output/eagle/debug/lib/libuser.a(WildDog_Drv.o)
                                                  user/.output/eagle/debug/lib/libuser.a(user_tcpclient.o)
                                                  user/.output/eagle/debug/lib/libuser.a(AirKiss_Drv.o)
wifi_station_get_current_ap_id                    ../lib/libmain.a(user_interface.o)
wifi_station_get_hostname                         ../lib/libmain.a(user_interface.o)
wifi_station_get_reconnect_policy                 ../lib/libmain.a(user_interface.o)
                                                  ../lib/libnet80211.a(wl_cnx.o)
                                                  ../lib/libnet80211.a(ieee80211_sta.o)
                                                  ../lib/libnet80211.a(ieee80211_scan.o)
wifi_station_get_rssi                             ../lib/libmain.a(user_interface.o)
                                                  ../lib/libat.a(at_wifiCmd.o)
                                                  user/.output/eagle/debug/lib/libuser.a(GizCmdTest.o)
wifi_station_restore_config                       ../lib/libmain.a(user_interface.o)
wifi_station_save_pmk2cache                       ../lib/libmain.a(user_interface.o)
                                                  ../lib/libwpa.a(wpa.o)
wifi_station_scan                                 ../lib/libmain.a(user_interface.o)
                                                  ../lib/libsmartconfig.a(sc_sniffer.o)
                                                  ../lib/libat.a(at_wifiCmd.o)
wifi_station_set_auto_connect                     ../lib/libmain.a(user_interface.o)
                                                  ../lib/libat.a(at_wifiCmd.o)
wifi_station_set_config                           ../lib/libmain.a(user_interface.o)
                                                  ../lib/libwps.a(wps.o)
                                                  ../lib/libat.a(at_wifiCmd.o)
                                                  user/.output/eagle/debug/lib/libuser.a(WildDog_Drv.o)
                                                  user/.output/eagle/debug/lib/libuser.a(AirKiss_Drv.o)
wifi_station_set_config_current                   ../lib/libmain.a(user_interface.o)
                                                  ../lib/libwps.a(wps.o)
                                                  ../lib/libnet80211.a(wl_cnx.o)
                                                  ../lib/libat.a(at_wifiCmd.o)
wifi_station_set_default_hostname                 ../lib/libmain.a(user_interface.o)
                                                  ../lib/libmain.a(eagle_lwip_if.o)
                                                  ../lib/libmain.a(app_main.o)
wifi_station_set_hostname                         ../lib/libmain.a(user_interface.o)
wifi_station_set_reconnect_policy                 ../lib/libmain.a(user_interface.o)
wifi_station_start                                ../lib/libnet80211.a(ieee80211_sta.o)
                                                  ../lib/libmain.a(user_interface.o)
                                                  ../lib/libmain.a(app_main.o)
wifi_station_stop                                 ../lib/libnet80211.a(ieee80211_sta.o)
                                                  ../lib/libmain.a(user_interface.o)
wifi_station_wps_deinit                           ../lib/libwps.a(wps.o)
wifi_station_wps_init                             ../lib/libwps.a(wps.o)
wifi_station_wps_start                            ../lib/libwps.a(wps.o)
wifi_station_wps_success                          ../lib/libwps.a(wps.o)
wifi_station_wps_timeout                          ../lib/libwps.a(wps.o)
wifi_status_led_install                           ../lib/libmain.a(user_interface.o)
wifi_status_led_uninstall                         ../lib/libmain.a(user_interface.o)
wifi_unregister_rfid_locp_recv_cb                 ../lib/libmain.a(user_interface.o)
wifi_unregister_send_pkt_freedom_cb               ../lib/libmain.a(user_interface.o)
wifi_unregister_user_ie_manufacturer_recv_cb      ../lib/libmain.a(user_interface.o)
wifi_wps_disable                                  ../lib/libwps.a(wps.o)
                                                  ../lib/libat.a(at_wifiCmd.o)
wifi_wps_enable                                   ../lib/libwps.a(wps.o)
                                                  ../lib/libat.a(at_wifiCmd.o)
wifi_wps_scan                                     ../lib/libwps.a(wps.o)
wifi_wps_scan_done                                ../lib/libwps.a(wps.o)
wifi_wps_start                                    ../lib/libwps.a(wps.o)
                                                  ../lib/libat.a(at_wifiCmd.o)
wilddog_addObserver                               ../lib/libwilddog.a(wilddog_api.o)
                                                  user/.output/eagle/debug/lib/libuser.a(WDJson_Drv.o)
wilddog_auth                                      ../lib/libwilddog.a(wilddog_api.o)
wilddog_cancelDisconnectOperations                ../lib/libwilddog.a(wilddog_api.o)
wilddog_closeSocket                               ../lib/libwilddog.a(wilddog_espressif.o)
                                                  ../lib/libwilddog.a(wilddog_nosec.o)
wilddog_destroy                                   ../lib/libwilddog.a(wilddog_api.o)
wilddog_getChild                                  ../lib/libwilddog.a(wilddog_api.o)
                                                  user/.output/eagle/debug/lib/libuser.a(WDJson_Drv.o)
wilddog_getHost                                   ../lib/libwilddog.a(wilddog_api.o)
wilddog_getKey                                    ../lib/libwilddog.a(wilddog_api.o)
wilddog_getParent                                 ../lib/libwilddog.a(wilddog_api.o)
wilddog_getPath                                   ../lib/libwilddog.a(wilddog_api.o)
wilddog_getRoot                                   ../lib/libwilddog.a(wilddog_api.o)
wilddog_getValue                                  ../lib/libwilddog.a(wilddog_api.o)
wilddog_gethostbyname                             ../lib/libwilddog.a(wilddog_espressif.o)
                                                  ../lib/libwilddog.a(wilddog_sec_host.o)
wilddog_goOffline                                 ../lib/libwilddog.a(wilddog_api.o)
wilddog_goOnline                                  ../lib/libwilddog.a(wilddog_api.o)
wilddog_increaseTime                              ../lib/libwilddog.a(wilddog_api.o)
                                                  user/.output/eagle/debug/lib/libuser.a(WDJson_Drv.o)
wilddog_initWithUrl                               ../lib/libwilddog.a(wilddog_api.o)
                                                  user/.output/eagle/debug/lib/libuser.a(WDJson_Drv.o)
wilddog_node_addChild                             ../lib/libwilddog.a(wilddog_node.o)
                                                  ../lib/libwilddog.a(wilddog_cbor.o)
                                                  user/.output/eagle/debug/lib/libuser.a(WDJson_Drv.o)
wilddog_node_clone                                ../lib/libwilddog.a(wilddog_node.o)
wilddog_node_createBString                        ../lib/libwilddog.a(wilddog_node.o)
wilddog_node_createFalse                          ../lib/libwilddog.a(wilddog_node.o)
wilddog_node_createFloat                          ../lib/libwilddog.a(wilddog_node.o)
                                                  user/.output/eagle/debug/lib/libuser.a(WDJson_Drv.o)
wilddog_node_createNull                           ../lib/libwilddog.a(wilddog_node.o)
                                                  ../lib/libwilddog.a(wilddog_event.o)
wilddog_node_createNum                            ../lib/libwilddog.a(wilddog_node.o)
                                                  user/.output/eagle/debug/lib/libuser.a(WDJson_Drv.o)
wilddog_node_createObject                         ../lib/libwilddog.a(wilddog_node.o)
                                                  ../lib/libwilddog.a(wilddog_cbor.o)
                                                  user/.output/eagle/debug/lib/libuser.a(WDJson_Drv.o)
wilddog_node_createTrue                           ../lib/libwilddog.a(wilddog_node.o)
wilddog_node_createUString                        ../lib/libwilddog.a(wilddog_node.o)
                                                  user/.output/eagle/debug/lib/libuser.a(WDJson_Drv.o)
wilddog_node_delete                               ../lib/libwilddog.a(wilddog_node.o)
                                                  ../lib/libwilddog.a(wilddog_cbor.o)
                                                  ../lib/libwilddog.a(wilddog_event.o)
                                                  ../lib/libwilddog.a(wilddog_conn_manage.o)
                                                  ../lib/libwilddog.a(wilddog_conn.o)
                                                  user/.output/eagle/debug/lib/libuser.a(WDJson_Drv.o)
wilddog_node_deleteChildren                       ../lib/libwilddog.a(wilddog_node.o)
wilddog_node_find                                 ../lib/libwilddog.a(wilddog_node.o)
                                                  ../lib/libwilddog.a(wilddog_event.o)
                                                  user/.output/eagle/debug/lib/libuser.a(WDJson_Drv.o)
wilddog_node_getValue                             ../lib/libwilddog.a(wilddog_node.o)
wilddog_node_setValue                             ../lib/libwilddog.a(wilddog_node.o)
                                                  user/.output/eagle/debug/lib/libuser.a(WDJson_Drv.o)
wilddog_onDisconnectPush                          ../lib/libwilddog.a(wilddog_api.o)
wilddog_onDisconnectRemoveValue                   ../lib/libwilddog.a(wilddog_api.o)
wilddog_onDisconnectSetValue                      ../lib/libwilddog.a(wilddog_api.o)
wilddog_openSocket                                ../lib/libwilddog.a(wilddog_espressif.o)
                                                  ../lib/libwilddog.a(wilddog_nosec.o)
wilddog_push                                      ../lib/libwilddog.a(wilddog_api.o)
wilddog_receive                                   ../lib/libwilddog.a(wilddog_espressif.o)
                                                  ../lib/libwilddog.a(wilddog_nosec.o)
wilddog_removeObserver                            ../lib/libwilddog.a(wilddog_api.o)
wilddog_removeValue                               ../lib/libwilddog.a(wilddog_api.o)
wilddog_send                                      ../lib/libwilddog.a(wilddog_espressif.o)
                                                  ../lib/libwilddog.a(wilddog_nosec.o)
wilddog_setValue                                  ../lib/libwilddog.a(wilddog_api.o)
                                                  user/.output/eagle/debug/lib/libuser.a(WDJson_Drv.o)
wilddog_trySync                                   ../lib/libwilddog.a(wilddog_api.o)
                                                  user/.output/eagle/debug/lib/libuser.a(WDJson_Drv.o)
wilddog_unauth                                    ../lib/libwilddog.a(wilddog_api.o)
wmalloc                                           ../lib/libwilddog.a(wilddog_common.o)
                                                  ../lib/libwilddog.a(wilddog_cbor.o)
                                                  ../lib/libwilddog.a(pdu.o)
                                                  ../lib/libwilddog.a(wilddog_event.o)
                                                  ../lib/libwilddog.a(wilddog_conn_manage.o)
                                                  ../lib/libwilddog.a(wilddog_conn_coap.o)
                                                  ../lib/libwilddog.a(wilddog_conn.o)
                                                  ../lib/libwilddog.a(wilddog_url_parser.o)
                                                  ../lib/libwilddog.a(wilddog_store.o)
                                                  ../lib/libwilddog.a(wilddog_node.o)
                                                  ../lib/libwilddog.a(wilddog_espressif.o)
                                                  ../lib/libwilddog.a(wilddog_ct.o)
wpa_add_kde                                       ../lib/libwpa.a(wpa_auth_ie.o)
                                                  ../lib/libwpa.a(wpa_auth.o)
wpa_attach                                        ../lib/libwpa.a(wpa_main.o)
                                                  ../lib/libnet80211.a(ieee80211_sta.o)
wpa_auth_for_each_sta                             ../lib/libwpa.a(wpa_auth.o)
wpa_auth_gen_wpa_ie                               ../lib/libwpa.a(wpa_auth_ie.o)
                                                  ../lib/libwpa.a(wpa_auth.o)
wpa_auth_sm_event                                 ../lib/libwpa.a(wpa_auth.o)
wpa_auth_sta_associated                           ../lib/libwpa.a(wpa_auth.o)
                                                  ../lib/libnet80211.a(wl_cnx.o)
wpa_auth_sta_deinit                               ../lib/libwpa.a(wpa_auth.o)
                                                  ../lib/libnet80211.a(wl_cnx.o)
wpa_auth_sta_init                                 ../lib/libwpa.a(wpa_auth.o)
                                                  ../lib/libnet80211.a(wl_cnx.o)
wpa_auth_sta_no_wpa                               ../lib/libwpa.a(wpa_auth.o)
wpa_auth_uses_mfp                                 ../lib/libwpa.a(wpa_auth_ie.o)
wpa_cipher_key_len                                ../lib/libwpa.a(wpa_common.o)
                                                  ../lib/libwpa.a(wpa_auth.o)
wpa_cipher_put_suites                             ../lib/libwpa.a(wpa_common.o)
                                                  ../lib/libwpa.a(wpa_auth_ie.o)
wpa_cipher_to_alg                                 ../lib/libwpa.a(wpa_common.o)
                                                  ../lib/libwpa.a(wpa_auth.o)
wpa_cipher_to_suite                               ../lib/libwpa.a(wpa_common.o)
                                                  ../lib/libwpa.a(wpa_auth_ie.o)
wpa_compare_rsn_ie                                ../lib/libwpa.a(wpa_common.o)
                                                  ../lib/libwpa.a(wpa.o)
                                                  ../lib/libwpa.a(wpa_auth.o)
wpa_config_assoc_ie                               ../lib/libwpa.a(wpa_main.o)
wpa_config_bss                                    ../lib/libwpa.a(wpa_main.o)
                                                  ../lib/libnet80211.a(wl_cnx.o)
                                                  ../lib/libnet80211.a(ieee80211_sta.o)
wpa_config_parse_string                           ../lib/libwpa.a(common.o)
                                                  ../lib/libnet80211.a(ieee80211_scan.o)
wpa_config_profile                                ../lib/libwpa.a(wpa_main.o)
                                                  ../lib/libnet80211.a(wl_cnx.o)
wpa_eapol_key_mic                                 ../lib/libwpa.a(wpa_common.o)
                                                  ../lib/libwpa.a(wpa.o)
                                                  ../lib/libwpa.a(wpa_auth.o)
wpa_gen_wpa_ie                                    ../lib/libwpa.a(wpa_ie.o)
                                                  ../lib/libwpa.a(wpa.o)
wpa_get_ntp_timestamp                             ../lib/libwpa.a(common.o)
                                                  ../lib/libwpa.a(wpa_auth.o)
wpa_init                                          ../lib/libwpa.a(wpa_auth.o)
                                                  ../lib/libnet80211.a(ieee80211_hostap.o)
wpa_neg_complete                                  ../lib/libwpa.a(wpa_main.o)
wpa_parse_kde_ies                                 ../lib/libwpa.a(wpa_auth_ie.o)
                                                  ../lib/libwpa.a(wpa_auth.o)
wpa_parse_wpa_ie                                  ../lib/libwpa.a(wpa_ie.o)
                                                  ../lib/libnet80211.a(ieee80211_scan.o)
wpa_parse_wpa_ie_rsn                              ../lib/libwpa.a(wpa_common.o)
                                                  ../lib/libwpa.a(wpa_ie.o)
                                                  ../lib/libwpa.a(wpa_auth_ie.o)
wpa_parse_wpa_ie_wpa                              ../lib/libwpa.a(wpa_common.o)
                                                  ../lib/libwpa.a(wpa_ie.o)
                                                  ../lib/libwpa.a(wpa_auth_ie.o)
wpa_pmk_to_ptk                                    ../lib/libwpa.a(wpa_common.o)
                                                  ../lib/libwpa.a(wpa.o)
                                                  ../lib/libwpa.a(wpa_auth.o)
wpa_receive                                       ../lib/libwpa.a(wpa_auth.o)
                                                  ../lib/libnet80211.a(ieee80211_hostap.o)
wpa_register                                      ../lib/libwpa.a(wpa.o)
                                                  ../lib/libwpa.a(wpa_main.o)
wpa_remove_ptk                                    ../lib/libwpa.a(wpa_auth.o)
wpa_set_bss                                       ../lib/libwpa.a(wpa.o)
                                                  ../lib/libwpa.a(wpa_main.o)
wpa_set_pmk                                       ../lib/libwpa.a(wpa.o)
wpa_set_profile                                   ../lib/libwpa.a(wpa.o)
                                                  ../lib/libwpa.a(wpa_main.o)
wpa_sm_alloc_eapol                                ../lib/libwpa.a(wpas_glue.o)
                                                  ../lib/libwpa.a(wpa.o)
wpa_sm_deauthenticate                             ../lib/libwpa.a(wpas_glue.o)
                                                  ../lib/libwpa.a(wpa.o)
wpa_sm_disassociate                               ../lib/libwpa.a(wpas_glue.o)
                                                  ../lib/libwpa.a(wpa.o)
wpa_sm_get_beacon_ie                              ../lib/libwpa.a(wpas_glue.o)
                                                  ../lib/libwpa.a(wpa.o)
wpa_sm_mlme_setprotection                         ../lib/libwpa.a(wpas_glue.o)
                                                  ../lib/libwpa.a(wpa.o)
wpa_sm_rx_eapol                                   ../lib/libwpa.a(wpa.o)
                                                  ../lib/libnet80211.a(ieee80211_sta.o)
wpa_sm_set_state                                  ../lib/libwpa.a(wpa.o)
wpa_snprintf_hex                                  ../lib/libwpa.a(wpa_debug.o)
wpa_snprintf_hex_uppercase                        ../lib/libwpa.a(wpa_debug.o)
wpa_supplicant_parse_ies                          ../lib/libwpa.a(wpa_ie.o)
                                                  ../lib/libwpa.a(wpa.o)
wpa_validate_wpa_ie                               ../lib/libwpa.a(wpa_auth_ie.o)
                                                  ../lib/libnet80211.a(wl_cnx.o)
wpa_write_rsn_ie                                  ../lib/libwpa.a(wpa_auth_ie.o)
wpabuf_alloc                                      ../lib/libwpa.a(wpabuf.o)
                                                  ../lib/libcrypto.a(dh_groups.o)
                                                  ../lib/libwps.a(wps_attr_build.o)
                                                  ../lib/libwps.a(eap_common.o)
                                                  ../lib/libwps.a(wps_registrar.o)
                                                  ../lib/libwps.a(wps_enrollee.o)
                                                  ../lib/libwps.a(wps_common.o)
                                                  ../lib/libwps.a(wps.o)
wpabuf_alloc_copy                                 ../lib/libwpa.a(wpabuf.o)
                                                  ../lib/libwps.a(wps_registrar.o)
                                                  ../lib/libwps.a(wps_enrollee.o)
                                                  ../lib/libwps.a(wps.o)
wpabuf_alloc_ext_data                             ../lib/libwpa.a(wpabuf.o)
wpabuf_concat                                     ../lib/libwpa.a(wpabuf.o)
wpabuf_dup                                        ../lib/libwpa.a(wpabuf.o)
                                                  ../lib/libwps.a(wps_attr_build.o)
                                                  ../lib/libwps.a(wps_registrar.o)
                                                  ../lib/libwps.a(wps_enrollee.o)
wpabuf_free                                       ../lib/libwpa.a(wpabuf.o)
                                                  ../lib/libcrypto.a(dh_groups.o)
                                                  ../lib/libwps.a(wps_attr_build.o)
                                                  ../lib/libwps.a(wps_registrar.o)
                                                  ../lib/libwps.a(wps_enrollee.o)
                                                  ../lib/libwps.a(wps_common.o)
                                                  ../lib/libwps.a(wps.o)
wpabuf_printf                                     ../lib/libwpa.a(wpabuf.o)
wpabuf_put                                        ../lib/libwpa.a(wpabuf.o)
                                                  ../lib/libcrypto.a(dh_groups.o)
                                                  ../lib/libwps.a(wps_attr_build.o)
                                                  ../lib/libwps.a(eap_common.o)
                                                  ../lib/libwps.a(wps_registrar.o)
                                                  ../lib/libwps.a(wps_enrollee.o)
                                                  ../lib/libwps.a(wps_dev_attr.o)
                                                  ../lib/libwps.a(wps_common.o)
                                                  ../lib/libwps.a(wps.o)
wpabuf_resize                                     ../lib/libwpa.a(wpabuf.o)
                                                  ../lib/libwps.a(wps.o)
wpabuf_zeropad                                    ../lib/libwpa.a(wpabuf.o)
                                                  ../lib/libwps.a(wps_attr_build.o)
                                                  ../lib/libwps.a(wps_common.o)
wps_ap_priority_compar                            ../lib/libwps.a(wps.o)
wps_attr_text                                     ../lib/libwps.a(wps.o)
wps_authorized_macs                               ../lib/libwps.a(wps_registrar.o)
wps_build_assoc_req_ie                            ../lib/libwps.a(wps.o)
wps_build_assoc_resp_ie                           ../lib/libwps.a(wps.o)
wps_build_assoc_state                             ../lib/libwps.a(wps_attr_build.o)
                                                  ../lib/libwps.a(wps_registrar.o)
                                                  ../lib/libwps.a(wps_enrollee.o)
                                                  ../lib/libwps.a(wps.o)
wps_build_auth_type_flags                         ../lib/libwps.a(wps_attr_build.o)
                                                  ../lib/libwps.a(wps_registrar.o)
                                                  ../lib/libwps.a(wps_enrollee.o)
wps_build_authenticator                           ../lib/libwps.a(wps_attr_build.o)
                                                  ../lib/libwps.a(wps_registrar.o)
                                                  ../lib/libwps.a(wps_enrollee.o)
wps_build_config_error                            ../lib/libwps.a(wps_attr_build.o)
                                                  ../lib/libwps.a(wps_registrar.o)
                                                  ../lib/libwps.a(wps_enrollee.o)
                                                  ../lib/libwps.a(wps_common.o)
                                                  ../lib/libwps.a(wps.o)
wps_build_config_methods                          ../lib/libwps.a(wps_attr_build.o)
                                                  ../lib/libwps.a(wps_registrar.o)
                                                  ../lib/libwps.a(wps_enrollee.o)
                                                  ../lib/libwps.a(wps.o)
wps_build_conn_type_flags                         ../lib/libwps.a(wps_attr_build.o)
                                                  ../lib/libwps.a(wps_registrar.o)
                                                  ../lib/libwps.a(wps_enrollee.o)
wps_build_cred                                    ../lib/libwps.a(wps_registrar.o)
wps_build_credential_wrap                         ../lib/libwps.a(wps_registrar.o)
wps_build_dev_name                                ../lib/libwps.a(wps_dev_attr.o)
                                                  ../lib/libwps.a(wps.o)
wps_build_dev_password_id                         ../lib/libwps.a(wps_attr_build.o)
                                                  ../lib/libwps.a(wps_registrar.o)
                                                  ../lib/libwps.a(wps_enrollee.o)
                                                  ../lib/libwps.a(wps.o)
wps_build_device_attrs                            ../lib/libwps.a(wps_dev_attr.o)
                                                  ../lib/libwps.a(wps_registrar.o)
                                                  ../lib/libwps.a(wps_enrollee.o)
wps_build_encr_settings                           ../lib/libwps.a(wps_attr_build.o)
                                                  ../lib/libwps.a(wps_registrar.o)
                                                  ../lib/libwps.a(wps_enrollee.o)
wps_build_encr_type_flags                         ../lib/libwps.a(wps_attr_build.o)
                                                  ../lib/libwps.a(wps_registrar.o)
                                                  ../lib/libwps.a(wps_enrollee.o)
wps_build_enrollee_nonce                          ../lib/libwps.a(wps_attr_build.o)
                                                  ../lib/libwps.a(wps_registrar.o)
                                                  ../lib/libwps.a(wps_enrollee.o)
                                                  ../lib/libwps.a(wps_common.o)
wps_build_key_wrap_auth                           ../lib/libwps.a(wps_attr_build.o)
                                                  ../lib/libwps.a(wps_registrar.o)
                                                  ../lib/libwps.a(wps_enrollee.o)
wps_build_manufacturer                            ../lib/libwps.a(wps_dev_attr.o)
                                                  ../lib/libwps.a(wps.o)
wps_build_model_name                              ../lib/libwps.a(wps_dev_attr.o)
                                                  ../lib/libwps.a(wps.o)
wps_build_model_number                            ../lib/libwps.a(wps_dev_attr.o)
                                                  ../lib/libwps.a(wps.o)
wps_build_msg_type                                ../lib/libwps.a(wps_attr_build.o)
                                                  ../lib/libwps.a(wps_registrar.o)
                                                  ../lib/libwps.a(wps_enrollee.o)
                                                  ../lib/libwps.a(wps_common.o)
wps_build_os_version                              ../lib/libwps.a(wps_dev_attr.o)
                                                  ../lib/libwps.a(wps_registrar.o)
                                                  ../lib/libwps.a(wps_enrollee.o)
wps_build_primary_dev_type                        ../lib/libwps.a(wps_dev_attr.o)
                                                  ../lib/libwps.a(wps.o)
wps_build_probe_req_ie                            ../lib/libwps.a(wps.o)
wps_build_public_key                              ../lib/libwps.a(wps_attr_build.o)
                                                  ../lib/libwps.a(wps_registrar.o)
                                                  ../lib/libwps.a(wps_enrollee.o)
                                                  ../lib/libwps.a(wps.o)
wps_build_registrar_nonce                         ../lib/libwps.a(wps_attr_build.o)
                                                  ../lib/libwps.a(wps_registrar.o)
                                                  ../lib/libwps.a(wps_enrollee.o)
                                                  ../lib/libwps.a(wps_common.o)
wps_build_req_dev_type                            ../lib/libwps.a(wps_dev_attr.o)
                                                  ../lib/libwps.a(wps.o)
wps_build_req_type                                ../lib/libwps.a(wps_attr_build.o)
                                                  ../lib/libwps.a(wps.o)
wps_build_resp_type                               ../lib/libwps.a(wps_attr_build.o)
                                                  ../lib/libwps.a(wps_registrar.o)
                                                  ../lib/libwps.a(wps.o)
wps_build_rf_bands                                ../lib/libwps.a(wps_dev_attr.o)
                                                  ../lib/libwps.a(wps_registrar.o)
                                                  ../lib/libwps.a(wps_enrollee.o)
                                                  ../lib/libwps.a(wps.o)
wps_build_secondary_dev_type                      ../lib/libwps.a(wps_dev_attr.o)
                                                  ../lib/libwps.a(wps.o)
wps_build_uuid_e                                  ../lib/libwps.a(wps_attr_build.o)
                                                  ../lib/libwps.a(wps_registrar.o)
                                                  ../lib/libwps.a(wps_enrollee.o)
                                                  ../lib/libwps.a(wps.o)
wps_build_vendor_ext                              ../lib/libwps.a(wps_dev_attr.o)
                                                  ../lib/libwps.a(wps_registrar.o)
wps_build_vendor_ext_m1                           ../lib/libwps.a(wps_dev_attr.o)
                                                  ../lib/libwps.a(wps_enrollee.o)
wps_build_version                                 ../lib/libwps.a(wps_attr_build.o)
                                                  ../lib/libwps.a(wps_registrar.o)
                                                  ../lib/libwps.a(wps_enrollee.o)
                                                  ../lib/libwps.a(wps_common.o)
                                                  ../lib/libwps.a(wps.o)
wps_build_wfa_ext                                 ../lib/libwps.a(wps_attr_build.o)
                                                  ../lib/libwps.a(wps_registrar.o)
                                                  ../lib/libwps.a(wps_enrollee.o)
                                                  ../lib/libwps.a(wps_common.o)
                                                  ../lib/libwps.a(wps.o)
wps_build_wsc_ack                                 ../lib/libwps.a(wps_common.o)
                                                  ../lib/libwps.a(wps_registrar.o)
                                                  ../lib/libwps.a(wps_enrollee.o)
wps_build_wsc_nack                                ../lib/libwps.a(wps_common.o)
                                                  ../lib/libwps.a(wps_registrar.o)
                                                  ../lib/libwps.a(wps_enrollee.o)
wps_config_methods_str2bin                        ../lib/libwps.a(wps_common.o)
wps_decrypt_encr_settings                         ../lib/libwps.a(wps_common.o)
                                                  ../lib/libwps.a(wps_registrar.o)
                                                  ../lib/libwps.a(wps_enrollee.o)
wps_deinit                                        ../lib/libwps.a(wps.o)
wps_derive_keys                                   ../lib/libwps.a(wps_common.o)
                                                  ../lib/libwps.a(wps_registrar.o)
                                                  ../lib/libwps.a(wps_enrollee.o)
wps_derive_psk                                    ../lib/libwps.a(wps_common.o)
                                                  ../lib/libwps.a(wps_registrar.o)
                                                  ../lib/libwps.a(wps_enrollee.o)
wps_dev_deinit                                    ../lib/libwps.a(wps.o)
wps_dev_init                                      ../lib/libwps.a(wps.o)
wps_dev_type_bin2str                              ../lib/libwps.a(wps_common.o)
                                                  ../lib/libwps.a(wps_registrar.o)
                                                  ../lib/libwps.a(wps.o)
wps_dev_type_str2bin                              ../lib/libwps.a(wps_common.o)
wps_device_data_dup                               ../lib/libwps.a(wps_dev_attr.o)
wps_device_data_free                              ../lib/libwps.a(wps_dev_attr.o)
                                                  ../lib/libwps.a(wps_registrar.o)
wps_device_store                                  ../lib/libwps.a(wps_registrar.o)
                                                  ../lib/libwps.a(wps_enrollee.o)
wps_enrollee_get_msg                              ../lib/libwps.a(wps_enrollee.o)
                                                  ../lib/libwps.a(wps.o)
wps_enrollee_process_msg                          ../lib/libwps.a(wps_enrollee.o)
                                                  ../lib/libwps.a(wps.o)
wps_fail_event                                    ../lib/libwps.a(wps_common.o)
                                                  ../lib/libwps.a(wps_registrar.o)
                                                  ../lib/libwps.a(wps_enrollee.o)
wps_generate_pin                                  ../lib/libwps.a(wps_common.o)
                                                  ../lib/libwps.a(wps.o)
wps_get_msg                                       ../lib/libwps.a(wps.o)
wps_get_uuid_e                                    ../lib/libwps.a(wps.o)
wps_ie_encapsulate                                ../lib/libwps.a(wps_attr_build.o)
                                                  ../lib/libwps.a(wps_registrar.o)
                                                  ../lib/libwps.a(wps.o)
wps_init                                          ../lib/libwps.a(wps.o)
wps_is_20                                         ../lib/libwps.a(wps.o)
wps_is_addr_authorized                            ../lib/libwps.a(wps.o)
wps_is_selected_pbc_registrar                     ../lib/libwps.a(wps.o)
wps_is_selected_pin_registrar                     ../lib/libwps.a(wps.o)
wps_kdf                                           ../lib/libwps.a(wps_common.o)
wps_key_save                                      ../lib/libwps.a(wps.o)
                                                  ../lib/libwps.a(wps_enrollee.o)
wps_parse_msg                                     ../lib/libwps.a(wps_attr_parse.o)
                                                  ../lib/libwps.a(wps_validate.o)
                                                  ../lib/libwps.a(wps_registrar.o)
                                                  ../lib/libwps.a(wps_enrollee.o)
                                                  ../lib/libwps.a(wps.o)
wps_pbc_overlap_event                             ../lib/libwps.a(wps_common.o)
                                                  ../lib/libwps.a(wps_registrar.o)
wps_pbc_timeout_event                             ../lib/libwps.a(wps_common.o)
                                                  ../lib/libwps.a(wps_registrar.o)
wps_pin_checksum                                  ../lib/libwps.a(wps_common.o)
wps_pin_str_valid                                 ../lib/libwps.a(wps_common.o)
wps_pin_valid                                     ../lib/libwps.a(wps_common.o)
wps_process_ap_settings                           ../lib/libwps.a(wps_attr_process.o)
                                                  ../lib/libwps.a(wps_registrar.o)
                                                  ../lib/libwps.a(wps_enrollee.o)
wps_process_authenticator                         ../lib/libwps.a(wps_attr_process.o)
                                                  ../lib/libwps.a(wps_registrar.o)
                                                  ../lib/libwps.a(wps_enrollee.o)
wps_process_cred                                  ../lib/libwps.a(wps_attr_process.o)
                                                  ../lib/libwps.a(wps_enrollee.o)
wps_process_device_attrs                          ../lib/libwps.a(wps_dev_attr.o)
                                                  ../lib/libwps.a(wps_registrar.o)
                                                  ../lib/libwps.a(wps_enrollee.o)
wps_process_key_wrap_auth                         ../lib/libwps.a(wps_attr_process.o)
                                                  ../lib/libwps.a(wps_registrar.o)
                                                  ../lib/libwps.a(wps_enrollee.o)
wps_process_msg                                   ../lib/libwps.a(wps.o)
wps_process_os_version                            ../lib/libwps.a(wps_dev_attr.o)
                                                  ../lib/libwps.a(wps_registrar.o)
wps_process_rf_bands                              ../lib/libwps.a(wps_dev_attr.o)
                                                  ../lib/libwps.a(wps_registrar.o)
wps_process_wps_mX_req                            ../lib/libwps.a(wps.o)
wps_pwd_auth_fail_event                           ../lib/libwps.a(wps_common.o)
                                                  ../lib/libwps.a(wps_registrar.o)
                                                  ../lib/libwps.a(wps_enrollee.o)
wps_registrar_add_pin                             ../lib/libwps.a(wps_registrar.o)
wps_registrar_button_pushed                       ../lib/libwps.a(wps_registrar.o)
wps_registrar_complete                            ../lib/libwps.a(wps_registrar.o)
wps_registrar_config_ap                           ../lib/libwps.a(wps_registrar.o)
wps_registrar_deinit                              ../lib/libwps.a(wps_registrar.o)
wps_registrar_get_info                            ../lib/libwps.a(wps_registrar.o)
wps_registrar_get_msg                             ../lib/libwps.a(wps_registrar.o)
                                                  ../lib/libwps.a(wps.o)
wps_registrar_init                                ../lib/libwps.a(wps_registrar.o)
wps_registrar_invalidate_pin                      ../lib/libwps.a(wps_registrar.o)
wps_registrar_pbc_overlap                         ../lib/libwps.a(wps_registrar.o)
wps_registrar_probe_req_rx                        ../lib/libwps.a(wps_registrar.o)
wps_registrar_process_msg                         ../lib/libwps.a(wps_registrar.o)
                                                  ../lib/libwps.a(wps.o)
wps_registrar_selected_registrar_changed          ../lib/libwps.a(wps_registrar.o)
wps_registrar_unlock_pin                          ../lib/libwps.a(wps_registrar.o)
wps_registrar_update_ie                           ../lib/libwps.a(wps_registrar.o)
wps_registrar_wps_cancel                          ../lib/libwps.a(wps_registrar.o)
wps_send_eap_identity_rsp                         ../lib/libwps.a(wps.o)
wps_send_wps_mX_rsp                               ../lib/libwps.a(wps.o)
wps_sm_alloc_eapol                                ../lib/libwps.a(wps.o)
wps_sm_get                                        ../lib/libwps.a(wps.o)
wps_sm_rx_eapol                                   ../lib/libwps.a(wps.o)
wps_start_pending                                 ../lib/libwps.a(wps.o)
wps_station_wps_register_cb                       ../lib/libwps.a(wps.o)
wps_success_event                                 ../lib/libwps.a(wps_common.o)
                                                  ../lib/libwps.a(wps_registrar.o)
                                                  ../lib/libwps.a(wps_enrollee.o)
wps_txStart                                       ../lib/libwps.a(wps.o)
wps_validate_assoc_req                            ../lib/libwps.a(wps_validate.o)
wps_validate_assoc_resp                           ../lib/libwps.a(wps_validate.o)
wps_validate_beacon                               ../lib/libwps.a(wps_validate.o)
wps_validate_beacon_probe_resp                    ../lib/libwps.a(wps_validate.o)
wps_validate_m1                                   ../lib/libwps.a(wps_validate.o)
                                                  ../lib/libwps.a(wps_registrar.o)
wps_validate_m2                                   ../lib/libwps.a(wps_validate.o)
                                                  ../lib/libwps.a(wps_enrollee.o)
wps_validate_m2d                                  ../lib/libwps.a(wps_validate.o)
                                                  ../lib/libwps.a(wps_enrollee.o)
wps_validate_m3                                   ../lib/libwps.a(wps_validate.o)
                                                  ../lib/libwps.a(wps_registrar.o)
wps_validate_m4                                   ../lib/libwps.a(wps_validate.o)
                                                  ../lib/libwps.a(wps_enrollee.o)
wps_validate_m4_encr                              ../lib/libwps.a(wps_validate.o)
                                                  ../lib/libwps.a(wps_enrollee.o)
wps_validate_m5                                   ../lib/libwps.a(wps_validate.o)
                                                  ../lib/libwps.a(wps_registrar.o)
wps_validate_m5_encr                              ../lib/libwps.a(wps_validate.o)
                                                  ../lib/libwps.a(wps_registrar.o)
wps_validate_m6                                   ../lib/libwps.a(wps_validate.o)
                                                  ../lib/libwps.a(wps_enrollee.o)
wps_validate_m6_encr                              ../lib/libwps.a(wps_validate.o)
                                                  ../lib/libwps.a(wps_enrollee.o)
wps_validate_m7                                   ../lib/libwps.a(wps_validate.o)
                                                  ../lib/libwps.a(wps_registrar.o)
wps_validate_m7_encr                              ../lib/libwps.a(wps_validate.o)
                                                  ../lib/libwps.a(wps_registrar.o)
wps_validate_m8                                   ../lib/libwps.a(wps_validate.o)
                                                  ../lib/libwps.a(wps_enrollee.o)
wps_validate_m8_encr                              ../lib/libwps.a(wps_validate.o)
                                                  ../lib/libwps.a(wps_enrollee.o)
wps_validate_probe_req                            ../lib/libwps.a(wps_validate.o)
wps_validate_upnp_set_selected_registrar          ../lib/libwps.a(wps_validate.o)
wps_validate_wsc_ack                              ../lib/libwps.a(wps_validate.o)
                                                  ../lib/libwps.a(wps_registrar.o)
                                                  ../lib/libwps.a(wps_enrollee.o)
wps_validate_wsc_done                             ../lib/libwps.a(wps_validate.o)
                                                  ../lib/libwps.a(wps_registrar.o)
wps_validate_wsc_nack                             ../lib/libwps.a(wps_validate.o)
                                                  ../lib/libwps.a(wps_registrar.o)
                                                  ../lib/libwps.a(wps_enrollee.o)
wrealloc                                          ../lib/libwilddog.a(wilddog_common.o)
                                                  ../lib/libwilddog.a(wilddog_cbor.o)
write_data_to_rtc                                 ../lib/libphy.a(phy_chip_v6.o)
x509_display_error                                ../lib/libssl.a(ssl_x509.o)
                                                  ../lib/libssl.a(ssl_tls1.o)
x509_free                                         ../lib/libssl.a(ssl_x509.o)
                                                  ../lib/libssl.a(ssl_asn1.o)
                                                  ../lib/libssl.a(ssl_tls1.o)
                                                  ../lib/libssl.a(espconn_ssl.o)
x509_new                                          ../lib/libssl.a(ssl_x509.o)
                                                  ../lib/libssl.a(ssl_tls1.o)
x509_print                                        ../lib/libssl.a(ssl_x509.o)
                                                  ../lib/libssl.a(ssl_tls1.o)
x509_verify                                       ../lib/libssl.a(ssl_x509.o)
                                                  ../lib/libssl.a(ssl_tls1_svr.o)
                                                  ../lib/libssl.a(ssl_tls1.o)
xPortGetFreeHeapSize                              ../lib/libmain.a(mem_manager.o)
                                                  ../lib/libmain.a(user_interface.o)
xPortWantedSizeAlign                              ../lib/libmain.a(mem_manager.o)
                                                  ../lib/libmain.a(user_interface.o)
xthal_set_intclear                                /opt/xtensa-lx106-elf/bin/../lib/gcc/xtensa-lx106-elf/4.8.2/libhal.a(int_asm--set_intclear.o)
                                                  ../lib/libmain.a(app_main.o)
